Archive member included to satisfy reference by file (symbol)

/media/christoph/8A841458841448D9/space/altera_lite/15.1/nios2eds/bin/gnu/H-x86_64-pc-linux-gnu/bin/../lib/gcc/nios2-elf/4.9.2/mno-hw-mul/libgcc.a(_fixunsdfsi.o)
                              obj/default/motor.o (__fixunsdfsi)
/media/christoph/8A841458841448D9/space/altera_lite/15.1/nios2eds/bin/gnu/H-x86_64-pc-linux-gnu/bin/../lib/gcc/nios2-elf/4.9.2/mno-hw-mul/libgcc.a(lib2-mul.o)
                              obj/default/gps.o (__mulsi3)
/media/christoph/8A841458841448D9/space/altera_lite/15.1/nios2eds/bin/gnu/H-x86_64-pc-linux-gnu/bin/../lib/gcc/nios2-elf/4.9.2/mno-hw-mul/libgcc.a(divdf3.o)
                              obj/default/motor.o (__divdf3)
/media/christoph/8A841458841448D9/space/altera_lite/15.1/nios2eds/bin/gnu/H-x86_64-pc-linux-gnu/bin/../lib/gcc/nios2-elf/4.9.2/mno-hw-mul/libgcc.a(gedf2.o)
                              /media/christoph/8A841458841448D9/space/altera_lite/15.1/nios2eds/bin/gnu/H-x86_64-pc-linux-gnu/bin/../lib/gcc/nios2-elf/4.9.2/mno-hw-mul/libgcc.a(_fixunsdfsi.o) (__gedf2)
/media/christoph/8A841458841448D9/space/altera_lite/15.1/nios2eds/bin/gnu/H-x86_64-pc-linux-gnu/bin/../lib/gcc/nios2-elf/4.9.2/mno-hw-mul/libgcc.a(ledf2.o)
                              obj/default/motor.o (__ltdf2)
/media/christoph/8A841458841448D9/space/altera_lite/15.1/nios2eds/bin/gnu/H-x86_64-pc-linux-gnu/bin/../lib/gcc/nios2-elf/4.9.2/mno-hw-mul/libgcc.a(muldf3.o)
                              obj/default/motor.o (__muldf3)
/media/christoph/8A841458841448D9/space/altera_lite/15.1/nios2eds/bin/gnu/H-x86_64-pc-linux-gnu/bin/../lib/gcc/nios2-elf/4.9.2/mno-hw-mul/libgcc.a(subdf3.o)
                              /media/christoph/8A841458841448D9/space/altera_lite/15.1/nios2eds/bin/gnu/H-x86_64-pc-linux-gnu/bin/../lib/gcc/nios2-elf/4.9.2/mno-hw-mul/libgcc.a(_fixunsdfsi.o) (__subdf3)
/media/christoph/8A841458841448D9/space/altera_lite/15.1/nios2eds/bin/gnu/H-x86_64-pc-linux-gnu/bin/../lib/gcc/nios2-elf/4.9.2/mno-hw-mul/libgcc.a(fixdfsi.o)
                              /media/christoph/8A841458841448D9/space/altera_lite/15.1/nios2eds/bin/gnu/H-x86_64-pc-linux-gnu/bin/../lib/gcc/nios2-elf/4.9.2/mno-hw-mul/libgcc.a(_fixunsdfsi.o) (__fixdfsi)
/media/christoph/8A841458841448D9/space/altera_lite/15.1/nios2eds/bin/gnu/H-x86_64-pc-linux-gnu/bin/../lib/gcc/nios2-elf/4.9.2/mno-hw-mul/libgcc.a(floatsidf.o)
                              obj/default/main.o (__floatsidf)
/media/christoph/8A841458841448D9/space/altera_lite/15.1/nios2eds/bin/gnu/H-x86_64-pc-linux-gnu/bin/../lib/gcc/nios2-elf/4.9.2/mno-hw-mul/libgcc.a(_clzsi2.o)
                              /media/christoph/8A841458841448D9/space/altera_lite/15.1/nios2eds/bin/gnu/H-x86_64-pc-linux-gnu/bin/../lib/gcc/nios2-elf/4.9.2/mno-hw-mul/libgcc.a(divdf3.o) (__clzsi2)
/media/christoph/8A841458841448D9/space/altera_lite/15.1/nios2eds/bin/gnu/H-x86_64-pc-linux-gnu/bin/../lib/gcc/nios2-elf/4.9.2/mno-hw-mul/libgcc.a(lib2-divmod.o)
                              /media/christoph/8A841458841448D9/space/altera_lite/15.1/nios2eds/bin/gnu/H-x86_64-pc-linux-gnu/bin/../lib/gcc/nios2-elf/4.9.2/mno-hw-mul/libgcc.a(divdf3.o) (__udivsi3)
/media/christoph/8A841458841448D9/space/altera_lite/15.1/nios2eds/bin/gnu/H-x86_64-pc-linux-gnu/bin/../lib/gcc/nios2-elf/4.9.2/mno-hw-mul/libgcc.a(_clz.o)
                              /media/christoph/8A841458841448D9/space/altera_lite/15.1/nios2eds/bin/gnu/H-x86_64-pc-linux-gnu/bin/../lib/gcc/nios2-elf/4.9.2/mno-hw-mul/libgcc.a(_clzsi2.o) (__clz_tab)
/media/christoph/8A841458841448D9/space/altera_lite/15.1/nios2eds/bin/gnu/H-x86_64-pc-linux-gnu/bin/../lib/gcc/nios2-elf/4.9.2/../../../../../H-x86_64-pc-linux-gnu/nios2-elf/lib/mno-hw-mul/libc.a(lib_a-printf.o)
                              obj/default/main.o (printf)
/media/christoph/8A841458841448D9/space/altera_lite/15.1/nios2eds/bin/gnu/H-x86_64-pc-linux-gnu/bin/../lib/gcc/nios2-elf/4.9.2/../../../../../H-x86_64-pc-linux-gnu/nios2-elf/lib/mno-hw-mul/libc.a(lib_a-strncmp.o)
                              obj/default/gps.o (strncmp)
/media/christoph/8A841458841448D9/space/altera_lite/15.1/nios2eds/bin/gnu/H-x86_64-pc-linux-gnu/bin/../lib/gcc/nios2-elf/4.9.2/../../../../../H-x86_64-pc-linux-gnu/nios2-elf/lib/mno-hw-mul/libc.a(lib_a-strncpy.o)
                              obj/default/gps.o (strncpy)
/media/christoph/8A841458841448D9/space/altera_lite/15.1/nios2eds/bin/gnu/H-x86_64-pc-linux-gnu/bin/../lib/gcc/nios2-elf/4.9.2/../../../../../H-x86_64-pc-linux-gnu/nios2-elf/lib/mno-hw-mul/libc.a(lib_a-vfprintf.o)
                              /media/christoph/8A841458841448D9/space/altera_lite/15.1/nios2eds/bin/gnu/H-x86_64-pc-linux-gnu/bin/../lib/gcc/nios2-elf/4.9.2/../../../../../H-x86_64-pc-linux-gnu/nios2-elf/lib/mno-hw-mul/libc.a(lib_a-printf.o) (___vfprintf_internal_r)
/media/christoph/8A841458841448D9/space/altera_lite/15.1/nios2eds/bin/gnu/H-x86_64-pc-linux-gnu/bin/../lib/gcc/nios2-elf/4.9.2/../../../../../H-x86_64-pc-linux-gnu/nios2-elf/lib/mno-hw-mul/libc.a(lib_a-wsetup.o)
                              /media/christoph/8A841458841448D9/space/altera_lite/15.1/nios2eds/bin/gnu/H-x86_64-pc-linux-gnu/bin/../lib/gcc/nios2-elf/4.9.2/../../../../../H-x86_64-pc-linux-gnu/nios2-elf/lib/mno-hw-mul/libc.a(lib_a-vfprintf.o) (__swsetup_r)
/media/christoph/8A841458841448D9/space/altera_lite/15.1/nios2eds/bin/gnu/H-x86_64-pc-linux-gnu/bin/../lib/gcc/nios2-elf/4.9.2/../../../../../H-x86_64-pc-linux-gnu/nios2-elf/lib/mno-hw-mul/libc.a(lib_a-dtoa.o)
                              /media/christoph/8A841458841448D9/space/altera_lite/15.1/nios2eds/bin/gnu/H-x86_64-pc-linux-gnu/bin/../lib/gcc/nios2-elf/4.9.2/../../../../../H-x86_64-pc-linux-gnu/nios2-elf/lib/mno-hw-mul/libc.a(lib_a-vfprintf.o) (_dtoa_r)
/media/christoph/8A841458841448D9/space/altera_lite/15.1/nios2eds/bin/gnu/H-x86_64-pc-linux-gnu/bin/../lib/gcc/nios2-elf/4.9.2/../../../../../H-x86_64-pc-linux-gnu/nios2-elf/lib/mno-hw-mul/libc.a(lib_a-fflush.o)
                              /media/christoph/8A841458841448D9/space/altera_lite/15.1/nios2eds/bin/gnu/H-x86_64-pc-linux-gnu/bin/../lib/gcc/nios2-elf/4.9.2/../../../../../H-x86_64-pc-linux-gnu/nios2-elf/lib/mno-hw-mul/libc.a(lib_a-vfprintf.o) (_fflush_r)
/media/christoph/8A841458841448D9/space/altera_lite/15.1/nios2eds/bin/gnu/H-x86_64-pc-linux-gnu/bin/../lib/gcc/nios2-elf/4.9.2/../../../../../H-x86_64-pc-linux-gnu/nios2-elf/lib/mno-hw-mul/libc.a(lib_a-findfp.o)
                              /media/christoph/8A841458841448D9/space/altera_lite/15.1/nios2eds/bin/gnu/H-x86_64-pc-linux-gnu/bin/../lib/gcc/nios2-elf/4.9.2/../../../../../H-x86_64-pc-linux-gnu/nios2-elf/lib/mno-hw-mul/libc.a(lib_a-vfprintf.o) (__sinit)
/media/christoph/8A841458841448D9/space/altera_lite/15.1/nios2eds/bin/gnu/H-x86_64-pc-linux-gnu/bin/../lib/gcc/nios2-elf/4.9.2/../../../../../H-x86_64-pc-linux-gnu/nios2-elf/lib/mno-hw-mul/libc.a(lib_a-freer.o)
                              /media/christoph/8A841458841448D9/space/altera_lite/15.1/nios2eds/bin/gnu/H-x86_64-pc-linux-gnu/bin/../lib/gcc/nios2-elf/4.9.2/../../../../../H-x86_64-pc-linux-gnu/nios2-elf/lib/mno-hw-mul/libc.a(lib_a-wsetup.o) (_free_r)
/media/christoph/8A841458841448D9/space/altera_lite/15.1/nios2eds/bin/gnu/H-x86_64-pc-linux-gnu/bin/../lib/gcc/nios2-elf/4.9.2/../../../../../H-x86_64-pc-linux-gnu/nios2-elf/lib/mno-hw-mul/libc.a(lib_a-fwalk.o)
                              /media/christoph/8A841458841448D9/space/altera_lite/15.1/nios2eds/bin/gnu/H-x86_64-pc-linux-gnu/bin/../lib/gcc/nios2-elf/4.9.2/../../../../../H-x86_64-pc-linux-gnu/nios2-elf/lib/mno-hw-mul/libc.a(lib_a-findfp.o) (_fwalk)
/media/christoph/8A841458841448D9/space/altera_lite/15.1/nios2eds/bin/gnu/H-x86_64-pc-linux-gnu/bin/../lib/gcc/nios2-elf/4.9.2/../../../../../H-x86_64-pc-linux-gnu/nios2-elf/lib/mno-hw-mul/libc.a(lib_a-impure.o)
                              /media/christoph/8A841458841448D9/space/altera_lite/15.1/nios2eds/bin/gnu/H-x86_64-pc-linux-gnu/bin/../lib/gcc/nios2-elf/4.9.2/../../../../../H-x86_64-pc-linux-gnu/nios2-elf/lib/mno-hw-mul/libc.a(lib_a-fflush.o) (_global_impure_ptr)
/media/christoph/8A841458841448D9/space/altera_lite/15.1/nios2eds/bin/gnu/H-x86_64-pc-linux-gnu/bin/../lib/gcc/nios2-elf/4.9.2/../../../../../H-x86_64-pc-linux-gnu/nios2-elf/lib/mno-hw-mul/libc.a(lib_a-locale.o)
                              /media/christoph/8A841458841448D9/space/altera_lite/15.1/nios2eds/bin/gnu/H-x86_64-pc-linux-gnu/bin/../lib/gcc/nios2-elf/4.9.2/../../../../../H-x86_64-pc-linux-gnu/nios2-elf/lib/mno-hw-mul/libc.a(lib_a-vfprintf.o) (_localeconv_r)
/media/christoph/8A841458841448D9/space/altera_lite/15.1/nios2eds/bin/gnu/H-x86_64-pc-linux-gnu/bin/../lib/gcc/nios2-elf/4.9.2/../../../../../H-x86_64-pc-linux-gnu/nios2-elf/lib/mno-hw-mul/libc.a(lib_a-makebuf.o)
                              /media/christoph/8A841458841448D9/space/altera_lite/15.1/nios2eds/bin/gnu/H-x86_64-pc-linux-gnu/bin/../lib/gcc/nios2-elf/4.9.2/../../../../../H-x86_64-pc-linux-gnu/nios2-elf/lib/mno-hw-mul/libc.a(lib_a-wsetup.o) (__smakebuf_r)
/media/christoph/8A841458841448D9/space/altera_lite/15.1/nios2eds/bin/gnu/H-x86_64-pc-linux-gnu/bin/../lib/gcc/nios2-elf/4.9.2/../../../../../H-x86_64-pc-linux-gnu/nios2-elf/lib/mno-hw-mul/libc.a(lib_a-mallocr.o)
                              /media/christoph/8A841458841448D9/space/altera_lite/15.1/nios2eds/bin/gnu/H-x86_64-pc-linux-gnu/bin/../lib/gcc/nios2-elf/4.9.2/../../../../../H-x86_64-pc-linux-gnu/nios2-elf/lib/mno-hw-mul/libc.a(lib_a-findfp.o) (_malloc_r)
/media/christoph/8A841458841448D9/space/altera_lite/15.1/nios2eds/bin/gnu/H-x86_64-pc-linux-gnu/bin/../lib/gcc/nios2-elf/4.9.2/../../../../../H-x86_64-pc-linux-gnu/nios2-elf/lib/mno-hw-mul/libc.a(lib_a-memchr.o)
                              /media/christoph/8A841458841448D9/space/altera_lite/15.1/nios2eds/bin/gnu/H-x86_64-pc-linux-gnu/bin/../lib/gcc/nios2-elf/4.9.2/../../../../../H-x86_64-pc-linux-gnu/nios2-elf/lib/mno-hw-mul/libc.a(lib_a-vfprintf.o) (memchr)
/media/christoph/8A841458841448D9/space/altera_lite/15.1/nios2eds/bin/gnu/H-x86_64-pc-linux-gnu/bin/../lib/gcc/nios2-elf/4.9.2/../../../../../H-x86_64-pc-linux-gnu/nios2-elf/lib/mno-hw-mul/libc.a(lib_a-memcpy.o)
                              /media/christoph/8A841458841448D9/space/altera_lite/15.1/nios2eds/bin/gnu/H-x86_64-pc-linux-gnu/bin/../lib/gcc/nios2-elf/4.9.2/../../../../../H-x86_64-pc-linux-gnu/nios2-elf/lib/mno-hw-mul/libc.a(lib_a-dtoa.o) (memcpy)
/media/christoph/8A841458841448D9/space/altera_lite/15.1/nios2eds/bin/gnu/H-x86_64-pc-linux-gnu/bin/../lib/gcc/nios2-elf/4.9.2/../../../../../H-x86_64-pc-linux-gnu/nios2-elf/lib/mno-hw-mul/libc.a(lib_a-memset.o)
                              /media/christoph/8A841458841448D9/space/altera_lite/15.1/nios2eds/bin/gnu/H-x86_64-pc-linux-gnu/bin/../lib/gcc/nios2-elf/4.9.2/../../../../../H-x86_64-pc-linux-gnu/nios2-elf/lib/mno-hw-mul/libc.a(lib_a-findfp.o) (memset)
/media/christoph/8A841458841448D9/space/altera_lite/15.1/nios2eds/bin/gnu/H-x86_64-pc-linux-gnu/bin/../lib/gcc/nios2-elf/4.9.2/../../../../../H-x86_64-pc-linux-gnu/nios2-elf/lib/mno-hw-mul/libc.a(lib_a-mprec.o)
                              /media/christoph/8A841458841448D9/space/altera_lite/15.1/nios2eds/bin/gnu/H-x86_64-pc-linux-gnu/bin/../lib/gcc/nios2-elf/4.9.2/../../../../../H-x86_64-pc-linux-gnu/nios2-elf/lib/mno-hw-mul/libc.a(lib_a-dtoa.o) (_Balloc)
/media/christoph/8A841458841448D9/space/altera_lite/15.1/nios2eds/bin/gnu/H-x86_64-pc-linux-gnu/bin/../lib/gcc/nios2-elf/4.9.2/../../../../../H-x86_64-pc-linux-gnu/nios2-elf/lib/mno-hw-mul/libc.a(lib_a-s_fpclassify.o)
                              /media/christoph/8A841458841448D9/space/altera_lite/15.1/nios2eds/bin/gnu/H-x86_64-pc-linux-gnu/bin/../lib/gcc/nios2-elf/4.9.2/../../../../../H-x86_64-pc-linux-gnu/nios2-elf/lib/mno-hw-mul/libc.a(lib_a-vfprintf.o) (__fpclassifyd)
/media/christoph/8A841458841448D9/space/altera_lite/15.1/nios2eds/bin/gnu/H-x86_64-pc-linux-gnu/bin/../lib/gcc/nios2-elf/4.9.2/../../../../../H-x86_64-pc-linux-gnu/nios2-elf/lib/mno-hw-mul/libc.a(lib_a-sbrkr.o)
                              /media/christoph/8A841458841448D9/space/altera_lite/15.1/nios2eds/bin/gnu/H-x86_64-pc-linux-gnu/bin/../lib/gcc/nios2-elf/4.9.2/../../../../../H-x86_64-pc-linux-gnu/nios2-elf/lib/mno-hw-mul/libc.a(lib_a-freer.o) (_sbrk_r)
/media/christoph/8A841458841448D9/space/altera_lite/15.1/nios2eds/bin/gnu/H-x86_64-pc-linux-gnu/bin/../lib/gcc/nios2-elf/4.9.2/../../../../../H-x86_64-pc-linux-gnu/nios2-elf/lib/mno-hw-mul/libc.a(lib_a-stdio.o)
                              /media/christoph/8A841458841448D9/space/altera_lite/15.1/nios2eds/bin/gnu/H-x86_64-pc-linux-gnu/bin/../lib/gcc/nios2-elf/4.9.2/../../../../../H-x86_64-pc-linux-gnu/nios2-elf/lib/mno-hw-mul/libc.a(lib_a-findfp.o) (__sread)
/media/christoph/8A841458841448D9/space/altera_lite/15.1/nios2eds/bin/gnu/H-x86_64-pc-linux-gnu/bin/../lib/gcc/nios2-elf/4.9.2/../../../../../H-x86_64-pc-linux-gnu/nios2-elf/lib/mno-hw-mul/libc.a(lib_a-strcmp.o)
                              /media/christoph/8A841458841448D9/space/altera_lite/15.1/nios2eds/bin/gnu/H-x86_64-pc-linux-gnu/bin/../lib/gcc/nios2-elf/4.9.2/../../../../../H-x86_64-pc-linux-gnu/nios2-elf/lib/mno-hw-mul/libc.a(lib_a-locale.o) (strcmp)
/media/christoph/8A841458841448D9/space/altera_lite/15.1/nios2eds/bin/gnu/H-x86_64-pc-linux-gnu/bin/../lib/gcc/nios2-elf/4.9.2/../../../../../H-x86_64-pc-linux-gnu/nios2-elf/lib/mno-hw-mul/libc.a(lib_a-strlen.o)
                              /media/christoph/8A841458841448D9/space/altera_lite/15.1/nios2eds/bin/gnu/H-x86_64-pc-linux-gnu/bin/../lib/gcc/nios2-elf/4.9.2/../../../../../H-x86_64-pc-linux-gnu/nios2-elf/lib/mno-hw-mul/libc.a(lib_a-vfprintf.o) (strlen)
/media/christoph/8A841458841448D9/space/altera_lite/15.1/nios2eds/bin/gnu/H-x86_64-pc-linux-gnu/bin/../lib/gcc/nios2-elf/4.9.2/../../../../../H-x86_64-pc-linux-gnu/nios2-elf/lib/mno-hw-mul/libc.a(lib_a-vfiprintf.o)
                              /media/christoph/8A841458841448D9/space/altera_lite/15.1/nios2eds/bin/gnu/H-x86_64-pc-linux-gnu/bin/../lib/gcc/nios2-elf/4.9.2/../../../../../H-x86_64-pc-linux-gnu/nios2-elf/lib/mno-hw-mul/libc.a(lib_a-vfprintf.o) (__sprint_r)
/media/christoph/8A841458841448D9/space/altera_lite/15.1/nios2eds/bin/gnu/H-x86_64-pc-linux-gnu/bin/../lib/gcc/nios2-elf/4.9.2/../../../../../H-x86_64-pc-linux-gnu/nios2-elf/lib/mno-hw-mul/libc.a(lib_a-writer.o)
                              /media/christoph/8A841458841448D9/space/altera_lite/15.1/nios2eds/bin/gnu/H-x86_64-pc-linux-gnu/bin/../lib/gcc/nios2-elf/4.9.2/../../../../../H-x86_64-pc-linux-gnu/nios2-elf/lib/mno-hw-mul/libc.a(lib_a-stdio.o) (_write_r)
/media/christoph/8A841458841448D9/space/altera_lite/15.1/nios2eds/bin/gnu/H-x86_64-pc-linux-gnu/bin/../lib/gcc/nios2-elf/4.9.2/../../../../../H-x86_64-pc-linux-gnu/nios2-elf/lib/mno-hw-mul/libc.a(closer.o)
                              /media/christoph/8A841458841448D9/space/altera_lite/15.1/nios2eds/bin/gnu/H-x86_64-pc-linux-gnu/bin/../lib/gcc/nios2-elf/4.9.2/../../../../../H-x86_64-pc-linux-gnu/nios2-elf/lib/mno-hw-mul/libc.a(lib_a-stdio.o) (_close_r)
/media/christoph/8A841458841448D9/space/altera_lite/15.1/nios2eds/bin/gnu/H-x86_64-pc-linux-gnu/bin/../lib/gcc/nios2-elf/4.9.2/../../../../../H-x86_64-pc-linux-gnu/nios2-elf/lib/mno-hw-mul/libc.a(lib_a-callocr.o)
                              /media/christoph/8A841458841448D9/space/altera_lite/15.1/nios2eds/bin/gnu/H-x86_64-pc-linux-gnu/bin/../lib/gcc/nios2-elf/4.9.2/../../../../../H-x86_64-pc-linux-gnu/nios2-elf/lib/mno-hw-mul/libc.a(lib_a-mprec.o) (_calloc_r)
/media/christoph/8A841458841448D9/space/altera_lite/15.1/nios2eds/bin/gnu/H-x86_64-pc-linux-gnu/bin/../lib/gcc/nios2-elf/4.9.2/../../../../../H-x86_64-pc-linux-gnu/nios2-elf/lib/mno-hw-mul/libc.a(lib_a-fclose.o)
                              /media/christoph/8A841458841448D9/space/altera_lite/15.1/nios2eds/bin/gnu/H-x86_64-pc-linux-gnu/bin/../lib/gcc/nios2-elf/4.9.2/../../../../../H-x86_64-pc-linux-gnu/nios2-elf/lib/mno-hw-mul/libc.a(lib_a-findfp.o) (_fclose_r)
/media/christoph/8A841458841448D9/space/altera_lite/15.1/nios2eds/bin/gnu/H-x86_64-pc-linux-gnu/bin/../lib/gcc/nios2-elf/4.9.2/../../../../../H-x86_64-pc-linux-gnu/nios2-elf/lib/mno-hw-mul/libc.a(lib_a-fputwc.o)
                              /media/christoph/8A841458841448D9/space/altera_lite/15.1/nios2eds/bin/gnu/H-x86_64-pc-linux-gnu/bin/../lib/gcc/nios2-elf/4.9.2/../../../../../H-x86_64-pc-linux-gnu/nios2-elf/lib/mno-hw-mul/libc.a(lib_a-vfiprintf.o) (_fputwc_r)
/media/christoph/8A841458841448D9/space/altera_lite/15.1/nios2eds/bin/gnu/H-x86_64-pc-linux-gnu/bin/../lib/gcc/nios2-elf/4.9.2/../../../../../H-x86_64-pc-linux-gnu/nios2-elf/lib/mno-hw-mul/libc.a(lib_a-fstatr.o)
                              /media/christoph/8A841458841448D9/space/altera_lite/15.1/nios2eds/bin/gnu/H-x86_64-pc-linux-gnu/bin/../lib/gcc/nios2-elf/4.9.2/../../../../../H-x86_64-pc-linux-gnu/nios2-elf/lib/mno-hw-mul/libc.a(lib_a-makebuf.o) (_fstat_r)
/media/christoph/8A841458841448D9/space/altera_lite/15.1/nios2eds/bin/gnu/H-x86_64-pc-linux-gnu/bin/../lib/gcc/nios2-elf/4.9.2/../../../../../H-x86_64-pc-linux-gnu/nios2-elf/lib/mno-hw-mul/libc.a(lib_a-fvwrite.o)
                              /media/christoph/8A841458841448D9/space/altera_lite/15.1/nios2eds/bin/gnu/H-x86_64-pc-linux-gnu/bin/../lib/gcc/nios2-elf/4.9.2/../../../../../H-x86_64-pc-linux-gnu/nios2-elf/lib/mno-hw-mul/libc.a(lib_a-vfiprintf.o) (__sfvwrite_r)
/media/christoph/8A841458841448D9/space/altera_lite/15.1/nios2eds/bin/gnu/H-x86_64-pc-linux-gnu/bin/../lib/gcc/nios2-elf/4.9.2/../../../../../H-x86_64-pc-linux-gnu/nios2-elf/lib/mno-hw-mul/libc.a(lib_a-int_errno.o)
                              /media/christoph/8A841458841448D9/space/altera_lite/15.1/nios2eds/bin/gnu/H-x86_64-pc-linux-gnu/bin/../lib/gcc/nios2-elf/4.9.2/../../../../../H-x86_64-pc-linux-gnu/nios2-elf/lib/mno-hw-mul/libc.a(lib_a-sbrkr.o) (errno)
/media/christoph/8A841458841448D9/space/altera_lite/15.1/nios2eds/bin/gnu/H-x86_64-pc-linux-gnu/bin/../lib/gcc/nios2-elf/4.9.2/../../../../../H-x86_64-pc-linux-gnu/nios2-elf/lib/mno-hw-mul/libc.a(lib_a-isattyr.o)
                              /media/christoph/8A841458841448D9/space/altera_lite/15.1/nios2eds/bin/gnu/H-x86_64-pc-linux-gnu/bin/../lib/gcc/nios2-elf/4.9.2/../../../../../H-x86_64-pc-linux-gnu/nios2-elf/lib/mno-hw-mul/libc.a(lib_a-makebuf.o) (_isatty_r)
/media/christoph/8A841458841448D9/space/altera_lite/15.1/nios2eds/bin/gnu/H-x86_64-pc-linux-gnu/bin/../lib/gcc/nios2-elf/4.9.2/../../../../../H-x86_64-pc-linux-gnu/nios2-elf/lib/mno-hw-mul/libc.a(lib_a-lseekr.o)
                              /media/christoph/8A841458841448D9/space/altera_lite/15.1/nios2eds/bin/gnu/H-x86_64-pc-linux-gnu/bin/../lib/gcc/nios2-elf/4.9.2/../../../../../H-x86_64-pc-linux-gnu/nios2-elf/lib/mno-hw-mul/libc.a(lib_a-stdio.o) (_lseek_r)
/media/christoph/8A841458841448D9/space/altera_lite/15.1/nios2eds/bin/gnu/H-x86_64-pc-linux-gnu/bin/../lib/gcc/nios2-elf/4.9.2/../../../../../H-x86_64-pc-linux-gnu/nios2-elf/lib/mno-hw-mul/libc.a(lib_a-memmove.o)
                              /media/christoph/8A841458841448D9/space/altera_lite/15.1/nios2eds/bin/gnu/H-x86_64-pc-linux-gnu/bin/../lib/gcc/nios2-elf/4.9.2/../../../../../H-x86_64-pc-linux-gnu/nios2-elf/lib/mno-hw-mul/libc.a(lib_a-fvwrite.o) (memmove)
/media/christoph/8A841458841448D9/space/altera_lite/15.1/nios2eds/bin/gnu/H-x86_64-pc-linux-gnu/bin/../lib/gcc/nios2-elf/4.9.2/../../../../../H-x86_64-pc-linux-gnu/nios2-elf/lib/mno-hw-mul/libc.a(lib_a-readr.o)
                              /media/christoph/8A841458841448D9/space/altera_lite/15.1/nios2eds/bin/gnu/H-x86_64-pc-linux-gnu/bin/../lib/gcc/nios2-elf/4.9.2/../../../../../H-x86_64-pc-linux-gnu/nios2-elf/lib/mno-hw-mul/libc.a(lib_a-stdio.o) (_read_r)
/media/christoph/8A841458841448D9/space/altera_lite/15.1/nios2eds/bin/gnu/H-x86_64-pc-linux-gnu/bin/../lib/gcc/nios2-elf/4.9.2/../../../../../H-x86_64-pc-linux-gnu/nios2-elf/lib/mno-hw-mul/libc.a(lib_a-reallocr.o)
                              /media/christoph/8A841458841448D9/space/altera_lite/15.1/nios2eds/bin/gnu/H-x86_64-pc-linux-gnu/bin/../lib/gcc/nios2-elf/4.9.2/../../../../../H-x86_64-pc-linux-gnu/nios2-elf/lib/mno-hw-mul/libc.a(lib_a-fvwrite.o) (_realloc_r)
/media/christoph/8A841458841448D9/space/altera_lite/15.1/nios2eds/bin/gnu/H-x86_64-pc-linux-gnu/bin/../lib/gcc/nios2-elf/4.9.2/../../../../../H-x86_64-pc-linux-gnu/nios2-elf/lib/mno-hw-mul/libc.a(lib_a-wbuf.o)
                              /media/christoph/8A841458841448D9/space/altera_lite/15.1/nios2eds/bin/gnu/H-x86_64-pc-linux-gnu/bin/../lib/gcc/nios2-elf/4.9.2/../../../../../H-x86_64-pc-linux-gnu/nios2-elf/lib/mno-hw-mul/libc.a(lib_a-fputwc.o) (__swbuf_r)
/media/christoph/8A841458841448D9/space/altera_lite/15.1/nios2eds/bin/gnu/H-x86_64-pc-linux-gnu/bin/../lib/gcc/nios2-elf/4.9.2/../../../../../H-x86_64-pc-linux-gnu/nios2-elf/lib/mno-hw-mul/libc.a(lib_a-wcrtomb.o)
                              /media/christoph/8A841458841448D9/space/altera_lite/15.1/nios2eds/bin/gnu/H-x86_64-pc-linux-gnu/bin/../lib/gcc/nios2-elf/4.9.2/../../../../../H-x86_64-pc-linux-gnu/nios2-elf/lib/mno-hw-mul/libc.a(lib_a-fputwc.o) (_wcrtomb_r)
/media/christoph/8A841458841448D9/space/altera_lite/15.1/nios2eds/bin/gnu/H-x86_64-pc-linux-gnu/bin/../lib/gcc/nios2-elf/4.9.2/../../../../../H-x86_64-pc-linux-gnu/nios2-elf/lib/mno-hw-mul/libc.a(lib_a-wctomb_r.o)
                              /media/christoph/8A841458841448D9/space/altera_lite/15.1/nios2eds/bin/gnu/H-x86_64-pc-linux-gnu/bin/../lib/gcc/nios2-elf/4.9.2/../../../../../H-x86_64-pc-linux-gnu/nios2-elf/lib/mno-hw-mul/libc.a(lib_a-wcrtomb.o) (__wctomb)
/media/christoph/8A841458841448D9/space/altera_lite/15.1/nios2eds/bin/gnu/H-x86_64-pc-linux-gnu/bin/../lib/gcc/nios2-elf/4.9.2/mno-hw-mul/libgcc.a(_udivdi3.o)
                              /media/christoph/8A841458841448D9/space/altera_lite/15.1/nios2eds/bin/gnu/H-x86_64-pc-linux-gnu/bin/../lib/gcc/nios2-elf/4.9.2/../../../../../H-x86_64-pc-linux-gnu/nios2-elf/lib/mno-hw-mul/libc.a(lib_a-vfprintf.o) (__udivdi3)
/media/christoph/8A841458841448D9/space/altera_lite/15.1/nios2eds/bin/gnu/H-x86_64-pc-linux-gnu/bin/../lib/gcc/nios2-elf/4.9.2/mno-hw-mul/libgcc.a(_umoddi3.o)
                              /media/christoph/8A841458841448D9/space/altera_lite/15.1/nios2eds/bin/gnu/H-x86_64-pc-linux-gnu/bin/../lib/gcc/nios2-elf/4.9.2/../../../../../H-x86_64-pc-linux-gnu/nios2-elf/lib/mno-hw-mul/libc.a(lib_a-vfprintf.o) (__umoddi3)
/media/christoph/8A841458841448D9/space/altera_lite/15.1/nios2eds/bin/gnu/H-x86_64-pc-linux-gnu/bin/../lib/gcc/nios2-elf/4.9.2/mno-hw-mul/libgcc.a(adddf3.o)
                              /media/christoph/8A841458841448D9/space/altera_lite/15.1/nios2eds/bin/gnu/H-x86_64-pc-linux-gnu/bin/../lib/gcc/nios2-elf/4.9.2/../../../../../H-x86_64-pc-linux-gnu/nios2-elf/lib/mno-hw-mul/libc.a(lib_a-dtoa.o) (__adddf3)
/media/christoph/8A841458841448D9/space/altera_lite/15.1/nios2eds/bin/gnu/H-x86_64-pc-linux-gnu/bin/../lib/gcc/nios2-elf/4.9.2/mno-hw-mul/libgcc.a(eqdf2.o)
                              /media/christoph/8A841458841448D9/space/altera_lite/15.1/nios2eds/bin/gnu/H-x86_64-pc-linux-gnu/bin/../lib/gcc/nios2-elf/4.9.2/../../../../../H-x86_64-pc-linux-gnu/nios2-elf/lib/mno-hw-mul/libc.a(lib_a-vfprintf.o) (__eqdf2)
/media/christoph/8A841458841448D9/space/altera_lite/15.1/nios2eds/bin/gnu/H-x86_64-pc-linux-gnu/bin/../lib/gcc/nios2-elf/4.9.2/mno-hw-mul/libgcc.a(floatunsidf.o)
                              /media/christoph/8A841458841448D9/space/altera_lite/15.1/nios2eds/bin/gnu/H-x86_64-pc-linux-gnu/bin/../lib/gcc/nios2-elf/4.9.2/../../../../../H-x86_64-pc-linux-gnu/nios2-elf/lib/mno-hw-mul/libc.a(lib_a-dtoa.o) (__floatunsidf)
../Autonomous_Car_OS_bsp//libucosii_bsp.a(alt_close.o)
                              /media/christoph/8A841458841448D9/space/altera_lite/15.1/nios2eds/bin/gnu/H-x86_64-pc-linux-gnu/bin/../lib/gcc/nios2-elf/4.9.2/../../../../../H-x86_64-pc-linux-gnu/nios2-elf/lib/mno-hw-mul/libc.a(closer.o) (close)
../Autonomous_Car_OS_bsp//libucosii_bsp.a(alt_dev.o)
                              ../Autonomous_Car_OS_bsp//libucosii_bsp.a(alt_close.o) (alt_fd_list)
../Autonomous_Car_OS_bsp//libucosii_bsp.a(alt_errno.o)
                              ../Autonomous_Car_OS_bsp//libucosii_bsp.a(alt_close.o) (alt_errno)
../Autonomous_Car_OS_bsp//libucosii_bsp.a(alt_fstat.o)
                              /media/christoph/8A841458841448D9/space/altera_lite/15.1/nios2eds/bin/gnu/H-x86_64-pc-linux-gnu/bin/../lib/gcc/nios2-elf/4.9.2/../../../../../H-x86_64-pc-linux-gnu/nios2-elf/lib/mno-hw-mul/libc.a(lib_a-fstatr.o) (fstat)
../Autonomous_Car_OS_bsp//libucosii_bsp.a(alt_iic.o)
                              obj/default/main.o (alt_ic_isr_register)
../Autonomous_Car_OS_bsp//libucosii_bsp.a(alt_iic_isr_register.o)
                              ../Autonomous_Car_OS_bsp//libucosii_bsp.a(alt_iic.o) (alt_iic_isr_register)
../Autonomous_Car_OS_bsp//libucosii_bsp.a(alt_irq_entry.o)
                              ../Autonomous_Car_OS_bsp//libucosii_bsp.a(alt_iic_isr_register.o) (alt_irq_entry)
../Autonomous_Car_OS_bsp//libucosii_bsp.a(alt_irq_handler.o)
                              ../Autonomous_Car_OS_bsp//libucosii_bsp.a(alt_iic_isr_register.o) (alt_irq)
../Autonomous_Car_OS_bsp//libucosii_bsp.a(alt_irq_vars.o)
                              ../Autonomous_Car_OS_bsp//libucosii_bsp.a(alt_iic.o) (alt_irq_active)
../Autonomous_Car_OS_bsp//libucosii_bsp.a(alt_isatty.o)
                              /media/christoph/8A841458841448D9/space/altera_lite/15.1/nios2eds/bin/gnu/H-x86_64-pc-linux-gnu/bin/../lib/gcc/nios2-elf/4.9.2/../../../../../H-x86_64-pc-linux-gnu/nios2-elf/lib/mno-hw-mul/libc.a(lib_a-isattyr.o) (isatty)
../Autonomous_Car_OS_bsp//libucosii_bsp.a(alt_lseek.o)
                              /media/christoph/8A841458841448D9/space/altera_lite/15.1/nios2eds/bin/gnu/H-x86_64-pc-linux-gnu/bin/../lib/gcc/nios2-elf/4.9.2/../../../../../H-x86_64-pc-linux-gnu/nios2-elf/lib/mno-hw-mul/libc.a(lib_a-lseekr.o) (lseek)
../Autonomous_Car_OS_bsp//libucosii_bsp.a(alt_main.o)
                              ../Autonomous_Car_OS_bsp//obj/HAL/src/crt0.o (alt_main)
../Autonomous_Car_OS_bsp//libucosii_bsp.a(alt_read.o)
                              /media/christoph/8A841458841448D9/space/altera_lite/15.1/nios2eds/bin/gnu/H-x86_64-pc-linux-gnu/bin/../lib/gcc/nios2-elf/4.9.2/../../../../../H-x86_64-pc-linux-gnu/nios2-elf/lib/mno-hw-mul/libc.a(lib_a-readr.o) (read)
../Autonomous_Car_OS_bsp//libucosii_bsp.a(alt_release_fd.o)
                              ../Autonomous_Car_OS_bsp//libucosii_bsp.a(alt_close.o) (alt_release_fd)
../Autonomous_Car_OS_bsp//libucosii_bsp.a(alt_sbrk.o)
                              /media/christoph/8A841458841448D9/space/altera_lite/15.1/nios2eds/bin/gnu/H-x86_64-pc-linux-gnu/bin/../lib/gcc/nios2-elf/4.9.2/../../../../../H-x86_64-pc-linux-gnu/nios2-elf/lib/mno-hw-mul/libc.a(lib_a-sbrkr.o) (sbrk)
../Autonomous_Car_OS_bsp//libucosii_bsp.a(alt_write.o)
                              /media/christoph/8A841458841448D9/space/altera_lite/15.1/nios2eds/bin/gnu/H-x86_64-pc-linux-gnu/bin/../lib/gcc/nios2-elf/4.9.2/../../../../../H-x86_64-pc-linux-gnu/nios2-elf/lib/mno-hw-mul/libc.a(lib_a-writer.o) (write)
../Autonomous_Car_OS_bsp//libucosii_bsp.a(alt_env_lock.o)
                              ../Autonomous_Car_OS_bsp//libucosii_bsp.a(alt_main.o) (alt_envsem)
../Autonomous_Car_OS_bsp//libucosii_bsp.a(alt_malloc_lock.o)
                              ../Autonomous_Car_OS_bsp//libucosii_bsp.a(alt_main.o) (alt_heapsem)
../Autonomous_Car_OS_bsp//libucosii_bsp.a(os_core.o)
                              ../Autonomous_Car_OS_bsp//libucosii_bsp.a(alt_malloc_lock.o) (OSRunning)
../Autonomous_Car_OS_bsp//libucosii_bsp.a(os_dbg.o)
                              ../Autonomous_Car_OS_bsp//libucosii_bsp.a(os_core.o) (OSDebugInit)
../Autonomous_Car_OS_bsp//libucosii_bsp.a(os_flag.o)
                              ../Autonomous_Car_OS_bsp//libucosii_bsp.a(os_core.o) (OS_FlagInit)
../Autonomous_Car_OS_bsp//libucosii_bsp.a(os_mem.o)
                              ../Autonomous_Car_OS_bsp//libucosii_bsp.a(os_core.o) (OS_MemInit)
../Autonomous_Car_OS_bsp//libucosii_bsp.a(os_q.o)
                              ../Autonomous_Car_OS_bsp//libucosii_bsp.a(os_core.o) (OS_QInit)
../Autonomous_Car_OS_bsp//libucosii_bsp.a(os_sem.o)
                              obj/default/main.o (OSSemCreate)
../Autonomous_Car_OS_bsp//libucosii_bsp.a(os_task.o)
                              obj/default/main.o (OSTaskCreateExt)
../Autonomous_Car_OS_bsp//libucosii_bsp.a(os_time.o)
                              ../Autonomous_Car_OS_bsp//libucosii_bsp.a(os_core.o) (OSTimeDly)
../Autonomous_Car_OS_bsp//libucosii_bsp.a(alt_sys_init.o)
                              ../Autonomous_Car_OS_bsp//libucosii_bsp.a(alt_main.o) (alt_irq_init)
../Autonomous_Car_OS_bsp//libucosii_bsp.a(altera_avalon_epcs_flash_controller.o)
                              ../Autonomous_Car_OS_bsp//libucosii_bsp.a(alt_sys_init.o) (alt_epcs_flash_init)
../Autonomous_Car_OS_bsp//libucosii_bsp.a(altera_avalon_jtag_uart_fd.o)
                              ../Autonomous_Car_OS_bsp//libucosii_bsp.a(alt_sys_init.o) (altera_avalon_jtag_uart_read_fd)
../Autonomous_Car_OS_bsp//libucosii_bsp.a(altera_avalon_jtag_uart_init.o)
                              ../Autonomous_Car_OS_bsp//libucosii_bsp.a(alt_sys_init.o) (altera_avalon_jtag_uart_init)
../Autonomous_Car_OS_bsp//libucosii_bsp.a(altera_avalon_jtag_uart_ioctl.o)
                              ../Autonomous_Car_OS_bsp//libucosii_bsp.a(altera_avalon_jtag_uart_fd.o) (altera_avalon_jtag_uart_ioctl)
../Autonomous_Car_OS_bsp//libucosii_bsp.a(altera_avalon_jtag_uart_read.o)
                              ../Autonomous_Car_OS_bsp//libucosii_bsp.a(altera_avalon_jtag_uart_fd.o) (altera_avalon_jtag_uart_read)
../Autonomous_Car_OS_bsp//libucosii_bsp.a(altera_avalon_jtag_uart_write.o)
                              ../Autonomous_Car_OS_bsp//libucosii_bsp.a(altera_avalon_jtag_uart_fd.o) (altera_avalon_jtag_uart_write)
../Autonomous_Car_OS_bsp//libucosii_bsp.a(altera_avalon_timer_sc.o)
                              ../Autonomous_Car_OS_bsp//libucosii_bsp.a(alt_sys_init.o) (alt_avalon_timer_sc_init)
../Autonomous_Car_OS_bsp//libucosii_bsp.a(altera_avalon_uart_fd.o)
                              ../Autonomous_Car_OS_bsp//libucosii_bsp.a(alt_sys_init.o) (altera_avalon_uart_read_fd)
../Autonomous_Car_OS_bsp//libucosii_bsp.a(altera_avalon_uart_init.o)
                              ../Autonomous_Car_OS_bsp//libucosii_bsp.a(alt_sys_init.o) (altera_avalon_uart_init)
../Autonomous_Car_OS_bsp//libucosii_bsp.a(altera_avalon_uart_read.o)
                              ../Autonomous_Car_OS_bsp//libucosii_bsp.a(altera_avalon_uart_fd.o) (altera_avalon_uart_read)
../Autonomous_Car_OS_bsp//libucosii_bsp.a(altera_avalon_uart_write.o)
                              ../Autonomous_Car_OS_bsp//libucosii_bsp.a(altera_avalon_uart_fd.o) (altera_avalon_uart_write)
../Autonomous_Car_OS_bsp//libucosii_bsp.a(epcs_commands.o)
                              ../Autonomous_Car_OS_bsp//libucosii_bsp.a(altera_avalon_epcs_flash_controller.o) (epcs_sector_erase)
../Autonomous_Car_OS_bsp//libucosii_bsp.a(alt_alarm_start.o)
                              ../Autonomous_Car_OS_bsp//libucosii_bsp.a(altera_avalon_jtag_uart_init.o) (alt_alarm_start)
../Autonomous_Car_OS_bsp//libucosii_bsp.a(alt_dev_llist_insert.o)
                              ../Autonomous_Car_OS_bsp//libucosii_bsp.a(alt_sys_init.o) (alt_dev_llist_insert)
../Autonomous_Car_OS_bsp//libucosii_bsp.a(alt_do_ctors.o)
                              ../Autonomous_Car_OS_bsp//libucosii_bsp.a(alt_main.o) (_do_ctors)
../Autonomous_Car_OS_bsp//libucosii_bsp.a(alt_do_dtors.o)
                              ../Autonomous_Car_OS_bsp//libucosii_bsp.a(alt_main.o) (_do_dtors)
../Autonomous_Car_OS_bsp//libucosii_bsp.a(alt_exception_entry.o)
                              ../Autonomous_Car_OS_bsp//libucosii_bsp.a(alt_irq_entry.o) (alt_exception)
../Autonomous_Car_OS_bsp//libucosii_bsp.a(alt_flash_dev.o)
                              ../Autonomous_Car_OS_bsp//libucosii_bsp.a(altera_avalon_epcs_flash_controller.o) (alt_flash_dev_list)
../Autonomous_Car_OS_bsp//libucosii_bsp.a(alt_io_redirect.o)
                              ../Autonomous_Car_OS_bsp//libucosii_bsp.a(alt_main.o) (alt_io_redirect)
../Autonomous_Car_OS_bsp//libucosii_bsp.a(alt_open.o)
                              ../Autonomous_Car_OS_bsp//libucosii_bsp.a(alt_io_redirect.o) (open)
../Autonomous_Car_OS_bsp//libucosii_bsp.a(alt_tick.o)
                              ../Autonomous_Car_OS_bsp//libucosii_bsp.a(altera_avalon_jtag_uart_init.o) (_alt_tick_rate)
../Autonomous_Car_OS_bsp//libucosii_bsp.a(altera_nios2_qsys_irq.o)
                              ../Autonomous_Car_OS_bsp//libucosii_bsp.a(alt_sys_init.o) (altera_nios2_qsys_irq_init)
../Autonomous_Car_OS_bsp//libucosii_bsp.a(os_cpu_a.o)
                              ../Autonomous_Car_OS_bsp//libucosii_bsp.a(os_core.o) (OSIntCtxSw)
../Autonomous_Car_OS_bsp//libucosii_bsp.a(os_cpu_c.o)
                              ../Autonomous_Car_OS_bsp//libucosii_bsp.a(os_task.o) (OSTaskStkInit)
../Autonomous_Car_OS_bsp//libucosii_bsp.a(altera_avalon_spi.o)
                              ../Autonomous_Car_OS_bsp//libucosii_bsp.a(epcs_commands.o) (alt_avalon_spi_command)
../Autonomous_Car_OS_bsp//libucosii_bsp.a(alt_find_dev.o)
                              ../Autonomous_Car_OS_bsp//libucosii_bsp.a(alt_flash_dev.o) (alt_find_dev)
../Autonomous_Car_OS_bsp//libucosii_bsp.a(alt_find_file.o)
                              ../Autonomous_Car_OS_bsp//libucosii_bsp.a(alt_open.o) (alt_find_file)
../Autonomous_Car_OS_bsp//libucosii_bsp.a(alt_get_fd.o)
                              ../Autonomous_Car_OS_bsp//libucosii_bsp.a(alt_open.o) (alt_get_fd)
/media/christoph/8A841458841448D9/space/altera_lite/15.1/nios2eds/bin/gnu/H-x86_64-pc-linux-gnu/bin/../lib/gcc/nios2-elf/4.9.2/../../../../../H-x86_64-pc-linux-gnu/nios2-elf/lib/mno-hw-mul/libc.a(lib_a-atexit.o)
                              ../Autonomous_Car_OS_bsp//libucosii_bsp.a(alt_main.o) (atexit)
/media/christoph/8A841458841448D9/space/altera_lite/15.1/nios2eds/bin/gnu/H-x86_64-pc-linux-gnu/bin/../lib/gcc/nios2-elf/4.9.2/../../../../../H-x86_64-pc-linux-gnu/nios2-elf/lib/mno-hw-mul/libc.a(lib_a-exit.o)
                              ../Autonomous_Car_OS_bsp//libucosii_bsp.a(alt_main.o) (exit)
/media/christoph/8A841458841448D9/space/altera_lite/15.1/nios2eds/bin/gnu/H-x86_64-pc-linux-gnu/bin/../lib/gcc/nios2-elf/4.9.2/../../../../../H-x86_64-pc-linux-gnu/nios2-elf/lib/mno-hw-mul/libc.a(lib_a-memcmp.o)
                              ../Autonomous_Car_OS_bsp//libucosii_bsp.a(altera_avalon_epcs_flash_controller.o) (memcmp)
/media/christoph/8A841458841448D9/space/altera_lite/15.1/nios2eds/bin/gnu/H-x86_64-pc-linux-gnu/bin/../lib/gcc/nios2-elf/4.9.2/../../../../../H-x86_64-pc-linux-gnu/nios2-elf/lib/mno-hw-mul/libc.a(lib_a-__atexit.o)
                              /media/christoph/8A841458841448D9/space/altera_lite/15.1/nios2eds/bin/gnu/H-x86_64-pc-linux-gnu/bin/../lib/gcc/nios2-elf/4.9.2/../../../../../H-x86_64-pc-linux-gnu/nios2-elf/lib/mno-hw-mul/libc.a(lib_a-atexit.o) (__register_exitproc)
/media/christoph/8A841458841448D9/space/altera_lite/15.1/nios2eds/bin/gnu/H-x86_64-pc-linux-gnu/bin/../lib/gcc/nios2-elf/4.9.2/../../../../../H-x86_64-pc-linux-gnu/nios2-elf/lib/mno-hw-mul/libc.a(lib_a-__call_atexit.o)
                              /media/christoph/8A841458841448D9/space/altera_lite/15.1/nios2eds/bin/gnu/H-x86_64-pc-linux-gnu/bin/../lib/gcc/nios2-elf/4.9.2/../../../../../H-x86_64-pc-linux-gnu/nios2-elf/lib/mno-hw-mul/libc.a(lib_a-exit.o) (__call_exitprocs)
../Autonomous_Car_OS_bsp//libucosii_bsp.a(alt_exit.o)
                              /media/christoph/8A841458841448D9/space/altera_lite/15.1/nios2eds/bin/gnu/H-x86_64-pc-linux-gnu/bin/../lib/gcc/nios2-elf/4.9.2/../../../../../H-x86_64-pc-linux-gnu/nios2-elf/lib/mno-hw-mul/libc.a(lib_a-exit.o) (_exit)

Allocating common symbols
Common symbol       size              file

alt_irq             0x100             ../Autonomous_Car_OS_bsp//libucosii_bsp.a(alt_irq_handler.o)
task1_stk           0x2000            obj/default/main.o
isr_signal          0x4               obj/default/main.o
OSLockNesting       0x1               ../Autonomous_Car_OS_bsp//libucosii_bsp.a(os_core.o)
OSRunning           0x1               ../Autonomous_Car_OS_bsp//libucosii_bsp.a(os_core.o)
OSIdleCtr           0x4               ../Autonomous_Car_OS_bsp//libucosii_bsp.a(os_core.o)
OSPrioHighRdy       0x1               ../Autonomous_Car_OS_bsp//libucosii_bsp.a(os_core.o)
errno               0x4               /media/christoph/8A841458841448D9/space/altera_lite/15.1/nios2eds/bin/gnu/H-x86_64-pc-linux-gnu/bin/../lib/gcc/nios2-elf/4.9.2/../../../../../H-x86_64-pc-linux-gnu/nios2-elf/lib/mno-hw-mul/libc.a(lib_a-int_errno.o)
alt_heapsem         0x4               ../Autonomous_Car_OS_bsp//libucosii_bsp.a(alt_malloc_lock.o)
OSFlagTbl           0x370             ../Autonomous_Car_OS_bsp//libucosii_bsp.a(os_core.o)
OSPrioCur           0x1               ../Autonomous_Car_OS_bsp//libucosii_bsp.a(os_core.o)
OSTCBList           0x4               ../Autonomous_Car_OS_bsp//libucosii_bsp.a(os_core.o)
alt_fd_list_lock    0x4               ../Autonomous_Car_OS_bsp//libucosii_bsp.a(alt_dev.o)
OSMemTbl            0xc30             ../Autonomous_Car_OS_bsp//libucosii_bsp.a(os_core.o)
OSTickStepState     0x1               ../Autonomous_Car_OS_bsp//libucosii_bsp.a(os_core.o)
OSTaskStatStk       0x800             ../Autonomous_Car_OS_bsp//libucosii_bsp.a(os_core.o)
OSCtxSwCtr          0x4               ../Autonomous_Car_OS_bsp//libucosii_bsp.a(os_core.o)
OSIdleCtrMax        0x4               ../Autonomous_Car_OS_bsp//libucosii_bsp.a(os_core.o)
OSTCBFreeList       0x4               ../Autonomous_Car_OS_bsp//libucosii_bsp.a(os_core.o)
OSCPUUsage          0x1               ../Autonomous_Car_OS_bsp//libucosii_bsp.a(os_core.o)
OSTaskCtr           0x1               ../Autonomous_Car_OS_bsp//libucosii_bsp.a(os_core.o)
OSMemFreeList       0x4               ../Autonomous_Car_OS_bsp//libucosii_bsp.a(os_core.o)
OSQTbl              0x1e0             ../Autonomous_Car_OS_bsp//libucosii_bsp.a(os_core.o)
OSTCBHighRdy        0x4               ../Autonomous_Car_OS_bsp//libucosii_bsp.a(os_core.o)
OSQFreeList         0x4               ../Autonomous_Car_OS_bsp//libucosii_bsp.a(os_core.o)
OSRdyGrp            0x1               ../Autonomous_Car_OS_bsp//libucosii_bsp.a(os_core.o)
task2_stk           0x2000            obj/default/main.o
task3_stk           0x2000            obj/default/main.o
OSRdyTbl            0x3               ../Autonomous_Car_OS_bsp//libucosii_bsp.a(os_core.o)
OSEventFreeList     0x4               ../Autonomous_Car_OS_bsp//libucosii_bsp.a(os_core.o)
OSIntNesting        0x1               ../Autonomous_Car_OS_bsp//libucosii_bsp.a(os_core.o)
isr_signal2         0x4               obj/default/main.o
OSTCBCur            0x4               ../Autonomous_Car_OS_bsp//libucosii_bsp.a(os_core.o)
OSTime              0x4               ../Autonomous_Car_OS_bsp//libucosii_bsp.a(os_core.o)
OSTaskIdleStk       0x800             ../Autonomous_Car_OS_bsp//libucosii_bsp.a(os_core.o)
OSEventTbl          0xb40             ../Autonomous_Car_OS_bsp//libucosii_bsp.a(os_core.o)
OSTCBTbl            0x510             ../Autonomous_Car_OS_bsp//libucosii_bsp.a(os_core.o)
OSFlagFreeList      0x4               ../Autonomous_Car_OS_bsp//libucosii_bsp.a(os_core.o)
OSStatRdy           0x1               ../Autonomous_Car_OS_bsp//libucosii_bsp.a(os_core.o)
OSTCBPrioTbl        0x54              ../Autonomous_Car_OS_bsp//libucosii_bsp.a(os_core.o)
alt_envsem          0x4               ../Autonomous_Car_OS_bsp//libucosii_bsp.a(alt_env_lock.o)
OSIdleCtrRun        0x4               ../Autonomous_Car_OS_bsp//libucosii_bsp.a(os_core.o)

Memory Configuration

Name             Origin             Length             Attributes
sdram_BEFORE_EXCEPTION 0x0000000000000000 0x0000000000000020
sdram            0x0000000000000020 0x0000000001ffffe0
onchip_memory2_0 0x0000000002004000 0x0000000000004000
reset            0x0000000002009000 0x0000000000000020
epcs_flash_controller_0 0x0000000002009020 0x00000000000007e0
*default*        0x0000000000000000 0xffffffffffffffff

Linker script and memory map

LOAD ../Autonomous_Car_OS_bsp//obj/HAL/src/crt0.o
LOAD obj/default/communication.o
LOAD obj/default/gps.o
LOAD obj/default/main.o
LOAD obj/default/motor.o
LOAD obj/default/uart.o
LOAD obj/default/ultrasound.o
LOAD /media/christoph/8A841458841448D9/space/altera_lite/15.1/nios2eds/bin/gnu/H-x86_64-pc-linux-gnu/bin/../lib/gcc/nios2-elf/4.9.2/../../../../../H-x86_64-pc-linux-gnu/nios2-elf/lib/mno-hw-mul/libstdc++.a
LOAD /media/christoph/8A841458841448D9/space/altera_lite/15.1/nios2eds/bin/gnu/H-x86_64-pc-linux-gnu/bin/../lib/gcc/nios2-elf/4.9.2/../../../../../H-x86_64-pc-linux-gnu/nios2-elf/lib/mno-hw-mul/libm.a
LOAD /media/christoph/8A841458841448D9/space/altera_lite/15.1/nios2eds/bin/gnu/H-x86_64-pc-linux-gnu/bin/../lib/gcc/nios2-elf/4.9.2/mno-hw-mul/libgcc.a
START GROUP
LOAD /media/christoph/8A841458841448D9/space/altera_lite/15.1/nios2eds/bin/gnu/H-x86_64-pc-linux-gnu/bin/../lib/gcc/nios2-elf/4.9.2/../../../../../H-x86_64-pc-linux-gnu/nios2-elf/lib/mno-hw-mul/libc.a
LOAD /media/christoph/8A841458841448D9/space/altera_lite/15.1/nios2eds/bin/gnu/H-x86_64-pc-linux-gnu/bin/../lib/gcc/nios2-elf/4.9.2/mno-hw-mul/libgcc.a
LOAD ../Autonomous_Car_OS_bsp//libucosii_bsp.a
LOAD /media/christoph/8A841458841448D9/space/altera_lite/15.1/nios2eds/bin/gnu/H-x86_64-pc-linux-gnu/bin/../lib/gcc/nios2-elf/4.9.2/../../../../../H-x86_64-pc-linux-gnu/nios2-elf/lib/mno-hw-mul/libm.a
END GROUP
LOAD /media/christoph/8A841458841448D9/space/altera_lite/15.1/nios2eds/bin/gnu/H-x86_64-pc-linux-gnu/bin/../lib/gcc/nios2-elf/4.9.2/mno-hw-mul/libgcc.a
                0x0000000000000000                __alt_mem_sdram = 0x0
                0x0000000002004000                __alt_mem_onchip_memory2_0 = 0x2004000
                0x0000000002009000                __alt_mem_epcs_flash_controller_0 = 0x2009000

.entry          0x0000000002009000        0x0
 *(.entry)
 .entry         0x0000000002009000        0x0 ../Autonomous_Car_OS_bsp//obj/HAL/src/crt0.o
                0x0000000002009000                __reset

.exceptions     0x0000000000000020      0x19c
                0x0000000000000020                PROVIDE (__ram_exceptions_start, ABSOLUTE (.))
                0x0000000000000020                . = ALIGN (0x20)
 *(.irq)
 *(.exceptions.entry.label)
 .exceptions.entry.label
                0x0000000000000020        0x0 ../Autonomous_Car_OS_bsp//libucosii_bsp.a(alt_irq_entry.o)
                0x0000000000000020                alt_irq_entry
 .exceptions.entry.label
                0x0000000000000020        0x0 ../Autonomous_Car_OS_bsp//libucosii_bsp.a(alt_exception_entry.o)
                0x0000000000000020                alt_exception
 *(.exceptions.entry.user)
 *(.exceptions.entry.ecc_fatal)
 *(.exceptions.entry)
 .exceptions.entry
                0x0000000000000020       0x54 ../Autonomous_Car_OS_bsp//libucosii_bsp.a(alt_exception_entry.o)
 *(.exceptions.irqtest.user)
 *(.exceptions.irqtest)
 .exceptions.irqtest
                0x0000000000000074       0x10 ../Autonomous_Car_OS_bsp//libucosii_bsp.a(alt_irq_entry.o)
 *(.exceptions.irqhandler.user)
 *(.exceptions.irqhandler)
 .exceptions.irqhandler
                0x0000000000000084        0x4 ../Autonomous_Car_OS_bsp//libucosii_bsp.a(alt_irq_entry.o)
 *(.exceptions.irqreturn.user)
 *(.exceptions.irqreturn)
 .exceptions.irqreturn
                0x0000000000000088        0x4 ../Autonomous_Car_OS_bsp//libucosii_bsp.a(alt_irq_entry.o)
 *(.exceptions.notirq.label)
 .exceptions.notirq.label
                0x000000000000008c        0x0 ../Autonomous_Car_OS_bsp//libucosii_bsp.a(alt_irq_entry.o)
 *(.exceptions.notirq.user)
 *(.exceptions.notirq)
 .exceptions.notirq
                0x000000000000008c        0x8 ../Autonomous_Car_OS_bsp//libucosii_bsp.a(alt_exception_entry.o)
 *(.exceptions.soft.user)
 *(.exceptions.soft)
 *(.exceptions.unknown.user)
 *(.exceptions.unknown)
 .exceptions.unknown
                0x0000000000000094        0x4 ../Autonomous_Car_OS_bsp//libucosii_bsp.a(alt_exception_entry.o)
 *(.exceptions.exit.label)
 .exceptions.exit.label
                0x0000000000000098        0x0 ../Autonomous_Car_OS_bsp//libucosii_bsp.a(alt_irq_entry.o)
 .exceptions.exit.label
                0x0000000000000098        0x0 ../Autonomous_Car_OS_bsp//libucosii_bsp.a(alt_exception_entry.o)
 *(.exceptions.exit.user)
 *(.exceptions.exit)
 .exceptions.exit
                0x0000000000000098       0x54 ../Autonomous_Car_OS_bsp//libucosii_bsp.a(alt_exception_entry.o)
 *(.exceptions)
 .exceptions    0x00000000000000ec       0xd0 ../Autonomous_Car_OS_bsp//libucosii_bsp.a(alt_irq_handler.o)
                0x00000000000000ec                alt_irq_handler
                0x00000000000001bc                PROVIDE (__ram_exceptions_end, ABSOLUTE (.))
                0x0000000000000020                PROVIDE (__flash_exceptions_start, LOADADDR (.exceptions))

.text           0x00000000000001bc    0x1a8b0
                0x00000000000001bc                PROVIDE (stext, ABSOLUTE (.))
 *(.interp)
 *(.hash)
 *(.dynsym)
 *(.dynstr)
 *(.gnu.version)
 *(.gnu.version_d)
 *(.gnu.version_r)
 *(.rel.init)
 *(.rela.init)
 *(.rel.text .rel.text.* .rel.gnu.linkonce.t.*)
 *(.rela.text .rela.text.* .rela.gnu.linkonce.t.*)
 *(.rel.fini)
 *(.rela.fini)
 *(.rel.rodata .rel.rodata.* .rel.gnu.linkonce.r.*)
 *(.rela.rodata .rela.rodata.* .rela.gnu.linkonce.r.*)
 *(.rel.data .rel.data.* .rel.gnu.linkonce.d.*)
 *(.rela.data .rela.data.* .rela.gnu.linkonce.d.*)
 *(.rel.tdata .rel.tdata.* .rel.gnu.linkonce.td.*)
 *(.rela.tdata .rela.tdata.* .rela.gnu.linkonce.td.*)
 *(.rel.tbss .rel.tbss.* .rel.gnu.linkonce.tb.*)
 *(.rela.tbss .rela.tbss.* .rela.gnu.linkonce.tb.*)
 *(.rel.ctors)
 *(.rela.ctors)
 *(.rel.dtors)
 *(.rela.dtors)
 *(.rel.got)
 *(.rela.got)
 *(.rel.sdata .rel.sdata.* .rel.gnu.linkonce.s.*)
 *(.rela.sdata .rela.sdata.* .rela.gnu.linkonce.s.*)
 *(.rel.sbss .rel.sbss.* .rel.gnu.linkonce.sb.*)
 *(.rela.sbss .rela.sbss.* .rela.gnu.linkonce.sb.*)
 *(.rel.sdata2 .rel.sdata2.* .rel.gnu.linkonce.s2.*)
 *(.rela.sdata2 .rela.sdata2.* .rela.gnu.linkonce.s2.*)
 *(.rel.sbss2 .rel.sbss2.* .rel.gnu.linkonce.sb2.*)
 *(.rela.sbss2 .rela.sbss2.* .rela.gnu.linkonce.sb2.*)
 *(.rel.bss .rel.bss.* .rel.gnu.linkonce.b.*)
 *(.rela.bss .rela.bss.* .rela.gnu.linkonce.b.*)
 *(.rel.plt)
 *(.rela.plt)
 *(.rel.dyn)
 *(.init)
 *(.plt)
 *(.text .stub .text.* .gnu.linkonce.t.*)
 .text          0x00000000000001bc       0x38 ../Autonomous_Car_OS_bsp//obj/HAL/src/crt0.o
                0x00000000000001bc                _start
 .text          0x00000000000001f4       0xa4 obj/default/communication.o
                0x00000000000001f4                communication_init
                0x0000000000000228                sendToBoard
                0x0000000000000268                receiveFromBoard
 .text          0x0000000000000298      0x4d8 obj/default/gps.o
                0x0000000000000298                gps_init
                0x00000000000002cc                GPS
                0x0000000000000588                dataValid
                0x00000000000006b4                char_to_int
 .text          0x0000000000000770      0x368 obj/default/main.o
                0x0000000000000770                task1
                0x0000000000000908                task2
                0x0000000000000934                task3
                0x0000000000000960                nUART_ISR
                0x00000000000009a4                main
 .text          0x0000000000000ad8      0x444 obj/default/motor.o
                0x0000000000000ad8                servo_setting
                0x0000000000000b94                motor_setting
                0x0000000000000c50                setSpeedPerc
                0x0000000000000da0                setSteeringPerc
                0x0000000000000eb4                setSteering
 .text          0x0000000000000f1c      0x1b4 obj/default/uart.o
                0x0000000000000f1c                uart_init
                0x0000000000000f68                uart_send_byte
                0x0000000000000fd4                uart_receive_byte
                0x0000000000001034                uart_send_string
 .text          0x00000000000010d0      0x158 obj/default/ultrasound.o
                0x00000000000010d0                ultrasound_init
                0x0000000000001114                ultrasound_read
 .text          0x0000000000001228       0x74 /media/christoph/8A841458841448D9/space/altera_lite/15.1/nios2eds/bin/gnu/H-x86_64-pc-linux-gnu/bin/../lib/gcc/nios2-elf/4.9.2/mno-hw-mul/libgcc.a(_fixunsdfsi.o)
                0x0000000000001228                __fixunsdfsi
 .text          0x000000000000129c       0x28 /media/christoph/8A841458841448D9/space/altera_lite/15.1/nios2eds/bin/gnu/H-x86_64-pc-linux-gnu/bin/../lib/gcc/nios2-elf/4.9.2/mno-hw-mul/libgcc.a(lib2-mul.o)
                0x000000000000129c                __mulsi3
 .text          0x00000000000012c4      0x980 /media/christoph/8A841458841448D9/space/altera_lite/15.1/nios2eds/bin/gnu/H-x86_64-pc-linux-gnu/bin/../lib/gcc/nios2-elf/4.9.2/mno-hw-mul/libgcc.a(divdf3.o)
                0x00000000000012c4                __divdf3
 .text          0x0000000000001c44       0xe0 /media/christoph/8A841458841448D9/space/altera_lite/15.1/nios2eds/bin/gnu/H-x86_64-pc-linux-gnu/bin/../lib/gcc/nios2-elf/4.9.2/mno-hw-mul/libgcc.a(gedf2.o)
                0x0000000000001c44                __gtdf2
                0x0000000000001c44                __gedf2
 .text          0x0000000000001d24       0xe0 /media/christoph/8A841458841448D9/space/altera_lite/15.1/nios2eds/bin/gnu/H-x86_64-pc-linux-gnu/bin/../lib/gcc/nios2-elf/4.9.2/mno-hw-mul/libgcc.a(ledf2.o)
                0x0000000000001d24                __ltdf2
                0x0000000000001d24                __ledf2
 .text          0x0000000000001e04      0x86c /media/christoph/8A841458841448D9/space/altera_lite/15.1/nios2eds/bin/gnu/H-x86_64-pc-linux-gnu/bin/../lib/gcc/nios2-elf/4.9.2/mno-hw-mul/libgcc.a(muldf3.o)
                0x0000000000001e04                __muldf3
 .text          0x0000000000002670      0x8d0 /media/christoph/8A841458841448D9/space/altera_lite/15.1/nios2eds/bin/gnu/H-x86_64-pc-linux-gnu/bin/../lib/gcc/nios2-elf/4.9.2/mno-hw-mul/libgcc.a(subdf3.o)
                0x0000000000002670                __subdf3
 .text          0x0000000000002f40       0x88 /media/christoph/8A841458841448D9/space/altera_lite/15.1/nios2eds/bin/gnu/H-x86_64-pc-linux-gnu/bin/../lib/gcc/nios2-elf/4.9.2/mno-hw-mul/libgcc.a(fixdfsi.o)
                0x0000000000002f40                __fixdfsi
 .text          0x0000000000002fc8       0xd0 /media/christoph/8A841458841448D9/space/altera_lite/15.1/nios2eds/bin/gnu/H-x86_64-pc-linux-gnu/bin/../lib/gcc/nios2-elf/4.9.2/mno-hw-mul/libgcc.a(floatsidf.o)
                0x0000000000002fc8                __floatsidf
 .text          0x0000000000003098       0x64 /media/christoph/8A841458841448D9/space/altera_lite/15.1/nios2eds/bin/gnu/H-x86_64-pc-linux-gnu/bin/../lib/gcc/nios2-elf/4.9.2/mno-hw-mul/libgcc.a(_clzsi2.o)
                0x0000000000003098                __clzsi2
 .text          0x00000000000030fc      0x12c /media/christoph/8A841458841448D9/space/altera_lite/15.1/nios2eds/bin/gnu/H-x86_64-pc-linux-gnu/bin/../lib/gcc/nios2-elf/4.9.2/mno-hw-mul/libgcc.a(lib2-divmod.o)
                0x0000000000003168                __divsi3
                0x00000000000031bc                __modsi3
                0x0000000000003218                __udivsi3
                0x0000000000003220                __umodsi3
 .text          0x0000000000003228        0x0 /media/christoph/8A841458841448D9/space/altera_lite/15.1/nios2eds/bin/gnu/H-x86_64-pc-linux-gnu/bin/../lib/gcc/nios2-elf/4.9.2/mno-hw-mul/libgcc.a(_clz.o)
 .text          0x0000000000003228        0x0 /media/christoph/8A841458841448D9/space/altera_lite/15.1/nios2eds/bin/gnu/H-x86_64-pc-linux-gnu/bin/../lib/gcc/nios2-elf/4.9.2/../../../../../H-x86_64-pc-linux-gnu/nios2-elf/lib/mno-hw-mul/libc.a(lib_a-printf.o)
 .text._printf_r
                0x0000000000003228       0x2c /media/christoph/8A841458841448D9/space/altera_lite/15.1/nios2eds/bin/gnu/H-x86_64-pc-linux-gnu/bin/../lib/gcc/nios2-elf/4.9.2/../../../../../H-x86_64-pc-linux-gnu/nios2-elf/lib/mno-hw-mul/libc.a(lib_a-printf.o)
                0x0000000000003228                _printf_r
 .text.printf   0x0000000000003254       0x3c /media/christoph/8A841458841448D9/space/altera_lite/15.1/nios2eds/bin/gnu/H-x86_64-pc-linux-gnu/bin/../lib/gcc/nios2-elf/4.9.2/../../../../../H-x86_64-pc-linux-gnu/nios2-elf/lib/mno-hw-mul/libc.a(lib_a-printf.o)
                0x0000000000003254                printf
 .text          0x0000000000003290        0x0 /media/christoph/8A841458841448D9/space/altera_lite/15.1/nios2eds/bin/gnu/H-x86_64-pc-linux-gnu/bin/../lib/gcc/nios2-elf/4.9.2/../../../../../H-x86_64-pc-linux-gnu/nios2-elf/lib/mno-hw-mul/libc.a(lib_a-strncmp.o)
 .text.strncmp  0x0000000000003290       0xc0 /media/christoph/8A841458841448D9/space/altera_lite/15.1/nios2eds/bin/gnu/H-x86_64-pc-linux-gnu/bin/../lib/gcc/nios2-elf/4.9.2/../../../../../H-x86_64-pc-linux-gnu/nios2-elf/lib/mno-hw-mul/libc.a(lib_a-strncmp.o)
                0x0000000000003290                strncmp
 .text          0x0000000000003350        0x0 /media/christoph/8A841458841448D9/space/altera_lite/15.1/nios2eds/bin/gnu/H-x86_64-pc-linux-gnu/bin/../lib/gcc/nios2-elf/4.9.2/../../../../../H-x86_64-pc-linux-gnu/nios2-elf/lib/mno-hw-mul/libc.a(lib_a-strncpy.o)
 .text.strncpy  0x0000000000003350       0xec /media/christoph/8A841458841448D9/space/altera_lite/15.1/nios2eds/bin/gnu/H-x86_64-pc-linux-gnu/bin/../lib/gcc/nios2-elf/4.9.2/../../../../../H-x86_64-pc-linux-gnu/nios2-elf/lib/mno-hw-mul/libc.a(lib_a-strncpy.o)
                0x0000000000003350                strncpy
 .text          0x000000000000343c        0x0 /media/christoph/8A841458841448D9/space/altera_lite/15.1/nios2eds/bin/gnu/H-x86_64-pc-linux-gnu/bin/../lib/gcc/nios2-elf/4.9.2/../../../../../H-x86_64-pc-linux-gnu/nios2-elf/lib/mno-hw-mul/libc.a(lib_a-vfprintf.o)
 .text.___vfprintf_internal_r
                0x000000000000343c     0x2058 /media/christoph/8A841458841448D9/space/altera_lite/15.1/nios2eds/bin/gnu/H-x86_64-pc-linux-gnu/bin/../lib/gcc/nios2-elf/4.9.2/../../../../../H-x86_64-pc-linux-gnu/nios2-elf/lib/mno-hw-mul/libc.a(lib_a-vfprintf.o)
                0x000000000000343c                ___vfprintf_internal_r
 .text.__vfprintf_internal
                0x0000000000005494       0x24 /media/christoph/8A841458841448D9/space/altera_lite/15.1/nios2eds/bin/gnu/H-x86_64-pc-linux-gnu/bin/../lib/gcc/nios2-elf/4.9.2/../../../../../H-x86_64-pc-linux-gnu/nios2-elf/lib/mno-hw-mul/libc.a(lib_a-vfprintf.o)
                0x0000000000005494                __vfprintf_internal
 .text.__sbprintf
                0x00000000000054b8       0xbc /media/christoph/8A841458841448D9/space/altera_lite/15.1/nios2eds/bin/gnu/H-x86_64-pc-linux-gnu/bin/../lib/gcc/nios2-elf/4.9.2/../../../../../H-x86_64-pc-linux-gnu/nios2-elf/lib/mno-hw-mul/libc.a(lib_a-vfprintf.o)
 .text          0x0000000000005574        0x0 /media/christoph/8A841458841448D9/space/altera_lite/15.1/nios2eds/bin/gnu/H-x86_64-pc-linux-gnu/bin/../lib/gcc/nios2-elf/4.9.2/../../../../../H-x86_64-pc-linux-gnu/nios2-elf/lib/mno-hw-mul/libc.a(lib_a-wsetup.o)
 .text.__swsetup_r
                0x0000000000005574      0x154 /media/christoph/8A841458841448D9/space/altera_lite/15.1/nios2eds/bin/gnu/H-x86_64-pc-linux-gnu/bin/../lib/gcc/nios2-elf/4.9.2/../../../../../H-x86_64-pc-linux-gnu/nios2-elf/lib/mno-hw-mul/libc.a(lib_a-wsetup.o)
                0x0000000000005574                __swsetup_r
 .text          0x00000000000056c8        0x0 /media/christoph/8A841458841448D9/space/altera_lite/15.1/nios2eds/bin/gnu/H-x86_64-pc-linux-gnu/bin/../lib/gcc/nios2-elf/4.9.2/../../../../../H-x86_64-pc-linux-gnu/nios2-elf/lib/mno-hw-mul/libc.a(lib_a-dtoa.o)
 .text.quorem   0x00000000000056c8      0x228 /media/christoph/8A841458841448D9/space/altera_lite/15.1/nios2eds/bin/gnu/H-x86_64-pc-linux-gnu/bin/../lib/gcc/nios2-elf/4.9.2/../../../../../H-x86_64-pc-linux-gnu/nios2-elf/lib/mno-hw-mul/libc.a(lib_a-dtoa.o)
 .text._dtoa_r  0x00000000000058f0     0x1728 /media/christoph/8A841458841448D9/space/altera_lite/15.1/nios2eds/bin/gnu/H-x86_64-pc-linux-gnu/bin/../lib/gcc/nios2-elf/4.9.2/../../../../../H-x86_64-pc-linux-gnu/nios2-elf/lib/mno-hw-mul/libc.a(lib_a-dtoa.o)
                0x00000000000058f0                _dtoa_r
 .text          0x0000000000007018        0x0 /media/christoph/8A841458841448D9/space/altera_lite/15.1/nios2eds/bin/gnu/H-x86_64-pc-linux-gnu/bin/../lib/gcc/nios2-elf/4.9.2/../../../../../H-x86_64-pc-linux-gnu/nios2-elf/lib/mno-hw-mul/libc.a(lib_a-fflush.o)
 .text.__sflush_r
                0x0000000000007018      0x208 /media/christoph/8A841458841448D9/space/altera_lite/15.1/nios2eds/bin/gnu/H-x86_64-pc-linux-gnu/bin/../lib/gcc/nios2-elf/4.9.2/../../../../../H-x86_64-pc-linux-gnu/nios2-elf/lib/mno-hw-mul/libc.a(lib_a-fflush.o)
                0x0000000000007018                __sflush_r
 .text._fflush_r
                0x0000000000007220       0x5c /media/christoph/8A841458841448D9/space/altera_lite/15.1/nios2eds/bin/gnu/H-x86_64-pc-linux-gnu/bin/../lib/gcc/nios2-elf/4.9.2/../../../../../H-x86_64-pc-linux-gnu/nios2-elf/lib/mno-hw-mul/libc.a(lib_a-fflush.o)
                0x0000000000007220                _fflush_r
 .text.fflush   0x000000000000727c       0x30 /media/christoph/8A841458841448D9/space/altera_lite/15.1/nios2eds/bin/gnu/H-x86_64-pc-linux-gnu/bin/../lib/gcc/nios2-elf/4.9.2/../../../../../H-x86_64-pc-linux-gnu/nios2-elf/lib/mno-hw-mul/libc.a(lib_a-fflush.o)
                0x000000000000727c                fflush
 .text          0x00000000000072ac        0x0 /media/christoph/8A841458841448D9/space/altera_lite/15.1/nios2eds/bin/gnu/H-x86_64-pc-linux-gnu/bin/../lib/gcc/nios2-elf/4.9.2/../../../../../H-x86_64-pc-linux-gnu/nios2-elf/lib/mno-hw-mul/libc.a(lib_a-findfp.o)
 .text.__fp_lock
                0x00000000000072ac        0x8 /media/christoph/8A841458841448D9/space/altera_lite/15.1/nios2eds/bin/gnu/H-x86_64-pc-linux-gnu/bin/../lib/gcc/nios2-elf/4.9.2/../../../../../H-x86_64-pc-linux-gnu/nios2-elf/lib/mno-hw-mul/libc.a(lib_a-findfp.o)
 .text.__fp_unlock
                0x00000000000072b4        0x8 /media/christoph/8A841458841448D9/space/altera_lite/15.1/nios2eds/bin/gnu/H-x86_64-pc-linux-gnu/bin/../lib/gcc/nios2-elf/4.9.2/../../../../../H-x86_64-pc-linux-gnu/nios2-elf/lib/mno-hw-mul/libc.a(lib_a-findfp.o)
 .text._cleanup_r
                0x00000000000072bc        0xc /media/christoph/8A841458841448D9/space/altera_lite/15.1/nios2eds/bin/gnu/H-x86_64-pc-linux-gnu/bin/../lib/gcc/nios2-elf/4.9.2/../../../../../H-x86_64-pc-linux-gnu/nios2-elf/lib/mno-hw-mul/libc.a(lib_a-findfp.o)
                0x00000000000072bc                _cleanup_r
 .text.__sinit.part.1
                0x00000000000072c8      0x19c /media/christoph/8A841458841448D9/space/altera_lite/15.1/nios2eds/bin/gnu/H-x86_64-pc-linux-gnu/bin/../lib/gcc/nios2-elf/4.9.2/../../../../../H-x86_64-pc-linux-gnu/nios2-elf/lib/mno-hw-mul/libc.a(lib_a-findfp.o)
 .text.__sfmoreglue
                0x0000000000007464       0x78 /media/christoph/8A841458841448D9/space/altera_lite/15.1/nios2eds/bin/gnu/H-x86_64-pc-linux-gnu/bin/../lib/gcc/nios2-elf/4.9.2/../../../../../H-x86_64-pc-linux-gnu/nios2-elf/lib/mno-hw-mul/libc.a(lib_a-findfp.o)
                0x0000000000007464                __sfmoreglue
 .text.__sfp    0x00000000000074dc      0x118 /media/christoph/8A841458841448D9/space/altera_lite/15.1/nios2eds/bin/gnu/H-x86_64-pc-linux-gnu/bin/../lib/gcc/nios2-elf/4.9.2/../../../../../H-x86_64-pc-linux-gnu/nios2-elf/lib/mno-hw-mul/libc.a(lib_a-findfp.o)
                0x00000000000074dc                __sfp
 .text._cleanup
                0x00000000000075f4       0x18 /media/christoph/8A841458841448D9/space/altera_lite/15.1/nios2eds/bin/gnu/H-x86_64-pc-linux-gnu/bin/../lib/gcc/nios2-elf/4.9.2/../../../../../H-x86_64-pc-linux-gnu/nios2-elf/lib/mno-hw-mul/libc.a(lib_a-findfp.o)
                0x00000000000075f4                _cleanup
 .text.__sinit  0x000000000000760c       0x10 /media/christoph/8A841458841448D9/space/altera_lite/15.1/nios2eds/bin/gnu/H-x86_64-pc-linux-gnu/bin/../lib/gcc/nios2-elf/4.9.2/../../../../../H-x86_64-pc-linux-gnu/nios2-elf/lib/mno-hw-mul/libc.a(lib_a-findfp.o)
                0x000000000000760c                __sinit
 .text.__sfp_lock_acquire
                0x000000000000761c        0x4 /media/christoph/8A841458841448D9/space/altera_lite/15.1/nios2eds/bin/gnu/H-x86_64-pc-linux-gnu/bin/../lib/gcc/nios2-elf/4.9.2/../../../../../H-x86_64-pc-linux-gnu/nios2-elf/lib/mno-hw-mul/libc.a(lib_a-findfp.o)
                0x000000000000761c                __sfp_lock_acquire
 .text.__sfp_lock_release
                0x0000000000007620        0x4 /media/christoph/8A841458841448D9/space/altera_lite/15.1/nios2eds/bin/gnu/H-x86_64-pc-linux-gnu/bin/../lib/gcc/nios2-elf/4.9.2/../../../../../H-x86_64-pc-linux-gnu/nios2-elf/lib/mno-hw-mul/libc.a(lib_a-findfp.o)
                0x0000000000007620                __sfp_lock_release
 .text.__sinit_lock_acquire
                0x0000000000007624        0x4 /media/christoph/8A841458841448D9/space/altera_lite/15.1/nios2eds/bin/gnu/H-x86_64-pc-linux-gnu/bin/../lib/gcc/nios2-elf/4.9.2/../../../../../H-x86_64-pc-linux-gnu/nios2-elf/lib/mno-hw-mul/libc.a(lib_a-findfp.o)
                0x0000000000007624                __sinit_lock_acquire
 .text.__sinit_lock_release
                0x0000000000007628        0x4 /media/christoph/8A841458841448D9/space/altera_lite/15.1/nios2eds/bin/gnu/H-x86_64-pc-linux-gnu/bin/../lib/gcc/nios2-elf/4.9.2/../../../../../H-x86_64-pc-linux-gnu/nios2-elf/lib/mno-hw-mul/libc.a(lib_a-findfp.o)
                0x0000000000007628                __sinit_lock_release
 .text.__fp_lock_all
                0x000000000000762c       0x18 /media/christoph/8A841458841448D9/space/altera_lite/15.1/nios2eds/bin/gnu/H-x86_64-pc-linux-gnu/bin/../lib/gcc/nios2-elf/4.9.2/../../../../../H-x86_64-pc-linux-gnu/nios2-elf/lib/mno-hw-mul/libc.a(lib_a-findfp.o)
                0x000000000000762c                __fp_lock_all
 .text.__fp_unlock_all
                0x0000000000007644       0x18 /media/christoph/8A841458841448D9/space/altera_lite/15.1/nios2eds/bin/gnu/H-x86_64-pc-linux-gnu/bin/../lib/gcc/nios2-elf/4.9.2/../../../../../H-x86_64-pc-linux-gnu/nios2-elf/lib/mno-hw-mul/libc.a(lib_a-findfp.o)
                0x0000000000007644                __fp_unlock_all
 .text          0x000000000000765c        0x0 /media/christoph/8A841458841448D9/space/altera_lite/15.1/nios2eds/bin/gnu/H-x86_64-pc-linux-gnu/bin/../lib/gcc/nios2-elf/4.9.2/../../../../../H-x86_64-pc-linux-gnu/nios2-elf/lib/mno-hw-mul/libc.a(lib_a-freer.o)
 .text._malloc_trim_r
                0x000000000000765c      0x124 /media/christoph/8A841458841448D9/space/altera_lite/15.1/nios2eds/bin/gnu/H-x86_64-pc-linux-gnu/bin/../lib/gcc/nios2-elf/4.9.2/../../../../../H-x86_64-pc-linux-gnu/nios2-elf/lib/mno-hw-mul/libc.a(lib_a-freer.o)
                0x000000000000765c                _malloc_trim_r
 .text._free_r  0x0000000000007780      0x2f0 /media/christoph/8A841458841448D9/space/altera_lite/15.1/nios2eds/bin/gnu/H-x86_64-pc-linux-gnu/bin/../lib/gcc/nios2-elf/4.9.2/../../../../../H-x86_64-pc-linux-gnu/nios2-elf/lib/mno-hw-mul/libc.a(lib_a-freer.o)
                0x0000000000007780                _free_r
 .text          0x0000000000007a70        0x0 /media/christoph/8A841458841448D9/space/altera_lite/15.1/nios2eds/bin/gnu/H-x86_64-pc-linux-gnu/bin/../lib/gcc/nios2-elf/4.9.2/../../../../../H-x86_64-pc-linux-gnu/nios2-elf/lib/mno-hw-mul/libc.a(lib_a-fwalk.o)
 .text._fwalk   0x0000000000007a70       0xc4 /media/christoph/8A841458841448D9/space/altera_lite/15.1/nios2eds/bin/gnu/H-x86_64-pc-linux-gnu/bin/../lib/gcc/nios2-elf/4.9.2/../../../../../H-x86_64-pc-linux-gnu/nios2-elf/lib/mno-hw-mul/libc.a(lib_a-fwalk.o)
                0x0000000000007a70                _fwalk
 .text._fwalk_reent
                0x0000000000007b34       0xc4 /media/christoph/8A841458841448D9/space/altera_lite/15.1/nios2eds/bin/gnu/H-x86_64-pc-linux-gnu/bin/../lib/gcc/nios2-elf/4.9.2/../../../../../H-x86_64-pc-linux-gnu/nios2-elf/lib/mno-hw-mul/libc.a(lib_a-fwalk.o)
                0x0000000000007b34                _fwalk_reent
 .text          0x0000000000007bf8        0x0 /media/christoph/8A841458841448D9/space/altera_lite/15.1/nios2eds/bin/gnu/H-x86_64-pc-linux-gnu/bin/../lib/gcc/nios2-elf/4.9.2/../../../../../H-x86_64-pc-linux-gnu/nios2-elf/lib/mno-hw-mul/libc.a(lib_a-impure.o)
 .text          0x0000000000007bf8        0x0 /media/christoph/8A841458841448D9/space/altera_lite/15.1/nios2eds/bin/gnu/H-x86_64-pc-linux-gnu/bin/../lib/gcc/nios2-elf/4.9.2/../../../../../H-x86_64-pc-linux-gnu/nios2-elf/lib/mno-hw-mul/libc.a(lib_a-locale.o)
 .text._setlocale_r
                0x0000000000007bf8       0x7c /media/christoph/8A841458841448D9/space/altera_lite/15.1/nios2eds/bin/gnu/H-x86_64-pc-linux-gnu/bin/../lib/gcc/nios2-elf/4.9.2/../../../../../H-x86_64-pc-linux-gnu/nios2-elf/lib/mno-hw-mul/libc.a(lib_a-locale.o)
                0x0000000000007bf8                _setlocale_r
 .text.__locale_charset
                0x0000000000007c74        0xc /media/christoph/8A841458841448D9/space/altera_lite/15.1/nios2eds/bin/gnu/H-x86_64-pc-linux-gnu/bin/../lib/gcc/nios2-elf/4.9.2/../../../../../H-x86_64-pc-linux-gnu/nios2-elf/lib/mno-hw-mul/libc.a(lib_a-locale.o)
                0x0000000000007c74                __locale_charset
 .text.__locale_mb_cur_max
                0x0000000000007c80       0x10 /media/christoph/8A841458841448D9/space/altera_lite/15.1/nios2eds/bin/gnu/H-x86_64-pc-linux-gnu/bin/../lib/gcc/nios2-elf/4.9.2/../../../../../H-x86_64-pc-linux-gnu/nios2-elf/lib/mno-hw-mul/libc.a(lib_a-locale.o)
                0x0000000000007c80                __locale_mb_cur_max
 .text.__locale_msgcharset
                0x0000000000007c90        0xc /media/christoph/8A841458841448D9/space/altera_lite/15.1/nios2eds/bin/gnu/H-x86_64-pc-linux-gnu/bin/../lib/gcc/nios2-elf/4.9.2/../../../../../H-x86_64-pc-linux-gnu/nios2-elf/lib/mno-hw-mul/libc.a(lib_a-locale.o)
                0x0000000000007c90                __locale_msgcharset
 .text.__locale_cjk_lang
                0x0000000000007c9c        0x8 /media/christoph/8A841458841448D9/space/altera_lite/15.1/nios2eds/bin/gnu/H-x86_64-pc-linux-gnu/bin/../lib/gcc/nios2-elf/4.9.2/../../../../../H-x86_64-pc-linux-gnu/nios2-elf/lib/mno-hw-mul/libc.a(lib_a-locale.o)
                0x0000000000007c9c                __locale_cjk_lang
 .text._localeconv_r
                0x0000000000007ca4        0xc /media/christoph/8A841458841448D9/space/altera_lite/15.1/nios2eds/bin/gnu/H-x86_64-pc-linux-gnu/bin/../lib/gcc/nios2-elf/4.9.2/../../../../../H-x86_64-pc-linux-gnu/nios2-elf/lib/mno-hw-mul/libc.a(lib_a-locale.o)
                0x0000000000007ca4                _localeconv_r
 .text.setlocale
                0x0000000000007cb0       0x1c /media/christoph/8A841458841448D9/space/altera_lite/15.1/nios2eds/bin/gnu/H-x86_64-pc-linux-gnu/bin/../lib/gcc/nios2-elf/4.9.2/../../../../../H-x86_64-pc-linux-gnu/nios2-elf/lib/mno-hw-mul/libc.a(lib_a-locale.o)
                0x0000000000007cb0                setlocale
 .text.localeconv
                0x0000000000007ccc        0xc /media/christoph/8A841458841448D9/space/altera_lite/15.1/nios2eds/bin/gnu/H-x86_64-pc-linux-gnu/bin/../lib/gcc/nios2-elf/4.9.2/../../../../../H-x86_64-pc-linux-gnu/nios2-elf/lib/mno-hw-mul/libc.a(lib_a-locale.o)
                0x0000000000007ccc                localeconv
 .text          0x0000000000007cd8        0x0 /media/christoph/8A841458841448D9/space/altera_lite/15.1/nios2eds/bin/gnu/H-x86_64-pc-linux-gnu/bin/../lib/gcc/nios2-elf/4.9.2/../../../../../H-x86_64-pc-linux-gnu/nios2-elf/lib/mno-hw-mul/libc.a(lib_a-makebuf.o)
 .text.__smakebuf_r
                0x0000000000007cd8      0x1b8 /media/christoph/8A841458841448D9/space/altera_lite/15.1/nios2eds/bin/gnu/H-x86_64-pc-linux-gnu/bin/../lib/gcc/nios2-elf/4.9.2/../../../../../H-x86_64-pc-linux-gnu/nios2-elf/lib/mno-hw-mul/libc.a(lib_a-makebuf.o)
                0x0000000000007cd8                __smakebuf_r
 .text          0x0000000000007e90        0x0 /media/christoph/8A841458841448D9/space/altera_lite/15.1/nios2eds/bin/gnu/H-x86_64-pc-linux-gnu/bin/../lib/gcc/nios2-elf/4.9.2/../../../../../H-x86_64-pc-linux-gnu/nios2-elf/lib/mno-hw-mul/libc.a(lib_a-mallocr.o)
 .text._malloc_r
                0x0000000000007e90      0x7a8 /media/christoph/8A841458841448D9/space/altera_lite/15.1/nios2eds/bin/gnu/H-x86_64-pc-linux-gnu/bin/../lib/gcc/nios2-elf/4.9.2/../../../../../H-x86_64-pc-linux-gnu/nios2-elf/lib/mno-hw-mul/libc.a(lib_a-mallocr.o)
                0x0000000000007e90                _malloc_r
 .text          0x0000000000008638        0x0 /media/christoph/8A841458841448D9/space/altera_lite/15.1/nios2eds/bin/gnu/H-x86_64-pc-linux-gnu/bin/../lib/gcc/nios2-elf/4.9.2/../../../../../H-x86_64-pc-linux-gnu/nios2-elf/lib/mno-hw-mul/libc.a(lib_a-memchr.o)
 .text.memchr   0x0000000000008638       0xe8 /media/christoph/8A841458841448D9/space/altera_lite/15.1/nios2eds/bin/gnu/H-x86_64-pc-linux-gnu/bin/../lib/gcc/nios2-elf/4.9.2/../../../../../H-x86_64-pc-linux-gnu/nios2-elf/lib/mno-hw-mul/libc.a(lib_a-memchr.o)
                0x0000000000008638                memchr
 .text          0x0000000000008720        0x0 /media/christoph/8A841458841448D9/space/altera_lite/15.1/nios2eds/bin/gnu/H-x86_64-pc-linux-gnu/bin/../lib/gcc/nios2-elf/4.9.2/../../../../../H-x86_64-pc-linux-gnu/nios2-elf/lib/mno-hw-mul/libc.a(lib_a-memcpy.o)
 .text.memcpy   0x0000000000008720      0x138 /media/christoph/8A841458841448D9/space/altera_lite/15.1/nios2eds/bin/gnu/H-x86_64-pc-linux-gnu/bin/../lib/gcc/nios2-elf/4.9.2/../../../../../H-x86_64-pc-linux-gnu/nios2-elf/lib/mno-hw-mul/libc.a(lib_a-memcpy.o)
                0x0000000000008720                memcpy
 .text          0x0000000000008858        0x0 /media/christoph/8A841458841448D9/space/altera_lite/15.1/nios2eds/bin/gnu/H-x86_64-pc-linux-gnu/bin/../lib/gcc/nios2-elf/4.9.2/../../../../../H-x86_64-pc-linux-gnu/nios2-elf/lib/mno-hw-mul/libc.a(lib_a-memset.o)
 .text.memset   0x0000000000008858      0x124 /media/christoph/8A841458841448D9/space/altera_lite/15.1/nios2eds/bin/gnu/H-x86_64-pc-linux-gnu/bin/../lib/gcc/nios2-elf/4.9.2/../../../../../H-x86_64-pc-linux-gnu/nios2-elf/lib/mno-hw-mul/libc.a(lib_a-memset.o)
                0x0000000000008858                memset
 .text          0x000000000000897c        0x0 /media/christoph/8A841458841448D9/space/altera_lite/15.1/nios2eds/bin/gnu/H-x86_64-pc-linux-gnu/bin/../lib/gcc/nios2-elf/4.9.2/../../../../../H-x86_64-pc-linux-gnu/nios2-elf/lib/mno-hw-mul/libc.a(lib_a-mprec.o)
 .text._Balloc  0x000000000000897c       0xa8 /media/christoph/8A841458841448D9/space/altera_lite/15.1/nios2eds/bin/gnu/H-x86_64-pc-linux-gnu/bin/../lib/gcc/nios2-elf/4.9.2/../../../../../H-x86_64-pc-linux-gnu/nios2-elf/lib/mno-hw-mul/libc.a(lib_a-mprec.o)
                0x000000000000897c                _Balloc
 .text._Bfree   0x0000000000008a24       0x28 /media/christoph/8A841458841448D9/space/altera_lite/15.1/nios2eds/bin/gnu/H-x86_64-pc-linux-gnu/bin/../lib/gcc/nios2-elf/4.9.2/../../../../../H-x86_64-pc-linux-gnu/nios2-elf/lib/mno-hw-mul/libc.a(lib_a-mprec.o)
                0x0000000000008a24                _Bfree
 .text.__multadd
                0x0000000000008a4c      0x148 /media/christoph/8A841458841448D9/space/altera_lite/15.1/nios2eds/bin/gnu/H-x86_64-pc-linux-gnu/bin/../lib/gcc/nios2-elf/4.9.2/../../../../../H-x86_64-pc-linux-gnu/nios2-elf/lib/mno-hw-mul/libc.a(lib_a-mprec.o)
                0x0000000000008a4c                __multadd
 .text.__s2b    0x0000000000008b94      0x104 /media/christoph/8A841458841448D9/space/altera_lite/15.1/nios2eds/bin/gnu/H-x86_64-pc-linux-gnu/bin/../lib/gcc/nios2-elf/4.9.2/../../../../../H-x86_64-pc-linux-gnu/nios2-elf/lib/mno-hw-mul/libc.a(lib_a-mprec.o)
                0x0000000000008b94                __s2b
 .text.__hi0bits
                0x0000000000008c98       0x68 /media/christoph/8A841458841448D9/space/altera_lite/15.1/nios2eds/bin/gnu/H-x86_64-pc-linux-gnu/bin/../lib/gcc/nios2-elf/4.9.2/../../../../../H-x86_64-pc-linux-gnu/nios2-elf/lib/mno-hw-mul/libc.a(lib_a-mprec.o)
                0x0000000000008c98                __hi0bits
 .text.__lo0bits
                0x0000000000008d00       0xb0 /media/christoph/8A841458841448D9/space/altera_lite/15.1/nios2eds/bin/gnu/H-x86_64-pc-linux-gnu/bin/../lib/gcc/nios2-elf/4.9.2/../../../../../H-x86_64-pc-linux-gnu/nios2-elf/lib/mno-hw-mul/libc.a(lib_a-mprec.o)
                0x0000000000008d00                __lo0bits
 .text.__i2b    0x0000000000008db0       0x3c /media/christoph/8A841458841448D9/space/altera_lite/15.1/nios2eds/bin/gnu/H-x86_64-pc-linux-gnu/bin/../lib/gcc/nios2-elf/4.9.2/../../../../../H-x86_64-pc-linux-gnu/nios2-elf/lib/mno-hw-mul/libc.a(lib_a-mprec.o)
                0x0000000000008db0                __i2b
 .text.__multiply
                0x0000000000008dec      0x290 /media/christoph/8A841458841448D9/space/altera_lite/15.1/nios2eds/bin/gnu/H-x86_64-pc-linux-gnu/bin/../lib/gcc/nios2-elf/4.9.2/../../../../../H-x86_64-pc-linux-gnu/nios2-elf/lib/mno-hw-mul/libc.a(lib_a-mprec.o)
                0x0000000000008dec                __multiply
 .text.__pow5mult
                0x000000000000907c      0x140 /media/christoph/8A841458841448D9/space/altera_lite/15.1/nios2eds/bin/gnu/H-x86_64-pc-linux-gnu/bin/../lib/gcc/nios2-elf/4.9.2/../../../../../H-x86_64-pc-linux-gnu/nios2-elf/lib/mno-hw-mul/libc.a(lib_a-mprec.o)
                0x000000000000907c                __pow5mult
 .text.__lshift
                0x00000000000091bc      0x150 /media/christoph/8A841458841448D9/space/altera_lite/15.1/nios2eds/bin/gnu/H-x86_64-pc-linux-gnu/bin/../lib/gcc/nios2-elf/4.9.2/../../../../../H-x86_64-pc-linux-gnu/nios2-elf/lib/mno-hw-mul/libc.a(lib_a-mprec.o)
                0x00000000000091bc                __lshift
 .text.__mcmp   0x000000000000930c       0x60 /media/christoph/8A841458841448D9/space/altera_lite/15.1/nios2eds/bin/gnu/H-x86_64-pc-linux-gnu/bin/../lib/gcc/nios2-elf/4.9.2/../../../../../H-x86_64-pc-linux-gnu/nios2-elf/lib/mno-hw-mul/libc.a(lib_a-mprec.o)
                0x000000000000930c                __mcmp
 .text.__mdiff  0x000000000000936c      0x198 /media/christoph/8A841458841448D9/space/altera_lite/15.1/nios2eds/bin/gnu/H-x86_64-pc-linux-gnu/bin/../lib/gcc/nios2-elf/4.9.2/../../../../../H-x86_64-pc-linux-gnu/nios2-elf/lib/mno-hw-mul/libc.a(lib_a-mprec.o)
                0x000000000000936c                __mdiff
 .text.__ulp    0x0000000000009504       0x60 /media/christoph/8A841458841448D9/space/altera_lite/15.1/nios2eds/bin/gnu/H-x86_64-pc-linux-gnu/bin/../lib/gcc/nios2-elf/4.9.2/../../../../../H-x86_64-pc-linux-gnu/nios2-elf/lib/mno-hw-mul/libc.a(lib_a-mprec.o)
                0x0000000000009504                __ulp
 .text.__b2d    0x0000000000009564      0x11c /media/christoph/8A841458841448D9/space/altera_lite/15.1/nios2eds/bin/gnu/H-x86_64-pc-linux-gnu/bin/../lib/gcc/nios2-elf/4.9.2/../../../../../H-x86_64-pc-linux-gnu/nios2-elf/lib/mno-hw-mul/libc.a(lib_a-mprec.o)
                0x0000000000009564                __b2d
 .text.__d2b    0x0000000000009680      0x13c /media/christoph/8A841458841448D9/space/altera_lite/15.1/nios2eds/bin/gnu/H-x86_64-pc-linux-gnu/bin/../lib/gcc/nios2-elf/4.9.2/../../../../../H-x86_64-pc-linux-gnu/nios2-elf/lib/mno-hw-mul/libc.a(lib_a-mprec.o)
                0x0000000000009680                __d2b
 .text.__ratio  0x00000000000097bc       0xa4 /media/christoph/8A841458841448D9/space/altera_lite/15.1/nios2eds/bin/gnu/H-x86_64-pc-linux-gnu/bin/../lib/gcc/nios2-elf/4.9.2/../../../../../H-x86_64-pc-linux-gnu/nios2-elf/lib/mno-hw-mul/libc.a(lib_a-mprec.o)
                0x00000000000097bc                __ratio
 .text._mprec_log10
                0x0000000000009860       0x74 /media/christoph/8A841458841448D9/space/altera_lite/15.1/nios2eds/bin/gnu/H-x86_64-pc-linux-gnu/bin/../lib/gcc/nios2-elf/4.9.2/../../../../../H-x86_64-pc-linux-gnu/nios2-elf/lib/mno-hw-mul/libc.a(lib_a-mprec.o)
                0x0000000000009860                _mprec_log10
 .text.__copybits
                0x00000000000098d4       0x78 /media/christoph/8A841458841448D9/space/altera_lite/15.1/nios2eds/bin/gnu/H-x86_64-pc-linux-gnu/bin/../lib/gcc/nios2-elf/4.9.2/../../../../../H-x86_64-pc-linux-gnu/nios2-elf/lib/mno-hw-mul/libc.a(lib_a-mprec.o)
                0x00000000000098d4                __copybits
 .text.__any_on
                0x000000000000994c       0x8c /media/christoph/8A841458841448D9/space/altera_lite/15.1/nios2eds/bin/gnu/H-x86_64-pc-linux-gnu/bin/../lib/gcc/nios2-elf/4.9.2/../../../../../H-x86_64-pc-linux-gnu/nios2-elf/lib/mno-hw-mul/libc.a(lib_a-mprec.o)
                0x000000000000994c                __any_on
 .text          0x00000000000099d8        0x0 /media/christoph/8A841458841448D9/space/altera_lite/15.1/nios2eds/bin/gnu/H-x86_64-pc-linux-gnu/bin/../lib/gcc/nios2-elf/4.9.2/../../../../../H-x86_64-pc-linux-gnu/nios2-elf/lib/mno-hw-mul/libc.a(lib_a-s_fpclassify.o)
 .text.__fpclassifyd
                0x00000000000099d8       0x74 /media/christoph/8A841458841448D9/space/altera_lite/15.1/nios2eds/bin/gnu/H-x86_64-pc-linux-gnu/bin/../lib/gcc/nios2-elf/4.9.2/../../../../../H-x86_64-pc-linux-gnu/nios2-elf/lib/mno-hw-mul/libc.a(lib_a-s_fpclassify.o)
                0x00000000000099d8                __fpclassifyd
 .text          0x0000000000009a4c        0x0 /media/christoph/8A841458841448D9/space/altera_lite/15.1/nios2eds/bin/gnu/H-x86_64-pc-linux-gnu/bin/../lib/gcc/nios2-elf/4.9.2/../../../../../H-x86_64-pc-linux-gnu/nios2-elf/lib/mno-hw-mul/libc.a(lib_a-sbrkr.o)
 .text._sbrk_r  0x0000000000009a4c       0x54 /media/christoph/8A841458841448D9/space/altera_lite/15.1/nios2eds/bin/gnu/H-x86_64-pc-linux-gnu/bin/../lib/gcc/nios2-elf/4.9.2/../../../../../H-x86_64-pc-linux-gnu/nios2-elf/lib/mno-hw-mul/libc.a(lib_a-sbrkr.o)
                0x0000000000009a4c                _sbrk_r
 .text          0x0000000000009aa0        0x0 /media/christoph/8A841458841448D9/space/altera_lite/15.1/nios2eds/bin/gnu/H-x86_64-pc-linux-gnu/bin/../lib/gcc/nios2-elf/4.9.2/../../../../../H-x86_64-pc-linux-gnu/nios2-elf/lib/mno-hw-mul/libc.a(lib_a-stdio.o)
 .text.__sread  0x0000000000009aa0       0x54 /media/christoph/8A841458841448D9/space/altera_lite/15.1/nios2eds/bin/gnu/H-x86_64-pc-linux-gnu/bin/../lib/gcc/nios2-elf/4.9.2/../../../../../H-x86_64-pc-linux-gnu/nios2-elf/lib/mno-hw-mul/libc.a(lib_a-stdio.o)
                0x0000000000009aa0                __sread
 .text.__seofread
                0x0000000000009af4        0x8 /media/christoph/8A841458841448D9/space/altera_lite/15.1/nios2eds/bin/gnu/H-x86_64-pc-linux-gnu/bin/../lib/gcc/nios2-elf/4.9.2/../../../../../H-x86_64-pc-linux-gnu/nios2-elf/lib/mno-hw-mul/libc.a(lib_a-stdio.o)
                0x0000000000009af4                __seofread
 .text.__swrite
                0x0000000000009afc       0x7c /media/christoph/8A841458841448D9/space/altera_lite/15.1/nios2eds/bin/gnu/H-x86_64-pc-linux-gnu/bin/../lib/gcc/nios2-elf/4.9.2/../../../../../H-x86_64-pc-linux-gnu/nios2-elf/lib/mno-hw-mul/libc.a(lib_a-stdio.o)
                0x0000000000009afc                __swrite
 .text.__sseek  0x0000000000009b78       0x5c /media/christoph/8A841458841448D9/space/altera_lite/15.1/nios2eds/bin/gnu/H-x86_64-pc-linux-gnu/bin/../lib/gcc/nios2-elf/4.9.2/../../../../../H-x86_64-pc-linux-gnu/nios2-elf/lib/mno-hw-mul/libc.a(lib_a-stdio.o)
                0x0000000000009b78                __sseek
 .text.__sclose
                0x0000000000009bd4        0x8 /media/christoph/8A841458841448D9/space/altera_lite/15.1/nios2eds/bin/gnu/H-x86_64-pc-linux-gnu/bin/../lib/gcc/nios2-elf/4.9.2/../../../../../H-x86_64-pc-linux-gnu/nios2-elf/lib/mno-hw-mul/libc.a(lib_a-stdio.o)
                0x0000000000009bd4                __sclose
 .text          0x0000000000009bdc        0x0 /media/christoph/8A841458841448D9/space/altera_lite/15.1/nios2eds/bin/gnu/H-x86_64-pc-linux-gnu/bin/../lib/gcc/nios2-elf/4.9.2/../../../../../H-x86_64-pc-linux-gnu/nios2-elf/lib/mno-hw-mul/libc.a(lib_a-strcmp.o)
 .text.strcmp   0x0000000000009bdc       0xa4 /media/christoph/8A841458841448D9/space/altera_lite/15.1/nios2eds/bin/gnu/H-x86_64-pc-linux-gnu/bin/../lib/gcc/nios2-elf/4.9.2/../../../../../H-x86_64-pc-linux-gnu/nios2-elf/lib/mno-hw-mul/libc.a(lib_a-strcmp.o)
                0x0000000000009bdc                strcmp
 .text          0x0000000000009c80        0x0 /media/christoph/8A841458841448D9/space/altera_lite/15.1/nios2eds/bin/gnu/H-x86_64-pc-linux-gnu/bin/../lib/gcc/nios2-elf/4.9.2/../../../../../H-x86_64-pc-linux-gnu/nios2-elf/lib/mno-hw-mul/libc.a(lib_a-strlen.o)
 .text.strlen   0x0000000000009c80       0x98 /media/christoph/8A841458841448D9/space/altera_lite/15.1/nios2eds/bin/gnu/H-x86_64-pc-linux-gnu/bin/../lib/gcc/nios2-elf/4.9.2/../../../../../H-x86_64-pc-linux-gnu/nios2-elf/lib/mno-hw-mul/libc.a(lib_a-strlen.o)
                0x0000000000009c80                strlen
 .text          0x0000000000009d18        0x0 /media/christoph/8A841458841448D9/space/altera_lite/15.1/nios2eds/bin/gnu/H-x86_64-pc-linux-gnu/bin/../lib/gcc/nios2-elf/4.9.2/../../../../../H-x86_64-pc-linux-gnu/nios2-elf/lib/mno-hw-mul/libc.a(lib_a-vfiprintf.o)
 .text.__sprint_r.part.0
                0x0000000000009d18       0xfc /media/christoph/8A841458841448D9/space/altera_lite/15.1/nios2eds/bin/gnu/H-x86_64-pc-linux-gnu/bin/../lib/gcc/nios2-elf/4.9.2/../../../../../H-x86_64-pc-linux-gnu/nios2-elf/lib/mno-hw-mul/libc.a(lib_a-vfiprintf.o)
 .text.__sprint_r
                0x0000000000009e14       0x18 /media/christoph/8A841458841448D9/space/altera_lite/15.1/nios2eds/bin/gnu/H-x86_64-pc-linux-gnu/bin/../lib/gcc/nios2-elf/4.9.2/../../../../../H-x86_64-pc-linux-gnu/nios2-elf/lib/mno-hw-mul/libc.a(lib_a-vfiprintf.o)
                0x0000000000009e14                __sprint_r
 .text.___vfiprintf_internal_r
                0x0000000000009e2c     0x12f0 /media/christoph/8A841458841448D9/space/altera_lite/15.1/nios2eds/bin/gnu/H-x86_64-pc-linux-gnu/bin/../lib/gcc/nios2-elf/4.9.2/../../../../../H-x86_64-pc-linux-gnu/nios2-elf/lib/mno-hw-mul/libc.a(lib_a-vfiprintf.o)
                0x0000000000009e2c                ___vfiprintf_internal_r
 .text.__vfiprintf_internal
                0x000000000000b11c       0x24 /media/christoph/8A841458841448D9/space/altera_lite/15.1/nios2eds/bin/gnu/H-x86_64-pc-linux-gnu/bin/../lib/gcc/nios2-elf/4.9.2/../../../../../H-x86_64-pc-linux-gnu/nios2-elf/lib/mno-hw-mul/libc.a(lib_a-vfiprintf.o)
                0x000000000000b11c                __vfiprintf_internal
 .text.__sbprintf
                0x000000000000b140       0xbc /media/christoph/8A841458841448D9/space/altera_lite/15.1/nios2eds/bin/gnu/H-x86_64-pc-linux-gnu/bin/../lib/gcc/nios2-elf/4.9.2/../../../../../H-x86_64-pc-linux-gnu/nios2-elf/lib/mno-hw-mul/libc.a(lib_a-vfiprintf.o)
 .text          0x000000000000b1fc        0x0 /media/christoph/8A841458841448D9/space/altera_lite/15.1/nios2eds/bin/gnu/H-x86_64-pc-linux-gnu/bin/../lib/gcc/nios2-elf/4.9.2/../../../../../H-x86_64-pc-linux-gnu/nios2-elf/lib/mno-hw-mul/libc.a(lib_a-writer.o)
 .text._write_r
                0x000000000000b1fc       0x5c /media/christoph/8A841458841448D9/space/altera_lite/15.1/nios2eds/bin/gnu/H-x86_64-pc-linux-gnu/bin/../lib/gcc/nios2-elf/4.9.2/../../../../../H-x86_64-pc-linux-gnu/nios2-elf/lib/mno-hw-mul/libc.a(lib_a-writer.o)
                0x000000000000b1fc                _write_r
 .text          0x000000000000b258        0x0 /media/christoph/8A841458841448D9/space/altera_lite/15.1/nios2eds/bin/gnu/H-x86_64-pc-linux-gnu/bin/../lib/gcc/nios2-elf/4.9.2/../../../../../H-x86_64-pc-linux-gnu/nios2-elf/lib/mno-hw-mul/libc.a(closer.o)
 .text._close_r
                0x000000000000b258       0x54 /media/christoph/8A841458841448D9/space/altera_lite/15.1/nios2eds/bin/gnu/H-x86_64-pc-linux-gnu/bin/../lib/gcc/nios2-elf/4.9.2/../../../../../H-x86_64-pc-linux-gnu/nios2-elf/lib/mno-hw-mul/libc.a(closer.o)
                0x000000000000b258                _close_r
 .text          0x000000000000b2ac        0x0 /media/christoph/8A841458841448D9/space/altera_lite/15.1/nios2eds/bin/gnu/H-x86_64-pc-linux-gnu/bin/../lib/gcc/nios2-elf/4.9.2/../../../../../H-x86_64-pc-linux-gnu/nios2-elf/lib/mno-hw-mul/libc.a(lib_a-callocr.o)
 .text._calloc_r
                0x000000000000b2ac       0xd8 /media/christoph/8A841458841448D9/space/altera_lite/15.1/nios2eds/bin/gnu/H-x86_64-pc-linux-gnu/bin/../lib/gcc/nios2-elf/4.9.2/../../../../../H-x86_64-pc-linux-gnu/nios2-elf/lib/mno-hw-mul/libc.a(lib_a-callocr.o)
                0x000000000000b2ac                _calloc_r
 .text          0x000000000000b384        0x0 /media/christoph/8A841458841448D9/space/altera_lite/15.1/nios2eds/bin/gnu/H-x86_64-pc-linux-gnu/bin/../lib/gcc/nios2-elf/4.9.2/../../../../../H-x86_64-pc-linux-gnu/nios2-elf/lib/mno-hw-mul/libc.a(lib_a-fclose.o)
 .text._fclose_r
                0x000000000000b384       0xf0 /media/christoph/8A841458841448D9/space/altera_lite/15.1/nios2eds/bin/gnu/H-x86_64-pc-linux-gnu/bin/../lib/gcc/nios2-elf/4.9.2/../../../../../H-x86_64-pc-linux-gnu/nios2-elf/lib/mno-hw-mul/libc.a(lib_a-fclose.o)
                0x000000000000b384                _fclose_r
 .text.fclose   0x000000000000b474       0x14 /media/christoph/8A841458841448D9/space/altera_lite/15.1/nios2eds/bin/gnu/H-x86_64-pc-linux-gnu/bin/../lib/gcc/nios2-elf/4.9.2/../../../../../H-x86_64-pc-linux-gnu/nios2-elf/lib/mno-hw-mul/libc.a(lib_a-fclose.o)
                0x000000000000b474                fclose
 .text          0x000000000000b488        0x0 /media/christoph/8A841458841448D9/space/altera_lite/15.1/nios2eds/bin/gnu/H-x86_64-pc-linux-gnu/bin/../lib/gcc/nios2-elf/4.9.2/../../../../../H-x86_64-pc-linux-gnu/nios2-elf/lib/mno-hw-mul/libc.a(lib_a-fputwc.o)
 .text._fputwc_r
                0x000000000000b488      0x184 /media/christoph/8A841458841448D9/space/altera_lite/15.1/nios2eds/bin/gnu/H-x86_64-pc-linux-gnu/bin/../lib/gcc/nios2-elf/4.9.2/../../../../../H-x86_64-pc-linux-gnu/nios2-elf/lib/mno-hw-mul/libc.a(lib_a-fputwc.o)
                0x000000000000b488                _fputwc_r
 .text.fputwc   0x000000000000b60c       0x5c /media/christoph/8A841458841448D9/space/altera_lite/15.1/nios2eds/bin/gnu/H-x86_64-pc-linux-gnu/bin/../lib/gcc/nios2-elf/4.9.2/../../../../../H-x86_64-pc-linux-gnu/nios2-elf/lib/mno-hw-mul/libc.a(lib_a-fputwc.o)
                0x000000000000b60c                fputwc
 .text          0x000000000000b668        0x0 /media/christoph/8A841458841448D9/space/altera_lite/15.1/nios2eds/bin/gnu/H-x86_64-pc-linux-gnu/bin/../lib/gcc/nios2-elf/4.9.2/../../../../../H-x86_64-pc-linux-gnu/nios2-elf/lib/mno-hw-mul/libc.a(lib_a-fstatr.o)
 .text._fstat_r
                0x000000000000b668       0x58 /media/christoph/8A841458841448D9/space/altera_lite/15.1/nios2eds/bin/gnu/H-x86_64-pc-linux-gnu/bin/../lib/gcc/nios2-elf/4.9.2/../../../../../H-x86_64-pc-linux-gnu/nios2-elf/lib/mno-hw-mul/libc.a(lib_a-fstatr.o)
                0x000000000000b668                _fstat_r
 .text          0x000000000000b6c0        0x0 /media/christoph/8A841458841448D9/space/altera_lite/15.1/nios2eds/bin/gnu/H-x86_64-pc-linux-gnu/bin/../lib/gcc/nios2-elf/4.9.2/../../../../../H-x86_64-pc-linux-gnu/nios2-elf/lib/mno-hw-mul/libc.a(lib_a-fvwrite.o)
 .text.__sfvwrite_r
                0x000000000000b6c0      0x4cc /media/christoph/8A841458841448D9/space/altera_lite/15.1/nios2eds/bin/gnu/H-x86_64-pc-linux-gnu/bin/../lib/gcc/nios2-elf/4.9.2/../../../../../H-x86_64-pc-linux-gnu/nios2-elf/lib/mno-hw-mul/libc.a(lib_a-fvwrite.o)
                0x000000000000b6c0                __sfvwrite_r
 .text          0x000000000000bb8c        0x0 /media/christoph/8A841458841448D9/space/altera_lite/15.1/nios2eds/bin/gnu/H-x86_64-pc-linux-gnu/bin/../lib/gcc/nios2-elf/4.9.2/../../../../../H-x86_64-pc-linux-gnu/nios2-elf/lib/mno-hw-mul/libc.a(lib_a-int_errno.o)
 .text          0x000000000000bb8c        0x0 /media/christoph/8A841458841448D9/space/altera_lite/15.1/nios2eds/bin/gnu/H-x86_64-pc-linux-gnu/bin/../lib/gcc/nios2-elf/4.9.2/../../../../../H-x86_64-pc-linux-gnu/nios2-elf/lib/mno-hw-mul/libc.a(lib_a-isattyr.o)
 .text._isatty_r
                0x000000000000bb8c       0x54 /media/christoph/8A841458841448D9/space/altera_lite/15.1/nios2eds/bin/gnu/H-x86_64-pc-linux-gnu/bin/../lib/gcc/nios2-elf/4.9.2/../../../../../H-x86_64-pc-linux-gnu/nios2-elf/lib/mno-hw-mul/libc.a(lib_a-isattyr.o)
                0x000000000000bb8c                _isatty_r
 .text          0x000000000000bbe0        0x0 /media/christoph/8A841458841448D9/space/altera_lite/15.1/nios2eds/bin/gnu/H-x86_64-pc-linux-gnu/bin/../lib/gcc/nios2-elf/4.9.2/../../../../../H-x86_64-pc-linux-gnu/nios2-elf/lib/mno-hw-mul/libc.a(lib_a-lseekr.o)
 .text._lseek_r
                0x000000000000bbe0       0x5c /media/christoph/8A841458841448D9/space/altera_lite/15.1/nios2eds/bin/gnu/H-x86_64-pc-linux-gnu/bin/../lib/gcc/nios2-elf/4.9.2/../../../../../H-x86_64-pc-linux-gnu/nios2-elf/lib/mno-hw-mul/libc.a(lib_a-lseekr.o)
                0x000000000000bbe0                _lseek_r
 .text          0x000000000000bc3c        0x0 /media/christoph/8A841458841448D9/space/altera_lite/15.1/nios2eds/bin/gnu/H-x86_64-pc-linux-gnu/bin/../lib/gcc/nios2-elf/4.9.2/../../../../../H-x86_64-pc-linux-gnu/nios2-elf/lib/mno-hw-mul/libc.a(lib_a-memmove.o)
 .text.memmove  0x000000000000bc3c      0x15c /media/christoph/8A841458841448D9/space/altera_lite/15.1/nios2eds/bin/gnu/H-x86_64-pc-linux-gnu/bin/../lib/gcc/nios2-elf/4.9.2/../../../../../H-x86_64-pc-linux-gnu/nios2-elf/lib/mno-hw-mul/libc.a(lib_a-memmove.o)
                0x000000000000bc3c                memmove
 .text          0x000000000000bd98        0x0 /media/christoph/8A841458841448D9/space/altera_lite/15.1/nios2eds/bin/gnu/H-x86_64-pc-linux-gnu/bin/../lib/gcc/nios2-elf/4.9.2/../../../../../H-x86_64-pc-linux-gnu/nios2-elf/lib/mno-hw-mul/libc.a(lib_a-readr.o)
 .text._read_r  0x000000000000bd98       0x5c /media/christoph/8A841458841448D9/space/altera_lite/15.1/nios2eds/bin/gnu/H-x86_64-pc-linux-gnu/bin/../lib/gcc/nios2-elf/4.9.2/../../../../../H-x86_64-pc-linux-gnu/nios2-elf/lib/mno-hw-mul/libc.a(lib_a-readr.o)
                0x000000000000bd98                _read_r
 .text          0x000000000000bdf4        0x0 /media/christoph/8A841458841448D9/space/altera_lite/15.1/nios2eds/bin/gnu/H-x86_64-pc-linux-gnu/bin/../lib/gcc/nios2-elf/4.9.2/../../../../../H-x86_64-pc-linux-gnu/nios2-elf/lib/mno-hw-mul/libc.a(lib_a-reallocr.o)
 .text._realloc_r
                0x000000000000bdf4      0x568 /media/christoph/8A841458841448D9/space/altera_lite/15.1/nios2eds/bin/gnu/H-x86_64-pc-linux-gnu/bin/../lib/gcc/nios2-elf/4.9.2/../../../../../H-x86_64-pc-linux-gnu/nios2-elf/lib/mno-hw-mul/libc.a(lib_a-reallocr.o)
                0x000000000000bdf4                _realloc_r
 .text          0x000000000000c35c        0x0 /media/christoph/8A841458841448D9/space/altera_lite/15.1/nios2eds/bin/gnu/H-x86_64-pc-linux-gnu/bin/../lib/gcc/nios2-elf/4.9.2/../../../../../H-x86_64-pc-linux-gnu/nios2-elf/lib/mno-hw-mul/libc.a(lib_a-wbuf.o)
 .text.__swbuf_r
                0x000000000000c35c      0x138 /media/christoph/8A841458841448D9/space/altera_lite/15.1/nios2eds/bin/gnu/H-x86_64-pc-linux-gnu/bin/../lib/gcc/nios2-elf/4.9.2/../../../../../H-x86_64-pc-linux-gnu/nios2-elf/lib/mno-hw-mul/libc.a(lib_a-wbuf.o)
                0x000000000000c35c                __swbuf_r
 .text.__swbuf  0x000000000000c494       0x1c /media/christoph/8A841458841448D9/space/altera_lite/15.1/nios2eds/bin/gnu/H-x86_64-pc-linux-gnu/bin/../lib/gcc/nios2-elf/4.9.2/../../../../../H-x86_64-pc-linux-gnu/nios2-elf/lib/mno-hw-mul/libc.a(lib_a-wbuf.o)
                0x000000000000c494                __swbuf
 .text          0x000000000000c4b0        0x0 /media/christoph/8A841458841448D9/space/altera_lite/15.1/nios2eds/bin/gnu/H-x86_64-pc-linux-gnu/bin/../lib/gcc/nios2-elf/4.9.2/../../../../../H-x86_64-pc-linux-gnu/nios2-elf/lib/mno-hw-mul/libc.a(lib_a-wcrtomb.o)
 .text._wcrtomb_r
                0x000000000000c4b0       0x9c /media/christoph/8A841458841448D9/space/altera_lite/15.1/nios2eds/bin/gnu/H-x86_64-pc-linux-gnu/bin/../lib/gcc/nios2-elf/4.9.2/../../../../../H-x86_64-pc-linux-gnu/nios2-elf/lib/mno-hw-mul/libc.a(lib_a-wcrtomb.o)
                0x000000000000c4b0                _wcrtomb_r
 .text.wcrtomb  0x000000000000c54c       0xc0 /media/christoph/8A841458841448D9/space/altera_lite/15.1/nios2eds/bin/gnu/H-x86_64-pc-linux-gnu/bin/../lib/gcc/nios2-elf/4.9.2/../../../../../H-x86_64-pc-linux-gnu/nios2-elf/lib/mno-hw-mul/libc.a(lib_a-wcrtomb.o)
                0x000000000000c54c                wcrtomb
 .text          0x000000000000c60c        0x0 /media/christoph/8A841458841448D9/space/altera_lite/15.1/nios2eds/bin/gnu/H-x86_64-pc-linux-gnu/bin/../lib/gcc/nios2-elf/4.9.2/../../../../../H-x86_64-pc-linux-gnu/nios2-elf/lib/mno-hw-mul/libc.a(lib_a-wctomb_r.o)
 .text.__ascii_wctomb
                0x000000000000c60c       0x30 /media/christoph/8A841458841448D9/space/altera_lite/15.1/nios2eds/bin/gnu/H-x86_64-pc-linux-gnu/bin/../lib/gcc/nios2-elf/4.9.2/../../../../../H-x86_64-pc-linux-gnu/nios2-elf/lib/mno-hw-mul/libc.a(lib_a-wctomb_r.o)
                0x000000000000c60c                __ascii_wctomb
 .text._wctomb_r
                0x000000000000c63c       0x5c /media/christoph/8A841458841448D9/space/altera_lite/15.1/nios2eds/bin/gnu/H-x86_64-pc-linux-gnu/bin/../lib/gcc/nios2-elf/4.9.2/../../../../../H-x86_64-pc-linux-gnu/nios2-elf/lib/mno-hw-mul/libc.a(lib_a-wctomb_r.o)
                0x000000000000c63c                _wctomb_r
 .text          0x000000000000c698      0x640 /media/christoph/8A841458841448D9/space/altera_lite/15.1/nios2eds/bin/gnu/H-x86_64-pc-linux-gnu/bin/../lib/gcc/nios2-elf/4.9.2/mno-hw-mul/libgcc.a(_udivdi3.o)
                0x000000000000c698                __udivdi3
 .text          0x000000000000ccd8      0x61c /media/christoph/8A841458841448D9/space/altera_lite/15.1/nios2eds/bin/gnu/H-x86_64-pc-linux-gnu/bin/../lib/gcc/nios2-elf/4.9.2/mno-hw-mul/libgcc.a(_umoddi3.o)
                0x000000000000ccd8                __umoddi3
 .text          0x000000000000d2f4      0x89c /media/christoph/8A841458841448D9/space/altera_lite/15.1/nios2eds/bin/gnu/H-x86_64-pc-linux-gnu/bin/../lib/gcc/nios2-elf/4.9.2/mno-hw-mul/libgcc.a(adddf3.o)
                0x000000000000d2f4                __adddf3
 .text          0x000000000000db90       0x84 /media/christoph/8A841458841448D9/space/altera_lite/15.1/nios2eds/bin/gnu/H-x86_64-pc-linux-gnu/bin/../lib/gcc/nios2-elf/4.9.2/mno-hw-mul/libgcc.a(eqdf2.o)
                0x000000000000db90                __eqdf2
                0x000000000000db90                __nedf2
 .text          0x000000000000dc14       0xa4 /media/christoph/8A841458841448D9/space/altera_lite/15.1/nios2eds/bin/gnu/H-x86_64-pc-linux-gnu/bin/../lib/gcc/nios2-elf/4.9.2/mno-hw-mul/libgcc.a(floatunsidf.o)
                0x000000000000dc14                __floatunsidf
 .text          0x000000000000dcb8      0x128 ../Autonomous_Car_OS_bsp//libucosii_bsp.a(alt_close.o)
                0x000000000000dd08                close
 .text          0x000000000000dde0       0x2c ../Autonomous_Car_OS_bsp//libucosii_bsp.a(alt_dev.o)
 .text          0x000000000000de0c        0x0 ../Autonomous_Car_OS_bsp//libucosii_bsp.a(alt_errno.o)
 .text          0x000000000000de0c      0x108 ../Autonomous_Car_OS_bsp//libucosii_bsp.a(alt_fstat.o)
                0x000000000000de5c                fstat
 .text          0x000000000000df14      0x1e0 ../Autonomous_Car_OS_bsp//libucosii_bsp.a(alt_iic.o)
                0x000000000000df14                alt_ic_isr_register
                0x000000000000df64                alt_ic_irq_enable
                0x000000000000e004                alt_ic_irq_disable
                0x000000000000e0a8                alt_ic_irq_enabled
 .text          0x000000000000e0f4       0xf0 ../Autonomous_Car_OS_bsp//libucosii_bsp.a(alt_iic_isr_register.o)
                0x000000000000e0f4                alt_iic_isr_register
 .text          0x000000000000e1e4        0x0 ../Autonomous_Car_OS_bsp//libucosii_bsp.a(alt_irq_entry.o)
 .text          0x000000000000e1e4        0x0 ../Autonomous_Car_OS_bsp//libucosii_bsp.a(alt_irq_handler.o)
 .text          0x000000000000e1e4        0x0 ../Autonomous_Car_OS_bsp//libucosii_bsp.a(alt_irq_vars.o)
 .text          0x000000000000e1e4       0xfc ../Autonomous_Car_OS_bsp//libucosii_bsp.a(alt_isatty.o)
                0x000000000000e234                isatty
 .text          0x000000000000e2e0      0x12c ../Autonomous_Car_OS_bsp//libucosii_bsp.a(alt_lseek.o)
                0x000000000000e330                lseek
 .text          0x000000000000e40c       0xd4 ../Autonomous_Car_OS_bsp//libucosii_bsp.a(alt_main.o)
                0x000000000000e40c                alt_main
 .text          0x000000000000e4e0      0x154 ../Autonomous_Car_OS_bsp//libucosii_bsp.a(alt_read.o)
                0x000000000000e530                read
 .text          0x000000000000e634       0x80 ../Autonomous_Car_OS_bsp//libucosii_bsp.a(alt_release_fd.o)
                0x000000000000e634                alt_release_fd
 .text          0x000000000000e6b4       0xb0 ../Autonomous_Car_OS_bsp//libucosii_bsp.a(alt_sbrk.o)
                0x000000000000e6b4                sbrk
 .text          0x000000000000e764      0x150 ../Autonomous_Car_OS_bsp//libucosii_bsp.a(alt_write.o)
                0x000000000000e7b4                write
 .text          0x000000000000e8b4      0x11c ../Autonomous_Car_OS_bsp//libucosii_bsp.a(alt_env_lock.o)
                0x000000000000e8b4                __env_lock
                0x000000000000e974                __env_unlock
 .text          0x000000000000e9d0      0x1f0 ../Autonomous_Car_OS_bsp//libucosii_bsp.a(alt_malloc_lock.o)
                0x000000000000e9d0                __malloc_lock
                0x000000000000eaf0                __malloc_unlock
 .text          0x000000000000ebc0     0x1fe0 ../Autonomous_Car_OS_bsp//libucosii_bsp.a(os_core.o)
                0x000000000000ebc0                OSEventNameGet
                0x000000000000ece0                OSEventNameSet
                0x000000000000ee1c                OSEventPendMulti
                0x000000000000f42c                OSInit
                0x000000000000f480                OSIntEnter
                0x000000000000f4fc                OSIntExit
                0x000000000000f5f0                OSSchedLock
                0x000000000000f678                OSSchedUnlock
                0x000000000000f750                OSStart
                0x000000000000f7bc                OSStatInit
                0x000000000000f868                OSTimeTick
                0x000000000000fa84                OSVersion
                0x000000000000faa4                OS_Dummy
                0x000000000000fac0                OS_EventTaskRdy
                0x000000000000fc58                OS_EventTaskWait
                0x000000000000fd64                OS_EventTaskWaitMulti
                0x000000000000feb0                OS_EventTaskRemove
                0x000000000000ff64                OS_EventTaskRemoveMulti
                0x0000000000010060                OS_EventWaitListInit
                0x0000000000010424                OS_MemClr
                0x0000000000010474                OS_MemCopy
                0x00000000000104d8                OS_Sched
                0x0000000000010614                OS_StrCopy
                0x0000000000010688                OS_StrLen
                0x00000000000106dc                OS_TaskIdle
                0x0000000000010738                OS_TaskStat
                0x0000000000010804                OS_TaskStatStkChk
                0x00000000000108cc                OS_TCBInit
 .text          0x0000000000010ba0      0x18c ../Autonomous_Car_OS_bsp//libucosii_bsp.a(os_dbg.o)
                0x0000000000010ba0                OSDebugInit
 .text          0x0000000000010d2c     0x181c ../Autonomous_Car_OS_bsp//libucosii_bsp.a(os_flag.o)
                0x0000000000010d2c                OSFlagAccept
                0x0000000000011034                OSFlagCreate
                0x000000000001115c                OSFlagDel
                0x00000000000113cc                OSFlagNameGet
                0x00000000000114fc                OSFlagNameSet
                0x000000000001164c                OSFlagPend
                0x0000000000011c3c                OSFlagPendGetFlagsRdy
                0x0000000000011ca4                OSFlagPost
                0x000000000001202c                OSFlagQuery
                0x00000000000122b4                OS_FlagInit
                0x00000000000124a8                OS_FlagUnlink
 .text          0x0000000000012548      0x790 ../Autonomous_Car_OS_bsp//libucosii_bsp.a(os_mem.o)
                0x0000000000012548                OSMemCreate
                0x000000000001273c                OSMemGet
                0x000000000001282c                OSMemNameGet
                0x0000000000012924                OSMemNameSet
                0x0000000000012a3c                OSMemPut
                0x0000000000012b14                OSMemQuery
                0x0000000000012bfc                OS_MemInit
 .text          0x0000000000012cd8     0x1210 ../Autonomous_Car_OS_bsp//libucosii_bsp.a(os_q.o)
                0x0000000000012cd8                OSQAccept
                0x0000000000012e18                OSQCreate
                0x0000000000013014                OSQDel
                0x00000000000132dc                OSQFlush
                0x0000000000013394                OSQPend
                0x0000000000013690                OSQPendAbort
                0x00000000000137fc                OSQPost
                0x0000000000013964                OSQPostFront
                0x0000000000013ad4                OSQPostOpt
                0x0000000000013ce0                OSQQuery
                0x0000000000013e3c                OS_QInit
 .text          0x0000000000013ee8      0xb08 ../Autonomous_Car_OS_bsp//libucosii_bsp.a(os_sem.o)
                0x0000000000013ee8                OSSemAccept
                0x0000000000013f98                OSSemCreate
                0x0000000000014098                OSSemDel
                0x0000000000014300                OSSemPend
                0x0000000000014568                OSSemPendAbort
                0x00000000000146d4                OSSemPost
                0x00000000000147e4                OSSemQuery
                0x00000000000148f4                OSSemSet
 .text          0x00000000000149f0     0x18f4 ../Autonomous_Car_OS_bsp//libucosii_bsp.a(os_task.o)
                0x00000000000149f0                OSTaskChangePrio
                0x0000000000014f30                OSTaskCreate
                0x00000000000150ec                OSTaskCreateExt
                0x00000000000152d8                OSTaskDel
                0x00000000000156b8                OSTaskDelReq
                0x0000000000015810                OSTaskNameGet
                0x00000000000159b8                OSTaskNameSet
                0x0000000000015b78                OSTaskResume
                0x0000000000015d70                OSTaskStkChk
                0x0000000000015f38                OSTaskSuspend
                0x000000000001614c                OSTaskQuery
                0x0000000000016278                OS_TaskStkClr
 .text          0x00000000000162e4      0x64c ../Autonomous_Car_OS_bsp//libucosii_bsp.a(os_time.o)
                0x00000000000162e4                OSTimeDly
                0x000000000001642c                OSTimeDlyHMSM
                0x0000000000016678                OSTimeDlyResume
                0x0000000000016868                OSTimeGet
                0x00000000000168cc                OSTimeSet
 .text          0x0000000000016930      0x184 ../Autonomous_Car_OS_bsp//libucosii_bsp.a(alt_sys_init.o)
                0x0000000000016968                alt_irq_init
                0x000000000001699c                alt_sys_init
 .text          0x0000000000016ab4      0xaf8 ../Autonomous_Car_OS_bsp//libucosii_bsp.a(altera_avalon_epcs_flash_controller.o)
                0x0000000000016aec                alt_epcs_flash_init
                0x0000000000017020                alt_epcs_flash_write
                0x0000000000017280                alt_epcs_flash_get_info
                0x00000000000173a0                alt_epcs_flash_erase_block
                0x0000000000017414                alt_epcs_flash_write_block
                0x0000000000017514                alt_epcs_flash_read
 .text          0x00000000000175ac      0x164 ../Autonomous_Car_OS_bsp//libucosii_bsp.a(altera_avalon_jtag_uart_fd.o)
                0x00000000000175ac                altera_avalon_jtag_uart_read_fd
                0x000000000001760c                altera_avalon_jtag_uart_write_fd
                0x000000000001766c                altera_avalon_jtag_uart_close_fd
                0x00000000000176bc                altera_avalon_jtag_uart_ioctl_fd
 .text          0x0000000000017710      0x568 ../Autonomous_Car_OS_bsp//libucosii_bsp.a(altera_avalon_jtag_uart_init.o)
                0x0000000000017710                altera_avalon_jtag_uart_init
                0x0000000000017c10                altera_avalon_jtag_uart_close
 .text          0x0000000000017c78       0xec ../Autonomous_Car_OS_bsp//libucosii_bsp.a(altera_avalon_jtag_uart_ioctl.o)
                0x0000000000017c78                altera_avalon_jtag_uart_ioctl
 .text          0x0000000000017d64      0x2b4 ../Autonomous_Car_OS_bsp//libucosii_bsp.a(altera_avalon_jtag_uart_read.o)
                0x0000000000017d64                altera_avalon_jtag_uart_read
 .text          0x0000000000018018      0x2c0 ../Autonomous_Car_OS_bsp//libucosii_bsp.a(altera_avalon_jtag_uart_write.o)
                0x0000000000018018                altera_avalon_jtag_uart_write
 .text          0x00000000000182d8       0xfc ../Autonomous_Car_OS_bsp//libucosii_bsp.a(altera_avalon_timer_sc.o)
                0x000000000001834c                alt_avalon_timer_sc_init
 .text          0x00000000000183d4      0x110 ../Autonomous_Car_OS_bsp//libucosii_bsp.a(altera_avalon_uart_fd.o)
                0x00000000000183d4                altera_avalon_uart_read_fd
                0x0000000000018434                altera_avalon_uart_write_fd
                0x0000000000018494                altera_avalon_uart_close_fd
 .text          0x00000000000184e4      0x524 ../Autonomous_Car_OS_bsp//libucosii_bsp.a(altera_avalon_uart_init.o)
                0x00000000000184e4                altera_avalon_uart_init
                0x00000000000189b4                altera_avalon_uart_close
 .text          0x0000000000018a08      0x2b8 ../Autonomous_Car_OS_bsp//libucosii_bsp.a(altera_avalon_uart_read.o)
                0x0000000000018a58                altera_avalon_uart_read
 .text          0x0000000000018cc0      0x288 ../Autonomous_Car_OS_bsp//libucosii_bsp.a(altera_avalon_uart_write.o)
                0x0000000000018d10                altera_avalon_uart_write
 .text          0x0000000000018f48      0x62c ../Autonomous_Car_OS_bsp//libucosii_bsp.a(epcs_commands.o)
                0x0000000000018f48                epcs_read_status_register
                0x0000000000019014                epcs_sector_erase
                0x000000000001910c                epcs_read_buffer
                0x0000000000019200                epcs_write_enable
                0x0000000000019250                epcs_write_status_register
                0x00000000000192b8                epcs_write_buffer
                0x00000000000193d4                epcs_read_electronic_signature
                0x000000000001943c                epcs_read_device_id
                0x00000000000194bc                epcs_enter_4_bytes_mode
                0x0000000000019518                epcs_exit_4_bytes_mode
 .text          0x0000000000019574      0x140 ../Autonomous_Car_OS_bsp//libucosii_bsp.a(alt_alarm_start.o)
                0x0000000000019574                alt_alarm_start
 .text          0x00000000000196b4       0xf4 ../Autonomous_Car_OS_bsp//libucosii_bsp.a(alt_dev_llist_insert.o)
                0x0000000000019704                alt_dev_llist_insert
 .text          0x00000000000197a8       0x5c ../Autonomous_Car_OS_bsp//libucosii_bsp.a(alt_do_ctors.o)
                0x00000000000197a8                _do_ctors
 .text          0x0000000000019804       0x5c ../Autonomous_Car_OS_bsp//libucosii_bsp.a(alt_do_dtors.o)
                0x0000000000019804                _do_dtors
 .text          0x0000000000019860        0x0 ../Autonomous_Car_OS_bsp//libucosii_bsp.a(alt_exception_entry.o)
 .text          0x0000000000019860       0xb8 ../Autonomous_Car_OS_bsp//libucosii_bsp.a(alt_flash_dev.o)
                0x0000000000019860                alt_flash_open_dev
                0x00000000000198c8                alt_flash_close_dev
 .text          0x0000000000019918      0x158 ../Autonomous_Car_OS_bsp//libucosii_bsp.a(alt_io_redirect.o)
                0x00000000000199f8                alt_io_redirect
 .text          0x0000000000019a70      0x2a4 ../Autonomous_Car_OS_bsp//libucosii_bsp.a(alt_open.o)
                0x0000000000019bb4                open
 .text          0x0000000000019d14      0x19c ../Autonomous_Car_OS_bsp//libucosii_bsp.a(alt_tick.o)
                0x0000000000019d14                alt_alarm_stop
                0x0000000000019dac                alt_tick
 .text          0x0000000000019eb0       0x20 ../Autonomous_Car_OS_bsp//libucosii_bsp.a(altera_nios2_qsys_irq.o)
                0x0000000000019eb0                altera_nios2_qsys_irq_init
 .text          0x0000000000019ed0       0xd0 ../Autonomous_Car_OS_bsp//libucosii_bsp.a(os_cpu_a.o)
                0x0000000000019ed0                OSCtxSw
                0x0000000000019ed0                OSIntCtxSw
                0x0000000000019f5c                OSStartHighRdy
                0x0000000000019f7c                OSStartTsk
 .text          0x0000000000019fa0      0x264 ../Autonomous_Car_OS_bsp//libucosii_bsp.a(os_cpu_c.o)
                0x0000000000019fa0                OSTaskStkInit
                0x000000000001a0fc                OSTaskCreateHook
                0x000000000001a11c                OSTaskDelHook
                0x000000000001a13c                OSTaskSwHook
                0x000000000001a158                OSTaskStatHook
                0x000000000001a174                OSTimeTickHook
                0x000000000001a190                OSInitHookBegin
                0x000000000001a1ac                OSInitHookEnd
                0x000000000001a1c8                OSTaskIdleHook
                0x000000000001a1e4                OSTCBInitHook
 .text          0x000000000001a204      0x204 ../Autonomous_Car_OS_bsp//libucosii_bsp.a(altera_avalon_spi.o)
                0x000000000001a204                alt_avalon_spi_command
 .text          0x000000000001a408       0x90 ../Autonomous_Car_OS_bsp//libucosii_bsp.a(alt_find_dev.o)
                0x000000000001a408                alt_find_dev
 .text          0x000000000001a498      0x114 ../Autonomous_Car_OS_bsp//libucosii_bsp.a(alt_find_file.o)
                0x000000000001a498                alt_find_file
 .text          0x000000000001a5ac      0x114 ../Autonomous_Car_OS_bsp//libucosii_bsp.a(alt_get_fd.o)
                0x000000000001a5ac                alt_get_fd
 .text          0x000000000001a6c0        0x0 /media/christoph/8A841458841448D9/space/altera_lite/15.1/nios2eds/bin/gnu/H-x86_64-pc-linux-gnu/bin/../lib/gcc/nios2-elf/4.9.2/../../../../../H-x86_64-pc-linux-gnu/nios2-elf/lib/mno-hw-mul/libc.a(lib_a-atexit.o)
 .text.atexit   0x000000000001a6c0       0x14 /media/christoph/8A841458841448D9/space/altera_lite/15.1/nios2eds/bin/gnu/H-x86_64-pc-linux-gnu/bin/../lib/gcc/nios2-elf/4.9.2/../../../../../H-x86_64-pc-linux-gnu/nios2-elf/lib/mno-hw-mul/libc.a(lib_a-atexit.o)
                0x000000000001a6c0                atexit
 .text          0x000000000001a6d4        0x0 /media/christoph/8A841458841448D9/space/altera_lite/15.1/nios2eds/bin/gnu/H-x86_64-pc-linux-gnu/bin/../lib/gcc/nios2-elf/4.9.2/../../../../../H-x86_64-pc-linux-gnu/nios2-elf/lib/mno-hw-mul/libc.a(lib_a-exit.o)
 .text.exit     0x000000000001a6d4       0x38 /media/christoph/8A841458841448D9/space/altera_lite/15.1/nios2eds/bin/gnu/H-x86_64-pc-linux-gnu/bin/../lib/gcc/nios2-elf/4.9.2/../../../../../H-x86_64-pc-linux-gnu/nios2-elf/lib/mno-hw-mul/libc.a(lib_a-exit.o)
                0x000000000001a6d4                exit
 .text          0x000000000001a70c        0x0 /media/christoph/8A841458841448D9/space/altera_lite/15.1/nios2eds/bin/gnu/H-x86_64-pc-linux-gnu/bin/../lib/gcc/nios2-elf/4.9.2/../../../../../H-x86_64-pc-linux-gnu/nios2-elf/lib/mno-hw-mul/libc.a(lib_a-memcmp.o)
 .text.memcmp   0x000000000001a70c       0x7c /media/christoph/8A841458841448D9/space/altera_lite/15.1/nios2eds/bin/gnu/H-x86_64-pc-linux-gnu/bin/../lib/gcc/nios2-elf/4.9.2/../../../../../H-x86_64-pc-linux-gnu/nios2-elf/lib/mno-hw-mul/libc.a(lib_a-memcmp.o)
                0x000000000001a70c                memcmp
 .text          0x000000000001a788        0x0 /media/christoph/8A841458841448D9/space/altera_lite/15.1/nios2eds/bin/gnu/H-x86_64-pc-linux-gnu/bin/../lib/gcc/nios2-elf/4.9.2/../../../../../H-x86_64-pc-linux-gnu/nios2-elf/lib/mno-hw-mul/libc.a(lib_a-__atexit.o)
 .text.__register_exitproc
                0x000000000001a788      0x114 /media/christoph/8A841458841448D9/space/altera_lite/15.1/nios2eds/bin/gnu/H-x86_64-pc-linux-gnu/bin/../lib/gcc/nios2-elf/4.9.2/../../../../../H-x86_64-pc-linux-gnu/nios2-elf/lib/mno-hw-mul/libc.a(lib_a-__atexit.o)
                0x000000000001a788                __register_exitproc
 .text          0x000000000001a89c        0x0 /media/christoph/8A841458841448D9/space/altera_lite/15.1/nios2eds/bin/gnu/H-x86_64-pc-linux-gnu/bin/../lib/gcc/nios2-elf/4.9.2/../../../../../H-x86_64-pc-linux-gnu/nios2-elf/lib/mno-hw-mul/libc.a(lib_a-__call_atexit.o)
 .text.__call_exitprocs
                0x000000000001a89c      0x194 /media/christoph/8A841458841448D9/space/altera_lite/15.1/nios2eds/bin/gnu/H-x86_64-pc-linux-gnu/bin/../lib/gcc/nios2-elf/4.9.2/../../../../../H-x86_64-pc-linux-gnu/nios2-elf/lib/mno-hw-mul/libc.a(lib_a-__call_atexit.o)
                0x000000000001a89c                __call_exitprocs
 .text          0x000000000001aa30       0x3c ../Autonomous_Car_OS_bsp//libucosii_bsp.a(alt_exit.o)
                0x000000000001aa30                _exit
 *(.gnu.warning.*)
 *(.fini)
                0x000000000001aa6c                PROVIDE (__etext, ABSOLUTE (.))
                0x000000000001aa6c                PROVIDE (_etext, ABSOLUTE (.))
                0x000000000001aa6c                PROVIDE (etext, ABSOLUTE (.))
 *(.eh_frame_hdr)
                0x000000000001aa6c                . = ALIGN (0x4)
                0x000000000001aa6c                PROVIDE (__preinit_array_start, ABSOLUTE (.))
 *(.preinit_array)
                0x000000000001aa6c                PROVIDE (__preinit_array_end, ABSOLUTE (.))
                0x000000000001aa6c                PROVIDE (__init_array_start, ABSOLUTE (.))
 *(.init_array)
                0x000000000001aa6c                PROVIDE (__init_array_end, ABSOLUTE (.))
                0x000000000001aa6c                PROVIDE (__fini_array_start, ABSOLUTE (.))
 *(.fini_array)
                0x000000000001aa6c                PROVIDE (__fini_array_end, ABSOLUTE (.))
 *(.eh_frame)
 *(.gcc_except_table .gcc_except_table.*)
 *(.dynamic)
                0x000000000001aa6c                PROVIDE (__CTOR_LIST__, ABSOLUTE (.))
 *(.ctors)
 *(SORT(.ctors.*))
                0x000000000001aa6c                PROVIDE (__CTOR_END__, ABSOLUTE (.))
                0x000000000001aa6c                PROVIDE (__DTOR_LIST__, ABSOLUTE (.))
 *(.dtors)
 *(SORT(.dtors.*))
                0x000000000001aa6c                PROVIDE (__DTOR_END__, ABSOLUTE (.))
 *(.jcr)
                0x000000000001aa6c                . = ALIGN (0x4)

.rodata         0x000000000001aa6c      0x504
                0x000000000001aa6c                PROVIDE (__ram_rodata_start, ABSOLUTE (.))
                0x000000000001aa6c                . = ALIGN (0x4)
 *(.rodata .rodata.* .gnu.linkonce.r.*)
 .rodata        0x000000000001aa6c       0x18 obj/default/gps.o
 .rodata        0x000000000001aa84       0x40 obj/default/main.o
 .rodata        0x000000000001aac4      0x100 /media/christoph/8A841458841448D9/space/altera_lite/15.1/nios2eds/bin/gnu/H-x86_64-pc-linux-gnu/bin/../lib/gcc/nios2-elf/4.9.2/mno-hw-mul/libgcc.a(_clz.o)
                0x000000000001aac4                __clz_tab
 .rodata.str1.4
                0x000000000001abc4       0x42 /media/christoph/8A841458841448D9/space/altera_lite/15.1/nios2eds/bin/gnu/H-x86_64-pc-linux-gnu/bin/../lib/gcc/nios2-elf/4.9.2/../../../../../H-x86_64-pc-linux-gnu/nios2-elf/lib/mno-hw-mul/libc.a(lib_a-vfprintf.o)
                                         0x44 (size before relaxing)
 .rodata.zeroes.4255
                0x000000000001ac06       0x10 /media/christoph/8A841458841448D9/space/altera_lite/15.1/nios2eds/bin/gnu/H-x86_64-pc-linux-gnu/bin/../lib/gcc/nios2-elf/4.9.2/../../../../../H-x86_64-pc-linux-gnu/nios2-elf/lib/mno-hw-mul/libc.a(lib_a-vfprintf.o)
 .rodata.blanks.4254
                0x000000000001ac16       0x10 /media/christoph/8A841458841448D9/space/altera_lite/15.1/nios2eds/bin/gnu/H-x86_64-pc-linux-gnu/bin/../lib/gcc/nios2-elf/4.9.2/../../../../../H-x86_64-pc-linux-gnu/nios2-elf/lib/mno-hw-mul/libc.a(lib_a-vfprintf.o)
 *fill*         0x000000000001ac26        0x2 
 .rodata.str1.4
                0x000000000001ac28       0x10 /media/christoph/8A841458841448D9/space/altera_lite/15.1/nios2eds/bin/gnu/H-x86_64-pc-linux-gnu/bin/../lib/gcc/nios2-elf/4.9.2/../../../../../H-x86_64-pc-linux-gnu/nios2-elf/lib/mno-hw-mul/libc.a(lib_a-dtoa.o)
                                         0x14 (size before relaxing)
 .rodata.str1.4
                0x000000000001ac38        0x2 /media/christoph/8A841458841448D9/space/altera_lite/15.1/nios2eds/bin/gnu/H-x86_64-pc-linux-gnu/bin/../lib/gcc/nios2-elf/4.9.2/../../../../../H-x86_64-pc-linux-gnu/nios2-elf/lib/mno-hw-mul/libc.a(lib_a-impure.o)
                                          0x4 (size before relaxing)
 *fill*         0x000000000001ac3a        0x2 
 .rodata.str1.4
                0x000000000001ac3c        0xc /media/christoph/8A841458841448D9/space/altera_lite/15.1/nios2eds/bin/gnu/H-x86_64-pc-linux-gnu/bin/../lib/gcc/nios2-elf/4.9.2/../../../../../H-x86_64-pc-linux-gnu/nios2-elf/lib/mno-hw-mul/libc.a(lib_a-locale.o)
                                         0x14 (size before relaxing)
 .rodata.p05.2710
                0x000000000001ac48        0xc /media/christoph/8A841458841448D9/space/altera_lite/15.1/nios2eds/bin/gnu/H-x86_64-pc-linux-gnu/bin/../lib/gcc/nios2-elf/4.9.2/../../../../../H-x86_64-pc-linux-gnu/nios2-elf/lib/mno-hw-mul/libc.a(lib_a-mprec.o)
 .rodata.__mprec_tinytens
                0x000000000001ac54       0x28 /media/christoph/8A841458841448D9/space/altera_lite/15.1/nios2eds/bin/gnu/H-x86_64-pc-linux-gnu/bin/../lib/gcc/nios2-elf/4.9.2/../../../../../H-x86_64-pc-linux-gnu/nios2-elf/lib/mno-hw-mul/libc.a(lib_a-mprec.o)
                0x000000000001ac54                __mprec_tinytens
 .rodata.__mprec_bigtens
                0x000000000001ac7c       0x28 /media/christoph/8A841458841448D9/space/altera_lite/15.1/nios2eds/bin/gnu/H-x86_64-pc-linux-gnu/bin/../lib/gcc/nios2-elf/4.9.2/../../../../../H-x86_64-pc-linux-gnu/nios2-elf/lib/mno-hw-mul/libc.a(lib_a-mprec.o)
                0x000000000001ac7c                __mprec_bigtens
 .rodata.__mprec_tens
                0x000000000001aca4       0xc8 /media/christoph/8A841458841448D9/space/altera_lite/15.1/nios2eds/bin/gnu/H-x86_64-pc-linux-gnu/bin/../lib/gcc/nios2-elf/4.9.2/../../../../../H-x86_64-pc-linux-gnu/nios2-elf/lib/mno-hw-mul/libc.a(lib_a-mprec.o)
                0x000000000001aca4                __mprec_tens
 .rodata.str1.4
                0x0000000000000000       0x30 /media/christoph/8A841458841448D9/space/altera_lite/15.1/nios2eds/bin/gnu/H-x86_64-pc-linux-gnu/bin/../lib/gcc/nios2-elf/4.9.2/../../../../../H-x86_64-pc-linux-gnu/nios2-elf/lib/mno-hw-mul/libc.a(lib_a-vfiprintf.o)
 .rodata.zeroes.4200
                0x000000000001ad6c       0x10 /media/christoph/8A841458841448D9/space/altera_lite/15.1/nios2eds/bin/gnu/H-x86_64-pc-linux-gnu/bin/../lib/gcc/nios2-elf/4.9.2/../../../../../H-x86_64-pc-linux-gnu/nios2-elf/lib/mno-hw-mul/libc.a(lib_a-vfiprintf.o)
 .rodata.blanks.4199
                0x000000000001ad7c       0x10 /media/christoph/8A841458841448D9/space/altera_lite/15.1/nios2eds/bin/gnu/H-x86_64-pc-linux-gnu/bin/../lib/gcc/nios2-elf/4.9.2/../../../../../H-x86_64-pc-linux-gnu/nios2-elf/lib/mno-hw-mul/libc.a(lib_a-vfiprintf.o)
 .rodata        0x000000000001ad8c        0xc ../Autonomous_Car_OS_bsp//libucosii_bsp.a(alt_dev.o)
 .rodata        0x000000000001ad98       0x14 ../Autonomous_Car_OS_bsp//libucosii_bsp.a(alt_main.o)
 .rodata        0x000000000001adac      0x120 ../Autonomous_Car_OS_bsp//libucosii_bsp.a(os_core.o)
                0x000000000001adac                OSUnMapTbl
 .rodata        0x000000000001aecc       0xa0 ../Autonomous_Car_OS_bsp//libucosii_bsp.a(alt_sys_init.o)
 .rodata        0x000000000001af6c        0x4 ../Autonomous_Car_OS_bsp//libucosii_bsp.a(os_cpu_c.o)
 *(.rodata1)
                0x000000000001af70                . = ALIGN (0x4)
                0x000000000001af70                PROVIDE (__ram_rodata_end, ABSOLUTE (.))
                0x000000000001aa6c                PROVIDE (__flash_rodata_start, LOADADDR (.rodata))

.rwdata         0x000000000001af70     0x2058
                0x000000000001af70                PROVIDE (__ram_rwdata_start, ABSOLUTE (.))
                0x000000000001af70                . = ALIGN (0x4)
 *(.got.plt)
 *(.got)
 *(.data1)
 *(.data .data.* .gnu.linkonce.d.*)
 .data          0x000000000001af70        0x0 ../Autonomous_Car_OS_bsp//obj/HAL/src/crt0.o
 .data          0x000000000001af70        0x0 obj/default/communication.o
 .data          0x000000000001af70        0x0 obj/default/gps.o
 .data          0x000000000001af70        0x0 obj/default/main.o
 .data          0x000000000001af70        0x0 obj/default/motor.o
 .data          0x000000000001af70        0x0 obj/default/uart.o
 .data          0x000000000001af70        0x0 obj/default/ultrasound.o
 .data          0x000000000001af70        0x0 /media/christoph/8A841458841448D9/space/altera_lite/15.1/nios2eds/bin/gnu/H-x86_64-pc-linux-gnu/bin/../lib/gcc/nios2-elf/4.9.2/mno-hw-mul/libgcc.a(_fixunsdfsi.o)
 .data          0x000000000001af70        0x0 /media/christoph/8A841458841448D9/space/altera_lite/15.1/nios2eds/bin/gnu/H-x86_64-pc-linux-gnu/bin/../lib/gcc/nios2-elf/4.9.2/mno-hw-mul/libgcc.a(lib2-mul.o)
 .data          0x000000000001af70        0x0 /media/christoph/8A841458841448D9/space/altera_lite/15.1/nios2eds/bin/gnu/H-x86_64-pc-linux-gnu/bin/../lib/gcc/nios2-elf/4.9.2/mno-hw-mul/libgcc.a(divdf3.o)
 .data          0x000000000001af70        0x0 /media/christoph/8A841458841448D9/space/altera_lite/15.1/nios2eds/bin/gnu/H-x86_64-pc-linux-gnu/bin/../lib/gcc/nios2-elf/4.9.2/mno-hw-mul/libgcc.a(gedf2.o)
 .data          0x000000000001af70        0x0 /media/christoph/8A841458841448D9/space/altera_lite/15.1/nios2eds/bin/gnu/H-x86_64-pc-linux-gnu/bin/../lib/gcc/nios2-elf/4.9.2/mno-hw-mul/libgcc.a(ledf2.o)
 .data          0x000000000001af70        0x0 /media/christoph/8A841458841448D9/space/altera_lite/15.1/nios2eds/bin/gnu/H-x86_64-pc-linux-gnu/bin/../lib/gcc/nios2-elf/4.9.2/mno-hw-mul/libgcc.a(muldf3.o)
 .data          0x000000000001af70        0x0 /media/christoph/8A841458841448D9/space/altera_lite/15.1/nios2eds/bin/gnu/H-x86_64-pc-linux-gnu/bin/../lib/gcc/nios2-elf/4.9.2/mno-hw-mul/libgcc.a(subdf3.o)
 .data          0x000000000001af70        0x0 /media/christoph/8A841458841448D9/space/altera_lite/15.1/nios2eds/bin/gnu/H-x86_64-pc-linux-gnu/bin/../lib/gcc/nios2-elf/4.9.2/mno-hw-mul/libgcc.a(fixdfsi.o)
 .data          0x000000000001af70        0x0 /media/christoph/8A841458841448D9/space/altera_lite/15.1/nios2eds/bin/gnu/H-x86_64-pc-linux-gnu/bin/../lib/gcc/nios2-elf/4.9.2/mno-hw-mul/libgcc.a(floatsidf.o)
 .data          0x000000000001af70        0x0 /media/christoph/8A841458841448D9/space/altera_lite/15.1/nios2eds/bin/gnu/H-x86_64-pc-linux-gnu/bin/../lib/gcc/nios2-elf/4.9.2/mno-hw-mul/libgcc.a(_clzsi2.o)
 .data          0x000000000001af70        0x0 /media/christoph/8A841458841448D9/space/altera_lite/15.1/nios2eds/bin/gnu/H-x86_64-pc-linux-gnu/bin/../lib/gcc/nios2-elf/4.9.2/mno-hw-mul/libgcc.a(lib2-divmod.o)
 .data          0x000000000001af70        0x0 /media/christoph/8A841458841448D9/space/altera_lite/15.1/nios2eds/bin/gnu/H-x86_64-pc-linux-gnu/bin/../lib/gcc/nios2-elf/4.9.2/mno-hw-mul/libgcc.a(_clz.o)
 .data          0x000000000001af70        0x0 /media/christoph/8A841458841448D9/space/altera_lite/15.1/nios2eds/bin/gnu/H-x86_64-pc-linux-gnu/bin/../lib/gcc/nios2-elf/4.9.2/../../../../../H-x86_64-pc-linux-gnu/nios2-elf/lib/mno-hw-mul/libc.a(lib_a-printf.o)
 .data          0x000000000001af70        0x0 /media/christoph/8A841458841448D9/space/altera_lite/15.1/nios2eds/bin/gnu/H-x86_64-pc-linux-gnu/bin/../lib/gcc/nios2-elf/4.9.2/../../../../../H-x86_64-pc-linux-gnu/nios2-elf/lib/mno-hw-mul/libc.a(lib_a-strncmp.o)
 .data          0x000000000001af70        0x0 /media/christoph/8A841458841448D9/space/altera_lite/15.1/nios2eds/bin/gnu/H-x86_64-pc-linux-gnu/bin/../lib/gcc/nios2-elf/4.9.2/../../../../../H-x86_64-pc-linux-gnu/nios2-elf/lib/mno-hw-mul/libc.a(lib_a-strncpy.o)
 .data          0x000000000001af70        0x0 /media/christoph/8A841458841448D9/space/altera_lite/15.1/nios2eds/bin/gnu/H-x86_64-pc-linux-gnu/bin/../lib/gcc/nios2-elf/4.9.2/../../../../../H-x86_64-pc-linux-gnu/nios2-elf/lib/mno-hw-mul/libc.a(lib_a-vfprintf.o)
 .data          0x000000000001af70        0x0 /media/christoph/8A841458841448D9/space/altera_lite/15.1/nios2eds/bin/gnu/H-x86_64-pc-linux-gnu/bin/../lib/gcc/nios2-elf/4.9.2/../../../../../H-x86_64-pc-linux-gnu/nios2-elf/lib/mno-hw-mul/libc.a(lib_a-wsetup.o)
 .data          0x000000000001af70        0x0 /media/christoph/8A841458841448D9/space/altera_lite/15.1/nios2eds/bin/gnu/H-x86_64-pc-linux-gnu/bin/../lib/gcc/nios2-elf/4.9.2/../../../../../H-x86_64-pc-linux-gnu/nios2-elf/lib/mno-hw-mul/libc.a(lib_a-dtoa.o)
 .data          0x000000000001af70        0x0 /media/christoph/8A841458841448D9/space/altera_lite/15.1/nios2eds/bin/gnu/H-x86_64-pc-linux-gnu/bin/../lib/gcc/nios2-elf/4.9.2/../../../../../H-x86_64-pc-linux-gnu/nios2-elf/lib/mno-hw-mul/libc.a(lib_a-fflush.o)
 .data          0x000000000001af70        0x0 /media/christoph/8A841458841448D9/space/altera_lite/15.1/nios2eds/bin/gnu/H-x86_64-pc-linux-gnu/bin/../lib/gcc/nios2-elf/4.9.2/../../../../../H-x86_64-pc-linux-gnu/nios2-elf/lib/mno-hw-mul/libc.a(lib_a-findfp.o)
 .data          0x000000000001af70        0x0 /media/christoph/8A841458841448D9/space/altera_lite/15.1/nios2eds/bin/gnu/H-x86_64-pc-linux-gnu/bin/../lib/gcc/nios2-elf/4.9.2/../../../../../H-x86_64-pc-linux-gnu/nios2-elf/lib/mno-hw-mul/libc.a(lib_a-freer.o)
 .data          0x000000000001af70        0x0 /media/christoph/8A841458841448D9/space/altera_lite/15.1/nios2eds/bin/gnu/H-x86_64-pc-linux-gnu/bin/../lib/gcc/nios2-elf/4.9.2/../../../../../H-x86_64-pc-linux-gnu/nios2-elf/lib/mno-hw-mul/libc.a(lib_a-fwalk.o)
 .data          0x000000000001af70        0x0 /media/christoph/8A841458841448D9/space/altera_lite/15.1/nios2eds/bin/gnu/H-x86_64-pc-linux-gnu/bin/../lib/gcc/nios2-elf/4.9.2/../../../../../H-x86_64-pc-linux-gnu/nios2-elf/lib/mno-hw-mul/libc.a(lib_a-impure.o)
 .data.impure_data
                0x000000000001af70      0x424 /media/christoph/8A841458841448D9/space/altera_lite/15.1/nios2eds/bin/gnu/H-x86_64-pc-linux-gnu/bin/../lib/gcc/nios2-elf/4.9.2/../../../../../H-x86_64-pc-linux-gnu/nios2-elf/lib/mno-hw-mul/libc.a(lib_a-impure.o)
 .data          0x000000000001b394        0x0 /media/christoph/8A841458841448D9/space/altera_lite/15.1/nios2eds/bin/gnu/H-x86_64-pc-linux-gnu/bin/../lib/gcc/nios2-elf/4.9.2/../../../../../H-x86_64-pc-linux-gnu/nios2-elf/lib/mno-hw-mul/libc.a(lib_a-locale.o)
 .data.lc_message_charset
                0x000000000001b394       0x20 /media/christoph/8A841458841448D9/space/altera_lite/15.1/nios2eds/bin/gnu/H-x86_64-pc-linux-gnu/bin/../lib/gcc/nios2-elf/4.9.2/../../../../../H-x86_64-pc-linux-gnu/nios2-elf/lib/mno-hw-mul/libc.a(lib_a-locale.o)
 .data.lc_ctype_charset
                0x000000000001b3b4       0x20 /media/christoph/8A841458841448D9/space/altera_lite/15.1/nios2eds/bin/gnu/H-x86_64-pc-linux-gnu/bin/../lib/gcc/nios2-elf/4.9.2/../../../../../H-x86_64-pc-linux-gnu/nios2-elf/lib/mno-hw-mul/libc.a(lib_a-locale.o)
 .data.lconv    0x000000000001b3d4       0x38 /media/christoph/8A841458841448D9/space/altera_lite/15.1/nios2eds/bin/gnu/H-x86_64-pc-linux-gnu/bin/../lib/gcc/nios2-elf/4.9.2/../../../../../H-x86_64-pc-linux-gnu/nios2-elf/lib/mno-hw-mul/libc.a(lib_a-locale.o)
 .data          0x000000000001b40c        0x0 /media/christoph/8A841458841448D9/space/altera_lite/15.1/nios2eds/bin/gnu/H-x86_64-pc-linux-gnu/bin/../lib/gcc/nios2-elf/4.9.2/../../../../../H-x86_64-pc-linux-gnu/nios2-elf/lib/mno-hw-mul/libc.a(lib_a-makebuf.o)
 .data          0x000000000001b40c        0x0 /media/christoph/8A841458841448D9/space/altera_lite/15.1/nios2eds/bin/gnu/H-x86_64-pc-linux-gnu/bin/../lib/gcc/nios2-elf/4.9.2/../../../../../H-x86_64-pc-linux-gnu/nios2-elf/lib/mno-hw-mul/libc.a(lib_a-mallocr.o)
 .data.__malloc_av_
                0x000000000001b40c      0x408 /media/christoph/8A841458841448D9/space/altera_lite/15.1/nios2eds/bin/gnu/H-x86_64-pc-linux-gnu/bin/../lib/gcc/nios2-elf/4.9.2/../../../../../H-x86_64-pc-linux-gnu/nios2-elf/lib/mno-hw-mul/libc.a(lib_a-mallocr.o)
                0x000000000001b40c                __malloc_av_
 .data          0x000000000001b814        0x0 /media/christoph/8A841458841448D9/space/altera_lite/15.1/nios2eds/bin/gnu/H-x86_64-pc-linux-gnu/bin/../lib/gcc/nios2-elf/4.9.2/../../../../../H-x86_64-pc-linux-gnu/nios2-elf/lib/mno-hw-mul/libc.a(lib_a-memchr.o)
 .data          0x000000000001b814        0x0 /media/christoph/8A841458841448D9/space/altera_lite/15.1/nios2eds/bin/gnu/H-x86_64-pc-linux-gnu/bin/../lib/gcc/nios2-elf/4.9.2/../../../../../H-x86_64-pc-linux-gnu/nios2-elf/lib/mno-hw-mul/libc.a(lib_a-memcpy.o)
 .data          0x000000000001b814        0x0 /media/christoph/8A841458841448D9/space/altera_lite/15.1/nios2eds/bin/gnu/H-x86_64-pc-linux-gnu/bin/../lib/gcc/nios2-elf/4.9.2/../../../../../H-x86_64-pc-linux-gnu/nios2-elf/lib/mno-hw-mul/libc.a(lib_a-memset.o)
 .data          0x000000000001b814        0x0 /media/christoph/8A841458841448D9/space/altera_lite/15.1/nios2eds/bin/gnu/H-x86_64-pc-linux-gnu/bin/../lib/gcc/nios2-elf/4.9.2/../../../../../H-x86_64-pc-linux-gnu/nios2-elf/lib/mno-hw-mul/libc.a(lib_a-mprec.o)
 .data          0x000000000001b814        0x0 /media/christoph/8A841458841448D9/space/altera_lite/15.1/nios2eds/bin/gnu/H-x86_64-pc-linux-gnu/bin/../lib/gcc/nios2-elf/4.9.2/../../../../../H-x86_64-pc-linux-gnu/nios2-elf/lib/mno-hw-mul/libc.a(lib_a-s_fpclassify.o)
 .data          0x000000000001b814        0x0 /media/christoph/8A841458841448D9/space/altera_lite/15.1/nios2eds/bin/gnu/H-x86_64-pc-linux-gnu/bin/../lib/gcc/nios2-elf/4.9.2/../../../../../H-x86_64-pc-linux-gnu/nios2-elf/lib/mno-hw-mul/libc.a(lib_a-sbrkr.o)
 .data          0x000000000001b814        0x0 /media/christoph/8A841458841448D9/space/altera_lite/15.1/nios2eds/bin/gnu/H-x86_64-pc-linux-gnu/bin/../lib/gcc/nios2-elf/4.9.2/../../../../../H-x86_64-pc-linux-gnu/nios2-elf/lib/mno-hw-mul/libc.a(lib_a-stdio.o)
 .data          0x000000000001b814        0x0 /media/christoph/8A841458841448D9/space/altera_lite/15.1/nios2eds/bin/gnu/H-x86_64-pc-linux-gnu/bin/../lib/gcc/nios2-elf/4.9.2/../../../../../H-x86_64-pc-linux-gnu/nios2-elf/lib/mno-hw-mul/libc.a(lib_a-strcmp.o)
 .data          0x000000000001b814        0x0 /media/christoph/8A841458841448D9/space/altera_lite/15.1/nios2eds/bin/gnu/H-x86_64-pc-linux-gnu/bin/../lib/gcc/nios2-elf/4.9.2/../../../../../H-x86_64-pc-linux-gnu/nios2-elf/lib/mno-hw-mul/libc.a(lib_a-strlen.o)
 .data          0x000000000001b814        0x0 /media/christoph/8A841458841448D9/space/altera_lite/15.1/nios2eds/bin/gnu/H-x86_64-pc-linux-gnu/bin/../lib/gcc/nios2-elf/4.9.2/../../../../../H-x86_64-pc-linux-gnu/nios2-elf/lib/mno-hw-mul/libc.a(lib_a-vfiprintf.o)
 .data          0x000000000001b814        0x0 /media/christoph/8A841458841448D9/space/altera_lite/15.1/nios2eds/bin/gnu/H-x86_64-pc-linux-gnu/bin/../lib/gcc/nios2-elf/4.9.2/../../../../../H-x86_64-pc-linux-gnu/nios2-elf/lib/mno-hw-mul/libc.a(lib_a-writer.o)
 .data          0x000000000001b814        0x0 /media/christoph/8A841458841448D9/space/altera_lite/15.1/nios2eds/bin/gnu/H-x86_64-pc-linux-gnu/bin/../lib/gcc/nios2-elf/4.9.2/../../../../../H-x86_64-pc-linux-gnu/nios2-elf/lib/mno-hw-mul/libc.a(closer.o)
 .data          0x000000000001b814        0x0 /media/christoph/8A841458841448D9/space/altera_lite/15.1/nios2eds/bin/gnu/H-x86_64-pc-linux-gnu/bin/../lib/gcc/nios2-elf/4.9.2/../../../../../H-x86_64-pc-linux-gnu/nios2-elf/lib/mno-hw-mul/libc.a(lib_a-callocr.o)
 .data          0x000000000001b814        0x0 /media/christoph/8A841458841448D9/space/altera_lite/15.1/nios2eds/bin/gnu/H-x86_64-pc-linux-gnu/bin/../lib/gcc/nios2-elf/4.9.2/../../../../../H-x86_64-pc-linux-gnu/nios2-elf/lib/mno-hw-mul/libc.a(lib_a-fclose.o)
 .data          0x000000000001b814        0x0 /media/christoph/8A841458841448D9/space/altera_lite/15.1/nios2eds/bin/gnu/H-x86_64-pc-linux-gnu/bin/../lib/gcc/nios2-elf/4.9.2/../../../../../H-x86_64-pc-linux-gnu/nios2-elf/lib/mno-hw-mul/libc.a(lib_a-fputwc.o)
 .data          0x000000000001b814        0x0 /media/christoph/8A841458841448D9/space/altera_lite/15.1/nios2eds/bin/gnu/H-x86_64-pc-linux-gnu/bin/../lib/gcc/nios2-elf/4.9.2/../../../../../H-x86_64-pc-linux-gnu/nios2-elf/lib/mno-hw-mul/libc.a(lib_a-fstatr.o)
 .data          0x000000000001b814        0x0 /media/christoph/8A841458841448D9/space/altera_lite/15.1/nios2eds/bin/gnu/H-x86_64-pc-linux-gnu/bin/../lib/gcc/nios2-elf/4.9.2/../../../../../H-x86_64-pc-linux-gnu/nios2-elf/lib/mno-hw-mul/libc.a(lib_a-fvwrite.o)
 .data          0x000000000001b814        0x0 /media/christoph/8A841458841448D9/space/altera_lite/15.1/nios2eds/bin/gnu/H-x86_64-pc-linux-gnu/bin/../lib/gcc/nios2-elf/4.9.2/../../../../../H-x86_64-pc-linux-gnu/nios2-elf/lib/mno-hw-mul/libc.a(lib_a-int_errno.o)
 .data          0x000000000001b814        0x0 /media/christoph/8A841458841448D9/space/altera_lite/15.1/nios2eds/bin/gnu/H-x86_64-pc-linux-gnu/bin/../lib/gcc/nios2-elf/4.9.2/../../../../../H-x86_64-pc-linux-gnu/nios2-elf/lib/mno-hw-mul/libc.a(lib_a-isattyr.o)
 .data          0x000000000001b814        0x0 /media/christoph/8A841458841448D9/space/altera_lite/15.1/nios2eds/bin/gnu/H-x86_64-pc-linux-gnu/bin/../lib/gcc/nios2-elf/4.9.2/../../../../../H-x86_64-pc-linux-gnu/nios2-elf/lib/mno-hw-mul/libc.a(lib_a-lseekr.o)
 .data          0x000000000001b814        0x0 /media/christoph/8A841458841448D9/space/altera_lite/15.1/nios2eds/bin/gnu/H-x86_64-pc-linux-gnu/bin/../lib/gcc/nios2-elf/4.9.2/../../../../../H-x86_64-pc-linux-gnu/nios2-elf/lib/mno-hw-mul/libc.a(lib_a-memmove.o)
 .data          0x000000000001b814        0x0 /media/christoph/8A841458841448D9/space/altera_lite/15.1/nios2eds/bin/gnu/H-x86_64-pc-linux-gnu/bin/../lib/gcc/nios2-elf/4.9.2/../../../../../H-x86_64-pc-linux-gnu/nios2-elf/lib/mno-hw-mul/libc.a(lib_a-readr.o)
 .data          0x000000000001b814        0x0 /media/christoph/8A841458841448D9/space/altera_lite/15.1/nios2eds/bin/gnu/H-x86_64-pc-linux-gnu/bin/../lib/gcc/nios2-elf/4.9.2/../../../../../H-x86_64-pc-linux-gnu/nios2-elf/lib/mno-hw-mul/libc.a(lib_a-reallocr.o)
 .data          0x000000000001b814        0x0 /media/christoph/8A841458841448D9/space/altera_lite/15.1/nios2eds/bin/gnu/H-x86_64-pc-linux-gnu/bin/../lib/gcc/nios2-elf/4.9.2/../../../../../H-x86_64-pc-linux-gnu/nios2-elf/lib/mno-hw-mul/libc.a(lib_a-wbuf.o)
 .data          0x000000000001b814        0x0 /media/christoph/8A841458841448D9/space/altera_lite/15.1/nios2eds/bin/gnu/H-x86_64-pc-linux-gnu/bin/../lib/gcc/nios2-elf/4.9.2/../../../../../H-x86_64-pc-linux-gnu/nios2-elf/lib/mno-hw-mul/libc.a(lib_a-wcrtomb.o)
 .data          0x000000000001b814        0x0 /media/christoph/8A841458841448D9/space/altera_lite/15.1/nios2eds/bin/gnu/H-x86_64-pc-linux-gnu/bin/../lib/gcc/nios2-elf/4.9.2/../../../../../H-x86_64-pc-linux-gnu/nios2-elf/lib/mno-hw-mul/libc.a(lib_a-wctomb_r.o)
 .data          0x000000000001b814        0x0 /media/christoph/8A841458841448D9/space/altera_lite/15.1/nios2eds/bin/gnu/H-x86_64-pc-linux-gnu/bin/../lib/gcc/nios2-elf/4.9.2/mno-hw-mul/libgcc.a(_udivdi3.o)
 .data          0x000000000001b814        0x0 /media/christoph/8A841458841448D9/space/altera_lite/15.1/nios2eds/bin/gnu/H-x86_64-pc-linux-gnu/bin/../lib/gcc/nios2-elf/4.9.2/mno-hw-mul/libgcc.a(_umoddi3.o)
 .data          0x000000000001b814        0x0 /media/christoph/8A841458841448D9/space/altera_lite/15.1/nios2eds/bin/gnu/H-x86_64-pc-linux-gnu/bin/../lib/gcc/nios2-elf/4.9.2/mno-hw-mul/libgcc.a(adddf3.o)
 .data          0x000000000001b814        0x0 /media/christoph/8A841458841448D9/space/altera_lite/15.1/nios2eds/bin/gnu/H-x86_64-pc-linux-gnu/bin/../lib/gcc/nios2-elf/4.9.2/mno-hw-mul/libgcc.a(eqdf2.o)
 .data          0x000000000001b814        0x0 /media/christoph/8A841458841448D9/space/altera_lite/15.1/nios2eds/bin/gnu/H-x86_64-pc-linux-gnu/bin/../lib/gcc/nios2-elf/4.9.2/mno-hw-mul/libgcc.a(floatunsidf.o)
 .data          0x000000000001b814        0x0 ../Autonomous_Car_OS_bsp//libucosii_bsp.a(alt_close.o)
 .data          0x000000000001b814      0x1a8 ../Autonomous_Car_OS_bsp//libucosii_bsp.a(alt_dev.o)
                0x000000000001b814                alt_dev_null
                0x000000000001b83c                alt_fd_list
 .data          0x000000000001b9bc        0x0 ../Autonomous_Car_OS_bsp//libucosii_bsp.a(alt_errno.o)
 .data          0x000000000001b9bc        0x0 ../Autonomous_Car_OS_bsp//libucosii_bsp.a(alt_fstat.o)
 .data          0x000000000001b9bc        0x0 ../Autonomous_Car_OS_bsp//libucosii_bsp.a(alt_iic.o)
 .data          0x000000000001b9bc        0x0 ../Autonomous_Car_OS_bsp//libucosii_bsp.a(alt_iic_isr_register.o)
 .data          0x000000000001b9bc        0x0 ../Autonomous_Car_OS_bsp//libucosii_bsp.a(alt_irq_entry.o)
 .data          0x000000000001b9bc        0x0 ../Autonomous_Car_OS_bsp//libucosii_bsp.a(alt_irq_handler.o)
 .data          0x000000000001b9bc        0x0 ../Autonomous_Car_OS_bsp//libucosii_bsp.a(alt_irq_vars.o)
 .data          0x000000000001b9bc        0x0 ../Autonomous_Car_OS_bsp//libucosii_bsp.a(alt_isatty.o)
 .data          0x000000000001b9bc        0x0 ../Autonomous_Car_OS_bsp//libucosii_bsp.a(alt_lseek.o)
 .data          0x000000000001b9bc        0x0 ../Autonomous_Car_OS_bsp//libucosii_bsp.a(alt_main.o)
 .data          0x000000000001b9bc        0x0 ../Autonomous_Car_OS_bsp//libucosii_bsp.a(alt_read.o)
 .data          0x000000000001b9bc        0x0 ../Autonomous_Car_OS_bsp//libucosii_bsp.a(alt_release_fd.o)
 .data          0x000000000001b9bc        0x0 ../Autonomous_Car_OS_bsp//libucosii_bsp.a(alt_sbrk.o)
 .data          0x000000000001b9bc        0x0 ../Autonomous_Car_OS_bsp//libucosii_bsp.a(alt_write.o)
 .data          0x000000000001b9bc        0x0 ../Autonomous_Car_OS_bsp//libucosii_bsp.a(alt_env_lock.o)
 .data          0x000000000001b9bc        0x0 ../Autonomous_Car_OS_bsp//libucosii_bsp.a(alt_malloc_lock.o)
 .data          0x000000000001b9bc        0x0 ../Autonomous_Car_OS_bsp//libucosii_bsp.a(os_core.o)
 .data          0x000000000001b9bc        0x0 ../Autonomous_Car_OS_bsp//libucosii_bsp.a(os_dbg.o)
 .data          0x000000000001b9bc        0x0 ../Autonomous_Car_OS_bsp//libucosii_bsp.a(os_flag.o)
 .data          0x000000000001b9bc        0x0 ../Autonomous_Car_OS_bsp//libucosii_bsp.a(os_mem.o)
 .data          0x000000000001b9bc        0x0 ../Autonomous_Car_OS_bsp//libucosii_bsp.a(os_q.o)
 .data          0x000000000001b9bc        0x0 ../Autonomous_Car_OS_bsp//libucosii_bsp.a(os_sem.o)
 .data          0x000000000001b9bc        0x0 ../Autonomous_Car_OS_bsp//libucosii_bsp.a(os_task.o)
 .data          0x000000000001b9bc        0x0 ../Autonomous_Car_OS_bsp//libucosii_bsp.a(os_time.o)
 .data          0x000000000001b9bc     0x1548 ../Autonomous_Car_OS_bsp//libucosii_bsp.a(alt_sys_init.o)
 .data          0x000000000001cf04        0x0 ../Autonomous_Car_OS_bsp//libucosii_bsp.a(altera_avalon_epcs_flash_controller.o)
 .data          0x000000000001cf04        0x0 ../Autonomous_Car_OS_bsp//libucosii_bsp.a(altera_avalon_jtag_uart_fd.o)
 .data          0x000000000001cf04        0x0 ../Autonomous_Car_OS_bsp//libucosii_bsp.a(altera_avalon_jtag_uart_init.o)
 .data          0x000000000001cf04        0x0 ../Autonomous_Car_OS_bsp//libucosii_bsp.a(altera_avalon_jtag_uart_ioctl.o)
 .data          0x000000000001cf04        0x0 ../Autonomous_Car_OS_bsp//libucosii_bsp.a(altera_avalon_jtag_uart_read.o)
 .data          0x000000000001cf04        0x0 ../Autonomous_Car_OS_bsp//libucosii_bsp.a(altera_avalon_jtag_uart_write.o)
 .data          0x000000000001cf04        0x0 ../Autonomous_Car_OS_bsp//libucosii_bsp.a(altera_avalon_timer_sc.o)
 .data          0x000000000001cf04        0x0 ../Autonomous_Car_OS_bsp//libucosii_bsp.a(altera_avalon_uart_fd.o)
 .data          0x000000000001cf04        0x0 ../Autonomous_Car_OS_bsp//libucosii_bsp.a(altera_avalon_uart_init.o)
 .data          0x000000000001cf04        0x0 ../Autonomous_Car_OS_bsp//libucosii_bsp.a(altera_avalon_uart_read.o)
 .data          0x000000000001cf04        0x0 ../Autonomous_Car_OS_bsp//libucosii_bsp.a(altera_avalon_uart_write.o)
 .data          0x000000000001cf04        0x0 ../Autonomous_Car_OS_bsp//libucosii_bsp.a(epcs_commands.o)
 .data          0x000000000001cf04        0x0 ../Autonomous_Car_OS_bsp//libucosii_bsp.a(alt_alarm_start.o)
 .data          0x000000000001cf04        0x0 ../Autonomous_Car_OS_bsp//libucosii_bsp.a(alt_dev_llist_insert.o)
 .data          0x000000000001cf04        0x0 ../Autonomous_Car_OS_bsp//libucosii_bsp.a(alt_do_ctors.o)
 .data          0x000000000001cf04        0x0 ../Autonomous_Car_OS_bsp//libucosii_bsp.a(alt_do_dtors.o)
 .data          0x000000000001cf04        0x0 ../Autonomous_Car_OS_bsp//libucosii_bsp.a(alt_exception_entry.o)
 .data          0x000000000001cf04        0x0 ../Autonomous_Car_OS_bsp//libucosii_bsp.a(alt_flash_dev.o)
 .data          0x000000000001cf04        0x0 ../Autonomous_Car_OS_bsp//libucosii_bsp.a(alt_io_redirect.o)
 .data          0x000000000001cf04        0x0 ../Autonomous_Car_OS_bsp//libucosii_bsp.a(alt_open.o)
 .data          0x000000000001cf04        0x0 ../Autonomous_Car_OS_bsp//libucosii_bsp.a(alt_tick.o)
 .data          0x000000000001cf04        0x0 ../Autonomous_Car_OS_bsp//libucosii_bsp.a(altera_nios2_qsys_irq.o)
 .data          0x000000000001cf04        0x0 ../Autonomous_Car_OS_bsp//libucosii_bsp.a(os_cpu_a.o)
 .data          0x000000000001cf04        0x0 ../Autonomous_Car_OS_bsp//libucosii_bsp.a(os_cpu_c.o)
 .data          0x000000000001cf04        0x0 ../Autonomous_Car_OS_bsp//libucosii_bsp.a(altera_avalon_spi.o)
 .data          0x000000000001cf04        0x0 ../Autonomous_Car_OS_bsp//libucosii_bsp.a(alt_find_dev.o)
 .data          0x000000000001cf04        0x0 ../Autonomous_Car_OS_bsp//libucosii_bsp.a(alt_find_file.o)
 .data          0x000000000001cf04        0x0 ../Autonomous_Car_OS_bsp//libucosii_bsp.a(alt_get_fd.o)
 .data          0x000000000001cf04        0x0 /media/christoph/8A841458841448D9/space/altera_lite/15.1/nios2eds/bin/gnu/H-x86_64-pc-linux-gnu/bin/../lib/gcc/nios2-elf/4.9.2/../../../../../H-x86_64-pc-linux-gnu/nios2-elf/lib/mno-hw-mul/libc.a(lib_a-atexit.o)
 .data          0x000000000001cf04        0x0 /media/christoph/8A841458841448D9/space/altera_lite/15.1/nios2eds/bin/gnu/H-x86_64-pc-linux-gnu/bin/../lib/gcc/nios2-elf/4.9.2/../../../../../H-x86_64-pc-linux-gnu/nios2-elf/lib/mno-hw-mul/libc.a(lib_a-exit.o)
 .data          0x000000000001cf04        0x0 /media/christoph/8A841458841448D9/space/altera_lite/15.1/nios2eds/bin/gnu/H-x86_64-pc-linux-gnu/bin/../lib/gcc/nios2-elf/4.9.2/../../../../../H-x86_64-pc-linux-gnu/nios2-elf/lib/mno-hw-mul/libc.a(lib_a-memcmp.o)
 .data          0x000000000001cf04        0x0 /media/christoph/8A841458841448D9/space/altera_lite/15.1/nios2eds/bin/gnu/H-x86_64-pc-linux-gnu/bin/../lib/gcc/nios2-elf/4.9.2/../../../../../H-x86_64-pc-linux-gnu/nios2-elf/lib/mno-hw-mul/libc.a(lib_a-__atexit.o)
 .data          0x000000000001cf04        0x0 /media/christoph/8A841458841448D9/space/altera_lite/15.1/nios2eds/bin/gnu/H-x86_64-pc-linux-gnu/bin/../lib/gcc/nios2-elf/4.9.2/../../../../../H-x86_64-pc-linux-gnu/nios2-elf/lib/mno-hw-mul/libc.a(lib_a-__call_atexit.o)
 .data          0x000000000001cf04        0x0 ../Autonomous_Car_OS_bsp//libucosii_bsp.a(alt_exit.o)
                0x0000000000024f04                _gp = ABSOLUTE ((. + 0x8000))
                0x0000000000024f04                PROVIDE (gp, _gp)
 *(.rwdata .rwdata.*)
 *(.sdata .sdata.* .gnu.linkonce.s.*)
 .sdata._global_impure_ptr
                0x000000000001cf04        0x4 /media/christoph/8A841458841448D9/space/altera_lite/15.1/nios2eds/bin/gnu/H-x86_64-pc-linux-gnu/bin/../lib/gcc/nios2-elf/4.9.2/../../../../../H-x86_64-pc-linux-gnu/nios2-elf/lib/mno-hw-mul/libc.a(lib_a-impure.o)
                0x000000000001cf04                _global_impure_ptr
 .sdata._impure_ptr
                0x000000000001cf08        0x4 /media/christoph/8A841458841448D9/space/altera_lite/15.1/nios2eds/bin/gnu/H-x86_64-pc-linux-gnu/bin/../lib/gcc/nios2-elf/4.9.2/../../../../../H-x86_64-pc-linux-gnu/nios2-elf/lib/mno-hw-mul/libc.a(lib_a-impure.o)
                0x000000000001cf08                _impure_ptr
 .sdata.__mb_cur_max
                0x000000000001cf0c        0x4 /media/christoph/8A841458841448D9/space/altera_lite/15.1/nios2eds/bin/gnu/H-x86_64-pc-linux-gnu/bin/../lib/gcc/nios2-elf/4.9.2/../../../../../H-x86_64-pc-linux-gnu/nios2-elf/lib/mno-hw-mul/libc.a(lib_a-locale.o)
                0x000000000001cf0c                __mb_cur_max
 .sdata.__malloc_sbrk_base
                0x000000000001cf10        0x4 /media/christoph/8A841458841448D9/space/altera_lite/15.1/nios2eds/bin/gnu/H-x86_64-pc-linux-gnu/bin/../lib/gcc/nios2-elf/4.9.2/../../../../../H-x86_64-pc-linux-gnu/nios2-elf/lib/mno-hw-mul/libc.a(lib_a-mallocr.o)
                0x000000000001cf10                __malloc_sbrk_base
 .sdata.__malloc_trim_threshold
                0x000000000001cf14        0x4 /media/christoph/8A841458841448D9/space/altera_lite/15.1/nios2eds/bin/gnu/H-x86_64-pc-linux-gnu/bin/../lib/gcc/nios2-elf/4.9.2/../../../../../H-x86_64-pc-linux-gnu/nios2-elf/lib/mno-hw-mul/libc.a(lib_a-mallocr.o)
                0x000000000001cf14                __malloc_trim_threshold
 .sdata.__wctomb
                0x000000000001cf18        0x4 /media/christoph/8A841458841448D9/space/altera_lite/15.1/nios2eds/bin/gnu/H-x86_64-pc-linux-gnu/bin/../lib/gcc/nios2-elf/4.9.2/../../../../../H-x86_64-pc-linux-gnu/nios2-elf/lib/mno-hw-mul/libc.a(lib_a-wctomb_r.o)
                0x000000000001cf18                __wctomb
 .sdata         0x000000000001cf1c       0x14 ../Autonomous_Car_OS_bsp//libucosii_bsp.a(alt_dev.o)
                0x000000000001cf1c                alt_fs_list
                0x000000000001cf24                alt_dev_list
                0x000000000001cf2c                alt_max_fd
 .sdata         0x000000000001cf30        0x4 ../Autonomous_Car_OS_bsp//libucosii_bsp.a(alt_errno.o)
                0x000000000001cf30                alt_errno
 .sdata         0x000000000001cf34        0x4 ../Autonomous_Car_OS_bsp//libucosii_bsp.a(alt_irq_vars.o)
                0x000000000001cf34                alt_priority_mask
 .sdata         0x000000000001cf38        0x4 ../Autonomous_Car_OS_bsp//libucosii_bsp.a(alt_sbrk.o)
 .sdata         0x000000000001cf3c        0x4 ../Autonomous_Car_OS_bsp//libucosii_bsp.a(alt_env_lock.o)
 .sdata         0x000000000001cf40        0x4 ../Autonomous_Car_OS_bsp//libucosii_bsp.a(alt_malloc_lock.o)
 .sdata         0x000000000001cf44       0x74 ../Autonomous_Car_OS_bsp//libucosii_bsp.a(os_dbg.o)
                0x000000000001cf44                OSDebugEn
                0x000000000001cf48                OSEndiannessTest
                0x000000000001cf4c                OSEventEn
                0x000000000001cf4e                OSEventMax
                0x000000000001cf50                OSEventNameSize
                0x000000000001cf52                OSEventSize
                0x000000000001cf54                OSEventTblSize
                0x000000000001cf56                OSEventMultiEn
                0x000000000001cf58                OSFlagEn
                0x000000000001cf5a                OSFlagGrpSize
                0x000000000001cf5c                OSFlagNodeSize
                0x000000000001cf5e                OSFlagWidth
                0x000000000001cf60                OSFlagMax
                0x000000000001cf62                OSFlagNameSize
                0x000000000001cf64                OSLowestPrio
                0x000000000001cf66                OSMboxEn
                0x000000000001cf68                OSMemEn
                0x000000000001cf6a                OSMemMax
                0x000000000001cf6c                OSMemNameSize
                0x000000000001cf6e                OSMemSize
                0x000000000001cf70                OSMemTblSize
                0x000000000001cf72                OSMutexEn
                0x000000000001cf74                OSPtrSize
                0x000000000001cf76                OSQEn
                0x000000000001cf78                OSQMax
                0x000000000001cf7a                OSQSize
                0x000000000001cf7c                OSRdyTblSize
                0x000000000001cf7e                OSSemEn
                0x000000000001cf80                OSStkWidth
                0x000000000001cf82                OSTaskCreateEn
                0x000000000001cf84                OSTaskCreateExtEn
                0x000000000001cf86                OSTaskDelEn
                0x000000000001cf88                OSTaskIdleStkSize
                0x000000000001cf8a                OSTaskProfileEn
                0x000000000001cf8c                OSTaskMax
                0x000000000001cf8e                OSTaskNameSize
                0x000000000001cf90                OSTaskStatEn
                0x000000000001cf92                OSTaskStatStkSize
                0x000000000001cf94                OSTaskStatStkChkEn
                0x000000000001cf96                OSTaskSwHookEn
                0x000000000001cf98                OSTCBPrioTblMax
                0x000000000001cf9a                OSTCBSize
                0x000000000001cf9c                OSTicksPerSec
                0x000000000001cf9e                OSTimeTickHookEn
                0x000000000001cfa0                OSVersionNbr
                0x000000000001cfa2                OSTmrEn
                0x000000000001cfa4                OSTmrCfgMax
                0x000000000001cfa6                OSTmrCfgNameSize
                0x000000000001cfa8                OSTmrCfgWheelSize
                0x000000000001cfaa                OSTmrCfgTicksPerSec
                0x000000000001cfac                OSTmrSize
                0x000000000001cfae                OSTmrTblSize
                0x000000000001cfb0                OSTmrWheelSize
                0x000000000001cfb2                OSTmrWheelTblSize
                0x000000000001cfb4                OSDataSize
 .sdata         0x000000000001cfb8        0x8 ../Autonomous_Car_OS_bsp//libucosii_bsp.a(alt_flash_dev.o)
                0x000000000001cfb8                alt_flash_dev_list
 .sdata         0x000000000001cfc0        0x8 ../Autonomous_Car_OS_bsp//libucosii_bsp.a(alt_tick.o)
                0x000000000001cfc0                alt_alarm_list
 *(.sdata2 .sdata2.* .gnu.linkonce.s2.*)
                0x000000000001cfc8                . = ALIGN (0x4)
                0x000000000001cfc8                _edata = ABSOLUTE (.)
                0x000000000001cfc8                PROVIDE (edata, ABSOLUTE (.))
                0x000000000001cfc8                PROVIDE (__ram_rwdata_end, ABSOLUTE (.))
                0x000000000001af70                PROVIDE (__flash_rwdata_start, LOADADDR (.rwdata))

.bss            0x000000000001cfc8     0x93ec
                0x000000000001cfc8                __bss_start = ABSOLUTE (.)
                0x000000000001cfc8                PROVIDE (__sbss_start, ABSOLUTE (.))
                0x000000000001cfc8                PROVIDE (___sbss_start, ABSOLUTE (.))
 *(.dynsbss)
 *(.sbss .sbss.* .gnu.linkonce.sb.*)
 .sbss          0x000000000001cfc8        0x8 obj/default/main.o
                0x000000000001cfc8                isr_signal
                0x000000000001cfcc                isr_signal2
 .sbss._PathLocale
                0x000000000001cfd0        0x4 /media/christoph/8A841458841448D9/space/altera_lite/15.1/nios2eds/bin/gnu/H-x86_64-pc-linux-gnu/bin/../lib/gcc/nios2-elf/4.9.2/../../../../../H-x86_64-pc-linux-gnu/nios2-elf/lib/mno-hw-mul/libc.a(lib_a-locale.o)
                0x000000000001cfd0                _PathLocale
 .sbss.__mlocale_changed
                0x000000000001cfd4        0x4 /media/christoph/8A841458841448D9/space/altera_lite/15.1/nios2eds/bin/gnu/H-x86_64-pc-linux-gnu/bin/../lib/gcc/nios2-elf/4.9.2/../../../../../H-x86_64-pc-linux-gnu/nios2-elf/lib/mno-hw-mul/libc.a(lib_a-locale.o)
                0x000000000001cfd4                __mlocale_changed
 .sbss.__nlocale_changed
                0x000000000001cfd8        0x4 /media/christoph/8A841458841448D9/space/altera_lite/15.1/nios2eds/bin/gnu/H-x86_64-pc-linux-gnu/bin/../lib/gcc/nios2-elf/4.9.2/../../../../../H-x86_64-pc-linux-gnu/nios2-elf/lib/mno-hw-mul/libc.a(lib_a-locale.o)
                0x000000000001cfd8                __nlocale_changed
 .sbss.__malloc_max_total_mem
                0x000000000001cfdc        0x4 /media/christoph/8A841458841448D9/space/altera_lite/15.1/nios2eds/bin/gnu/H-x86_64-pc-linux-gnu/bin/../lib/gcc/nios2-elf/4.9.2/../../../../../H-x86_64-pc-linux-gnu/nios2-elf/lib/mno-hw-mul/libc.a(lib_a-mallocr.o)
                0x000000000001cfdc                __malloc_max_total_mem
 .sbss.__malloc_max_sbrked_mem
                0x000000000001cfe0        0x4 /media/christoph/8A841458841448D9/space/altera_lite/15.1/nios2eds/bin/gnu/H-x86_64-pc-linux-gnu/bin/../lib/gcc/nios2-elf/4.9.2/../../../../../H-x86_64-pc-linux-gnu/nios2-elf/lib/mno-hw-mul/libc.a(lib_a-mallocr.o)
                0x000000000001cfe0                __malloc_max_sbrked_mem
 .sbss.__malloc_top_pad
                0x000000000001cfe4        0x4 /media/christoph/8A841458841448D9/space/altera_lite/15.1/nios2eds/bin/gnu/H-x86_64-pc-linux-gnu/bin/../lib/gcc/nios2-elf/4.9.2/../../../../../H-x86_64-pc-linux-gnu/nios2-elf/lib/mno-hw-mul/libc.a(lib_a-mallocr.o)
                0x000000000001cfe4                __malloc_top_pad
 .sbss          0x000000000001cfe8        0x4 /media/christoph/8A841458841448D9/space/altera_lite/15.1/nios2eds/bin/gnu/H-x86_64-pc-linux-gnu/bin/../lib/gcc/nios2-elf/4.9.2/../../../../../H-x86_64-pc-linux-gnu/nios2-elf/lib/mno-hw-mul/libc.a(lib_a-int_errno.o)
                0x000000000001cfe8                errno
 .sbss          0x000000000001cfec        0x4 ../Autonomous_Car_OS_bsp//libucosii_bsp.a(alt_dev.o)
                0x000000000001cfec                alt_fd_list_lock
 .sbss          0x000000000001cff0        0x4 ../Autonomous_Car_OS_bsp//libucosii_bsp.a(alt_irq_vars.o)
                0x000000000001cff0                alt_irq_active
 .sbss          0x000000000001cff4        0xc ../Autonomous_Car_OS_bsp//libucosii_bsp.a(alt_main.o)
                0x000000000001cff4                alt_argc
                0x000000000001cff8                alt_argv
                0x000000000001cffc                alt_envp
 .sbss          0x000000000001d000        0x8 ../Autonomous_Car_OS_bsp//libucosii_bsp.a(alt_env_lock.o)
                0x000000000001d004                alt_envsem
 .sbss          0x000000000001d008        0x8 ../Autonomous_Car_OS_bsp//libucosii_bsp.a(alt_malloc_lock.o)
                0x000000000001d00c                alt_heapsem
 .sbss          0x000000000001d010       0x50 ../Autonomous_Car_OS_bsp//libucosii_bsp.a(os_core.o)
                0x000000000001d010                OSLockNesting
                0x000000000001d011                OSRunning
                0x000000000001d014                OSIdleCtr
                0x000000000001d018                OSPrioHighRdy
                0x000000000001d019                OSPrioCur
                0x000000000001d01c                OSTCBList
                0x000000000001d020                OSTickStepState
                0x000000000001d024                OSCtxSwCtr
                0x000000000001d028                OSIdleCtrMax
                0x000000000001d02c                OSTCBFreeList
                0x000000000001d030                OSCPUUsage
                0x000000000001d031                OSTaskCtr
                0x000000000001d034                OSMemFreeList
                0x000000000001d038                OSTCBHighRdy
                0x000000000001d03c                OSQFreeList
                0x000000000001d040                OSRdyGrp
                0x000000000001d041                OSRdyTbl
                0x000000000001d044                OSEventFreeList
                0x000000000001d048                OSIntNesting
                0x000000000001d04c                OSTCBCur
                0x000000000001d050                OSTime
                0x000000000001d054                OSFlagFreeList
                0x000000000001d058                OSStatRdy
                0x000000000001d05c                OSIdleCtrRun
 .sbss          0x000000000001d060        0x8 ../Autonomous_Car_OS_bsp//libucosii_bsp.a(alt_tick.o)
                0x000000000001d060                _alt_tick_rate
                0x000000000001d064                _alt_nticks
 *(.sbss2 .sbss2.* .gnu.linkonce.sb2.*)
 *(.scommon)
                0x000000000001d068                PROVIDE (__sbss_end, ABSOLUTE (.))
                0x000000000001d068                PROVIDE (___sbss_end, ABSOLUTE (.))
 *(.dynbss)
 *(.bss .bss.* .gnu.linkonce.b.*)
 .bss           0x000000000001d068        0x0 ../Autonomous_Car_OS_bsp//obj/HAL/src/crt0.o
 .bss           0x000000000001d068        0x0 obj/default/communication.o
 .bss           0x000000000001d068        0x0 obj/default/gps.o
 .bss           0x000000000001d068        0x0 obj/default/main.o
 .bss           0x000000000001d068        0x0 obj/default/motor.o
 .bss           0x000000000001d068        0x0 obj/default/uart.o
 .bss           0x000000000001d068        0x0 obj/default/ultrasound.o
 .bss           0x000000000001d068        0x0 /media/christoph/8A841458841448D9/space/altera_lite/15.1/nios2eds/bin/gnu/H-x86_64-pc-linux-gnu/bin/../lib/gcc/nios2-elf/4.9.2/mno-hw-mul/libgcc.a(_fixunsdfsi.o)
 .bss           0x000000000001d068        0x0 /media/christoph/8A841458841448D9/space/altera_lite/15.1/nios2eds/bin/gnu/H-x86_64-pc-linux-gnu/bin/../lib/gcc/nios2-elf/4.9.2/mno-hw-mul/libgcc.a(lib2-mul.o)
 .bss           0x000000000001d068        0x0 /media/christoph/8A841458841448D9/space/altera_lite/15.1/nios2eds/bin/gnu/H-x86_64-pc-linux-gnu/bin/../lib/gcc/nios2-elf/4.9.2/mno-hw-mul/libgcc.a(divdf3.o)
 .bss           0x000000000001d068        0x0 /media/christoph/8A841458841448D9/space/altera_lite/15.1/nios2eds/bin/gnu/H-x86_64-pc-linux-gnu/bin/../lib/gcc/nios2-elf/4.9.2/mno-hw-mul/libgcc.a(gedf2.o)
 .bss           0x000000000001d068        0x0 /media/christoph/8A841458841448D9/space/altera_lite/15.1/nios2eds/bin/gnu/H-x86_64-pc-linux-gnu/bin/../lib/gcc/nios2-elf/4.9.2/mno-hw-mul/libgcc.a(ledf2.o)
 .bss           0x000000000001d068        0x0 /media/christoph/8A841458841448D9/space/altera_lite/15.1/nios2eds/bin/gnu/H-x86_64-pc-linux-gnu/bin/../lib/gcc/nios2-elf/4.9.2/mno-hw-mul/libgcc.a(muldf3.o)
 .bss           0x000000000001d068        0x0 /media/christoph/8A841458841448D9/space/altera_lite/15.1/nios2eds/bin/gnu/H-x86_64-pc-linux-gnu/bin/../lib/gcc/nios2-elf/4.9.2/mno-hw-mul/libgcc.a(subdf3.o)
 .bss           0x000000000001d068        0x0 /media/christoph/8A841458841448D9/space/altera_lite/15.1/nios2eds/bin/gnu/H-x86_64-pc-linux-gnu/bin/../lib/gcc/nios2-elf/4.9.2/mno-hw-mul/libgcc.a(fixdfsi.o)
 .bss           0x000000000001d068        0x0 /media/christoph/8A841458841448D9/space/altera_lite/15.1/nios2eds/bin/gnu/H-x86_64-pc-linux-gnu/bin/../lib/gcc/nios2-elf/4.9.2/mno-hw-mul/libgcc.a(floatsidf.o)
 .bss           0x000000000001d068        0x0 /media/christoph/8A841458841448D9/space/altera_lite/15.1/nios2eds/bin/gnu/H-x86_64-pc-linux-gnu/bin/../lib/gcc/nios2-elf/4.9.2/mno-hw-mul/libgcc.a(_clzsi2.o)
 .bss           0x000000000001d068        0x0 /media/christoph/8A841458841448D9/space/altera_lite/15.1/nios2eds/bin/gnu/H-x86_64-pc-linux-gnu/bin/../lib/gcc/nios2-elf/4.9.2/mno-hw-mul/libgcc.a(lib2-divmod.o)
 .bss           0x000000000001d068        0x0 /media/christoph/8A841458841448D9/space/altera_lite/15.1/nios2eds/bin/gnu/H-x86_64-pc-linux-gnu/bin/../lib/gcc/nios2-elf/4.9.2/mno-hw-mul/libgcc.a(_clz.o)
 .bss           0x000000000001d068        0x0 /media/christoph/8A841458841448D9/space/altera_lite/15.1/nios2eds/bin/gnu/H-x86_64-pc-linux-gnu/bin/../lib/gcc/nios2-elf/4.9.2/../../../../../H-x86_64-pc-linux-gnu/nios2-elf/lib/mno-hw-mul/libc.a(lib_a-printf.o)
 .bss           0x000000000001d068        0x0 /media/christoph/8A841458841448D9/space/altera_lite/15.1/nios2eds/bin/gnu/H-x86_64-pc-linux-gnu/bin/../lib/gcc/nios2-elf/4.9.2/../../../../../H-x86_64-pc-linux-gnu/nios2-elf/lib/mno-hw-mul/libc.a(lib_a-strncmp.o)
 .bss           0x000000000001d068        0x0 /media/christoph/8A841458841448D9/space/altera_lite/15.1/nios2eds/bin/gnu/H-x86_64-pc-linux-gnu/bin/../lib/gcc/nios2-elf/4.9.2/../../../../../H-x86_64-pc-linux-gnu/nios2-elf/lib/mno-hw-mul/libc.a(lib_a-strncpy.o)
 .bss           0x000000000001d068        0x0 /media/christoph/8A841458841448D9/space/altera_lite/15.1/nios2eds/bin/gnu/H-x86_64-pc-linux-gnu/bin/../lib/gcc/nios2-elf/4.9.2/../../../../../H-x86_64-pc-linux-gnu/nios2-elf/lib/mno-hw-mul/libc.a(lib_a-vfprintf.o)
 .bss           0x000000000001d068        0x0 /media/christoph/8A841458841448D9/space/altera_lite/15.1/nios2eds/bin/gnu/H-x86_64-pc-linux-gnu/bin/../lib/gcc/nios2-elf/4.9.2/../../../../../H-x86_64-pc-linux-gnu/nios2-elf/lib/mno-hw-mul/libc.a(lib_a-wsetup.o)
 .bss           0x000000000001d068        0x0 /media/christoph/8A841458841448D9/space/altera_lite/15.1/nios2eds/bin/gnu/H-x86_64-pc-linux-gnu/bin/../lib/gcc/nios2-elf/4.9.2/../../../../../H-x86_64-pc-linux-gnu/nios2-elf/lib/mno-hw-mul/libc.a(lib_a-dtoa.o)
 .bss           0x000000000001d068        0x0 /media/christoph/8A841458841448D9/space/altera_lite/15.1/nios2eds/bin/gnu/H-x86_64-pc-linux-gnu/bin/../lib/gcc/nios2-elf/4.9.2/../../../../../H-x86_64-pc-linux-gnu/nios2-elf/lib/mno-hw-mul/libc.a(lib_a-fflush.o)
 .bss           0x000000000001d068        0x0 /media/christoph/8A841458841448D9/space/altera_lite/15.1/nios2eds/bin/gnu/H-x86_64-pc-linux-gnu/bin/../lib/gcc/nios2-elf/4.9.2/../../../../../H-x86_64-pc-linux-gnu/nios2-elf/lib/mno-hw-mul/libc.a(lib_a-findfp.o)
 .bss           0x000000000001d068        0x0 /media/christoph/8A841458841448D9/space/altera_lite/15.1/nios2eds/bin/gnu/H-x86_64-pc-linux-gnu/bin/../lib/gcc/nios2-elf/4.9.2/../../../../../H-x86_64-pc-linux-gnu/nios2-elf/lib/mno-hw-mul/libc.a(lib_a-freer.o)
 .bss           0x000000000001d068        0x0 /media/christoph/8A841458841448D9/space/altera_lite/15.1/nios2eds/bin/gnu/H-x86_64-pc-linux-gnu/bin/../lib/gcc/nios2-elf/4.9.2/../../../../../H-x86_64-pc-linux-gnu/nios2-elf/lib/mno-hw-mul/libc.a(lib_a-fwalk.o)
 .bss           0x000000000001d068        0x0 /media/christoph/8A841458841448D9/space/altera_lite/15.1/nios2eds/bin/gnu/H-x86_64-pc-linux-gnu/bin/../lib/gcc/nios2-elf/4.9.2/../../../../../H-x86_64-pc-linux-gnu/nios2-elf/lib/mno-hw-mul/libc.a(lib_a-impure.o)
 .bss           0x000000000001d068        0x0 /media/christoph/8A841458841448D9/space/altera_lite/15.1/nios2eds/bin/gnu/H-x86_64-pc-linux-gnu/bin/../lib/gcc/nios2-elf/4.9.2/../../../../../H-x86_64-pc-linux-gnu/nios2-elf/lib/mno-hw-mul/libc.a(lib_a-locale.o)
 .bss           0x000000000001d068        0x0 /media/christoph/8A841458841448D9/space/altera_lite/15.1/nios2eds/bin/gnu/H-x86_64-pc-linux-gnu/bin/../lib/gcc/nios2-elf/4.9.2/../../../../../H-x86_64-pc-linux-gnu/nios2-elf/lib/mno-hw-mul/libc.a(lib_a-makebuf.o)
 .bss           0x000000000001d068        0x0 /media/christoph/8A841458841448D9/space/altera_lite/15.1/nios2eds/bin/gnu/H-x86_64-pc-linux-gnu/bin/../lib/gcc/nios2-elf/4.9.2/../../../../../H-x86_64-pc-linux-gnu/nios2-elf/lib/mno-hw-mul/libc.a(lib_a-mallocr.o)
 .bss.__malloc_current_mallinfo
                0x000000000001d068       0x28 /media/christoph/8A841458841448D9/space/altera_lite/15.1/nios2eds/bin/gnu/H-x86_64-pc-linux-gnu/bin/../lib/gcc/nios2-elf/4.9.2/../../../../../H-x86_64-pc-linux-gnu/nios2-elf/lib/mno-hw-mul/libc.a(lib_a-mallocr.o)
                0x000000000001d068                __malloc_current_mallinfo
 .bss           0x000000000001d090        0x0 /media/christoph/8A841458841448D9/space/altera_lite/15.1/nios2eds/bin/gnu/H-x86_64-pc-linux-gnu/bin/../lib/gcc/nios2-elf/4.9.2/../../../../../H-x86_64-pc-linux-gnu/nios2-elf/lib/mno-hw-mul/libc.a(lib_a-memchr.o)
 .bss           0x000000000001d090        0x0 /media/christoph/8A841458841448D9/space/altera_lite/15.1/nios2eds/bin/gnu/H-x86_64-pc-linux-gnu/bin/../lib/gcc/nios2-elf/4.9.2/../../../../../H-x86_64-pc-linux-gnu/nios2-elf/lib/mno-hw-mul/libc.a(lib_a-memcpy.o)
 .bss           0x000000000001d090        0x0 /media/christoph/8A841458841448D9/space/altera_lite/15.1/nios2eds/bin/gnu/H-x86_64-pc-linux-gnu/bin/../lib/gcc/nios2-elf/4.9.2/../../../../../H-x86_64-pc-linux-gnu/nios2-elf/lib/mno-hw-mul/libc.a(lib_a-memset.o)
 .bss           0x000000000001d090        0x0 /media/christoph/8A841458841448D9/space/altera_lite/15.1/nios2eds/bin/gnu/H-x86_64-pc-linux-gnu/bin/../lib/gcc/nios2-elf/4.9.2/../../../../../H-x86_64-pc-linux-gnu/nios2-elf/lib/mno-hw-mul/libc.a(lib_a-mprec.o)
 .bss           0x000000000001d090        0x0 /media/christoph/8A841458841448D9/space/altera_lite/15.1/nios2eds/bin/gnu/H-x86_64-pc-linux-gnu/bin/../lib/gcc/nios2-elf/4.9.2/../../../../../H-x86_64-pc-linux-gnu/nios2-elf/lib/mno-hw-mul/libc.a(lib_a-s_fpclassify.o)
 .bss           0x000000000001d090        0x0 /media/christoph/8A841458841448D9/space/altera_lite/15.1/nios2eds/bin/gnu/H-x86_64-pc-linux-gnu/bin/../lib/gcc/nios2-elf/4.9.2/../../../../../H-x86_64-pc-linux-gnu/nios2-elf/lib/mno-hw-mul/libc.a(lib_a-sbrkr.o)
 .bss           0x000000000001d090        0x0 /media/christoph/8A841458841448D9/space/altera_lite/15.1/nios2eds/bin/gnu/H-x86_64-pc-linux-gnu/bin/../lib/gcc/nios2-elf/4.9.2/../../../../../H-x86_64-pc-linux-gnu/nios2-elf/lib/mno-hw-mul/libc.a(lib_a-stdio.o)
 .bss           0x000000000001d090        0x0 /media/christoph/8A841458841448D9/space/altera_lite/15.1/nios2eds/bin/gnu/H-x86_64-pc-linux-gnu/bin/../lib/gcc/nios2-elf/4.9.2/../../../../../H-x86_64-pc-linux-gnu/nios2-elf/lib/mno-hw-mul/libc.a(lib_a-strcmp.o)
 .bss           0x000000000001d090        0x0 /media/christoph/8A841458841448D9/space/altera_lite/15.1/nios2eds/bin/gnu/H-x86_64-pc-linux-gnu/bin/../lib/gcc/nios2-elf/4.9.2/../../../../../H-x86_64-pc-linux-gnu/nios2-elf/lib/mno-hw-mul/libc.a(lib_a-strlen.o)
 .bss           0x000000000001d090        0x0 /media/christoph/8A841458841448D9/space/altera_lite/15.1/nios2eds/bin/gnu/H-x86_64-pc-linux-gnu/bin/../lib/gcc/nios2-elf/4.9.2/../../../../../H-x86_64-pc-linux-gnu/nios2-elf/lib/mno-hw-mul/libc.a(lib_a-vfiprintf.o)
 .bss           0x000000000001d090        0x0 /media/christoph/8A841458841448D9/space/altera_lite/15.1/nios2eds/bin/gnu/H-x86_64-pc-linux-gnu/bin/../lib/gcc/nios2-elf/4.9.2/../../../../../H-x86_64-pc-linux-gnu/nios2-elf/lib/mno-hw-mul/libc.a(lib_a-writer.o)
 .bss           0x000000000001d090        0x0 /media/christoph/8A841458841448D9/space/altera_lite/15.1/nios2eds/bin/gnu/H-x86_64-pc-linux-gnu/bin/../lib/gcc/nios2-elf/4.9.2/../../../../../H-x86_64-pc-linux-gnu/nios2-elf/lib/mno-hw-mul/libc.a(closer.o)
 .bss           0x000000000001d090        0x0 /media/christoph/8A841458841448D9/space/altera_lite/15.1/nios2eds/bin/gnu/H-x86_64-pc-linux-gnu/bin/../lib/gcc/nios2-elf/4.9.2/../../../../../H-x86_64-pc-linux-gnu/nios2-elf/lib/mno-hw-mul/libc.a(lib_a-callocr.o)
 .bss           0x000000000001d090        0x0 /media/christoph/8A841458841448D9/space/altera_lite/15.1/nios2eds/bin/gnu/H-x86_64-pc-linux-gnu/bin/../lib/gcc/nios2-elf/4.9.2/../../../../../H-x86_64-pc-linux-gnu/nios2-elf/lib/mno-hw-mul/libc.a(lib_a-fclose.o)
 .bss           0x000000000001d090        0x0 /media/christoph/8A841458841448D9/space/altera_lite/15.1/nios2eds/bin/gnu/H-x86_64-pc-linux-gnu/bin/../lib/gcc/nios2-elf/4.9.2/../../../../../H-x86_64-pc-linux-gnu/nios2-elf/lib/mno-hw-mul/libc.a(lib_a-fputwc.o)
 .bss           0x000000000001d090        0x0 /media/christoph/8A841458841448D9/space/altera_lite/15.1/nios2eds/bin/gnu/H-x86_64-pc-linux-gnu/bin/../lib/gcc/nios2-elf/4.9.2/../../../../../H-x86_64-pc-linux-gnu/nios2-elf/lib/mno-hw-mul/libc.a(lib_a-fstatr.o)
 .bss           0x000000000001d090        0x0 /media/christoph/8A841458841448D9/space/altera_lite/15.1/nios2eds/bin/gnu/H-x86_64-pc-linux-gnu/bin/../lib/gcc/nios2-elf/4.9.2/../../../../../H-x86_64-pc-linux-gnu/nios2-elf/lib/mno-hw-mul/libc.a(lib_a-fvwrite.o)
 .bss           0x000000000001d090        0x0 /media/christoph/8A841458841448D9/space/altera_lite/15.1/nios2eds/bin/gnu/H-x86_64-pc-linux-gnu/bin/../lib/gcc/nios2-elf/4.9.2/../../../../../H-x86_64-pc-linux-gnu/nios2-elf/lib/mno-hw-mul/libc.a(lib_a-int_errno.o)
 .bss           0x000000000001d090        0x0 /media/christoph/8A841458841448D9/space/altera_lite/15.1/nios2eds/bin/gnu/H-x86_64-pc-linux-gnu/bin/../lib/gcc/nios2-elf/4.9.2/../../../../../H-x86_64-pc-linux-gnu/nios2-elf/lib/mno-hw-mul/libc.a(lib_a-isattyr.o)
 .bss           0x000000000001d090        0x0 /media/christoph/8A841458841448D9/space/altera_lite/15.1/nios2eds/bin/gnu/H-x86_64-pc-linux-gnu/bin/../lib/gcc/nios2-elf/4.9.2/../../../../../H-x86_64-pc-linux-gnu/nios2-elf/lib/mno-hw-mul/libc.a(lib_a-lseekr.o)
 .bss           0x000000000001d090        0x0 /media/christoph/8A841458841448D9/space/altera_lite/15.1/nios2eds/bin/gnu/H-x86_64-pc-linux-gnu/bin/../lib/gcc/nios2-elf/4.9.2/../../../../../H-x86_64-pc-linux-gnu/nios2-elf/lib/mno-hw-mul/libc.a(lib_a-memmove.o)
 .bss           0x000000000001d090        0x0 /media/christoph/8A841458841448D9/space/altera_lite/15.1/nios2eds/bin/gnu/H-x86_64-pc-linux-gnu/bin/../lib/gcc/nios2-elf/4.9.2/../../../../../H-x86_64-pc-linux-gnu/nios2-elf/lib/mno-hw-mul/libc.a(lib_a-readr.o)
 .bss           0x000000000001d090        0x0 /media/christoph/8A841458841448D9/space/altera_lite/15.1/nios2eds/bin/gnu/H-x86_64-pc-linux-gnu/bin/../lib/gcc/nios2-elf/4.9.2/../../../../../H-x86_64-pc-linux-gnu/nios2-elf/lib/mno-hw-mul/libc.a(lib_a-reallocr.o)
 .bss           0x000000000001d090        0x0 /media/christoph/8A841458841448D9/space/altera_lite/15.1/nios2eds/bin/gnu/H-x86_64-pc-linux-gnu/bin/../lib/gcc/nios2-elf/4.9.2/../../../../../H-x86_64-pc-linux-gnu/nios2-elf/lib/mno-hw-mul/libc.a(lib_a-wbuf.o)
 .bss           0x000000000001d090        0x0 /media/christoph/8A841458841448D9/space/altera_lite/15.1/nios2eds/bin/gnu/H-x86_64-pc-linux-gnu/bin/../lib/gcc/nios2-elf/4.9.2/../../../../../H-x86_64-pc-linux-gnu/nios2-elf/lib/mno-hw-mul/libc.a(lib_a-wcrtomb.o)
 .bss           0x000000000001d090        0x0 /media/christoph/8A841458841448D9/space/altera_lite/15.1/nios2eds/bin/gnu/H-x86_64-pc-linux-gnu/bin/../lib/gcc/nios2-elf/4.9.2/../../../../../H-x86_64-pc-linux-gnu/nios2-elf/lib/mno-hw-mul/libc.a(lib_a-wctomb_r.o)
 .bss           0x000000000001d090        0x0 /media/christoph/8A841458841448D9/space/altera_lite/15.1/nios2eds/bin/gnu/H-x86_64-pc-linux-gnu/bin/../lib/gcc/nios2-elf/4.9.2/mno-hw-mul/libgcc.a(_udivdi3.o)
 .bss           0x000000000001d090        0x0 /media/christoph/8A841458841448D9/space/altera_lite/15.1/nios2eds/bin/gnu/H-x86_64-pc-linux-gnu/bin/../lib/gcc/nios2-elf/4.9.2/mno-hw-mul/libgcc.a(_umoddi3.o)
 .bss           0x000000000001d090        0x0 /media/christoph/8A841458841448D9/space/altera_lite/15.1/nios2eds/bin/gnu/H-x86_64-pc-linux-gnu/bin/../lib/gcc/nios2-elf/4.9.2/mno-hw-mul/libgcc.a(adddf3.o)
 .bss           0x000000000001d090        0x0 /media/christoph/8A841458841448D9/space/altera_lite/15.1/nios2eds/bin/gnu/H-x86_64-pc-linux-gnu/bin/../lib/gcc/nios2-elf/4.9.2/mno-hw-mul/libgcc.a(eqdf2.o)
 .bss           0x000000000001d090        0x0 /media/christoph/8A841458841448D9/space/altera_lite/15.1/nios2eds/bin/gnu/H-x86_64-pc-linux-gnu/bin/../lib/gcc/nios2-elf/4.9.2/mno-hw-mul/libgcc.a(floatunsidf.o)
 .bss           0x000000000001d090        0x0 ../Autonomous_Car_OS_bsp//libucosii_bsp.a(alt_close.o)
 .bss           0x000000000001d090        0x0 ../Autonomous_Car_OS_bsp//libucosii_bsp.a(alt_dev.o)
 .bss           0x000000000001d090        0x0 ../Autonomous_Car_OS_bsp//libucosii_bsp.a(alt_errno.o)
 .bss           0x000000000001d090        0x0 ../Autonomous_Car_OS_bsp//libucosii_bsp.a(alt_fstat.o)
 .bss           0x000000000001d090        0x0 ../Autonomous_Car_OS_bsp//libucosii_bsp.a(alt_iic.o)
 .bss           0x000000000001d090        0x0 ../Autonomous_Car_OS_bsp//libucosii_bsp.a(alt_iic_isr_register.o)
 .bss           0x000000000001d090        0x0 ../Autonomous_Car_OS_bsp//libucosii_bsp.a(alt_irq_entry.o)
 .bss           0x000000000001d090        0x0 ../Autonomous_Car_OS_bsp//libucosii_bsp.a(alt_irq_handler.o)
 .bss           0x000000000001d090        0x0 ../Autonomous_Car_OS_bsp//libucosii_bsp.a(alt_irq_vars.o)
 .bss           0x000000000001d090        0x0 ../Autonomous_Car_OS_bsp//libucosii_bsp.a(alt_isatty.o)
 .bss           0x000000000001d090        0x0 ../Autonomous_Car_OS_bsp//libucosii_bsp.a(alt_lseek.o)
 .bss           0x000000000001d090        0x0 ../Autonomous_Car_OS_bsp//libucosii_bsp.a(alt_main.o)
 .bss           0x000000000001d090        0x0 ../Autonomous_Car_OS_bsp//libucosii_bsp.a(alt_read.o)
 .bss           0x000000000001d090        0x0 ../Autonomous_Car_OS_bsp//libucosii_bsp.a(alt_release_fd.o)
 .bss           0x000000000001d090        0x0 ../Autonomous_Car_OS_bsp//libucosii_bsp.a(alt_sbrk.o)
 .bss           0x000000000001d090        0x0 ../Autonomous_Car_OS_bsp//libucosii_bsp.a(alt_write.o)
 .bss           0x000000000001d090        0x0 ../Autonomous_Car_OS_bsp//libucosii_bsp.a(alt_env_lock.o)
 .bss           0x000000000001d090        0x0 ../Autonomous_Car_OS_bsp//libucosii_bsp.a(alt_malloc_lock.o)
 .bss           0x000000000001d090        0x0 ../Autonomous_Car_OS_bsp//libucosii_bsp.a(os_core.o)
 .bss           0x000000000001d090        0x0 ../Autonomous_Car_OS_bsp//libucosii_bsp.a(os_dbg.o)
 .bss           0x000000000001d090        0x0 ../Autonomous_Car_OS_bsp//libucosii_bsp.a(os_flag.o)
 .bss           0x000000000001d090        0x0 ../Autonomous_Car_OS_bsp//libucosii_bsp.a(os_mem.o)
 .bss           0x000000000001d090        0x0 ../Autonomous_Car_OS_bsp//libucosii_bsp.a(os_q.o)
 .bss           0x000000000001d090        0x0 ../Autonomous_Car_OS_bsp//libucosii_bsp.a(os_sem.o)
 .bss           0x000000000001d090        0x0 ../Autonomous_Car_OS_bsp//libucosii_bsp.a(os_task.o)
 .bss           0x000000000001d090        0x0 ../Autonomous_Car_OS_bsp//libucosii_bsp.a(os_time.o)
 .bss           0x000000000001d090        0x0 ../Autonomous_Car_OS_bsp//libucosii_bsp.a(alt_sys_init.o)
 .bss           0x000000000001d090        0x0 ../Autonomous_Car_OS_bsp//libucosii_bsp.a(altera_avalon_epcs_flash_controller.o)
 .bss           0x000000000001d090        0x0 ../Autonomous_Car_OS_bsp//libucosii_bsp.a(altera_avalon_jtag_uart_fd.o)
 .bss           0x000000000001d090        0x0 ../Autonomous_Car_OS_bsp//libucosii_bsp.a(altera_avalon_jtag_uart_init.o)
 .bss           0x000000000001d090        0x0 ../Autonomous_Car_OS_bsp//libucosii_bsp.a(altera_avalon_jtag_uart_ioctl.o)
 .bss           0x000000000001d090        0x0 ../Autonomous_Car_OS_bsp//libucosii_bsp.a(altera_avalon_jtag_uart_read.o)
 .bss           0x000000000001d090        0x0 ../Autonomous_Car_OS_bsp//libucosii_bsp.a(altera_avalon_jtag_uart_write.o)
 .bss           0x000000000001d090        0x0 ../Autonomous_Car_OS_bsp//libucosii_bsp.a(altera_avalon_timer_sc.o)
 .bss           0x000000000001d090        0x0 ../Autonomous_Car_OS_bsp//libucosii_bsp.a(altera_avalon_uart_fd.o)
 .bss           0x000000000001d090        0x0 ../Autonomous_Car_OS_bsp//libucosii_bsp.a(altera_avalon_uart_init.o)
 .bss           0x000000000001d090        0x0 ../Autonomous_Car_OS_bsp//libucosii_bsp.a(altera_avalon_uart_read.o)
 .bss           0x000000000001d090        0x0 ../Autonomous_Car_OS_bsp//libucosii_bsp.a(altera_avalon_uart_write.o)
 .bss           0x000000000001d090        0x0 ../Autonomous_Car_OS_bsp//libucosii_bsp.a(epcs_commands.o)
 .bss           0x000000000001d090        0x0 ../Autonomous_Car_OS_bsp//libucosii_bsp.a(alt_alarm_start.o)
 .bss           0x000000000001d090        0x0 ../Autonomous_Car_OS_bsp//libucosii_bsp.a(alt_dev_llist_insert.o)
 .bss           0x000000000001d090        0x0 ../Autonomous_Car_OS_bsp//libucosii_bsp.a(alt_do_ctors.o)
 .bss           0x000000000001d090        0x0 ../Autonomous_Car_OS_bsp//libucosii_bsp.a(alt_do_dtors.o)
 .bss           0x000000000001d090        0x0 ../Autonomous_Car_OS_bsp//libucosii_bsp.a(alt_exception_entry.o)
 .bss           0x000000000001d090        0x0 ../Autonomous_Car_OS_bsp//libucosii_bsp.a(alt_flash_dev.o)
 .bss           0x000000000001d090        0x0 ../Autonomous_Car_OS_bsp//libucosii_bsp.a(alt_io_redirect.o)
 .bss           0x000000000001d090        0x0 ../Autonomous_Car_OS_bsp//libucosii_bsp.a(alt_open.o)
 .bss           0x000000000001d090        0x0 ../Autonomous_Car_OS_bsp//libucosii_bsp.a(alt_tick.o)
 .bss           0x000000000001d090        0x0 ../Autonomous_Car_OS_bsp//libucosii_bsp.a(altera_nios2_qsys_irq.o)
 .bss           0x000000000001d090        0x0 ../Autonomous_Car_OS_bsp//libucosii_bsp.a(os_cpu_a.o)
 .bss           0x000000000001d090        0x0 ../Autonomous_Car_OS_bsp//libucosii_bsp.a(os_cpu_c.o)
 .bss           0x000000000001d090        0x0 ../Autonomous_Car_OS_bsp//libucosii_bsp.a(altera_avalon_spi.o)
 .bss           0x000000000001d090        0x0 ../Autonomous_Car_OS_bsp//libucosii_bsp.a(alt_find_dev.o)
 .bss           0x000000000001d090        0x0 ../Autonomous_Car_OS_bsp//libucosii_bsp.a(alt_find_file.o)
 .bss           0x000000000001d090        0x0 ../Autonomous_Car_OS_bsp//libucosii_bsp.a(alt_get_fd.o)
 .bss           0x000000000001d090        0x0 /media/christoph/8A841458841448D9/space/altera_lite/15.1/nios2eds/bin/gnu/H-x86_64-pc-linux-gnu/bin/../lib/gcc/nios2-elf/4.9.2/../../../../../H-x86_64-pc-linux-gnu/nios2-elf/lib/mno-hw-mul/libc.a(lib_a-atexit.o)
 .bss           0x000000000001d090        0x0 /media/christoph/8A841458841448D9/space/altera_lite/15.1/nios2eds/bin/gnu/H-x86_64-pc-linux-gnu/bin/../lib/gcc/nios2-elf/4.9.2/../../../../../H-x86_64-pc-linux-gnu/nios2-elf/lib/mno-hw-mul/libc.a(lib_a-exit.o)
 .bss           0x000000000001d090        0x0 /media/christoph/8A841458841448D9/space/altera_lite/15.1/nios2eds/bin/gnu/H-x86_64-pc-linux-gnu/bin/../lib/gcc/nios2-elf/4.9.2/../../../../../H-x86_64-pc-linux-gnu/nios2-elf/lib/mno-hw-mul/libc.a(lib_a-memcmp.o)
 .bss           0x000000000001d090        0x0 /media/christoph/8A841458841448D9/space/altera_lite/15.1/nios2eds/bin/gnu/H-x86_64-pc-linux-gnu/bin/../lib/gcc/nios2-elf/4.9.2/../../../../../H-x86_64-pc-linux-gnu/nios2-elf/lib/mno-hw-mul/libc.a(lib_a-__atexit.o)
 .bss           0x000000000001d090        0x0 /media/christoph/8A841458841448D9/space/altera_lite/15.1/nios2eds/bin/gnu/H-x86_64-pc-linux-gnu/bin/../lib/gcc/nios2-elf/4.9.2/../../../../../H-x86_64-pc-linux-gnu/nios2-elf/lib/mno-hw-mul/libc.a(lib_a-__call_atexit.o)
 .bss           0x000000000001d090        0x0 ../Autonomous_Car_OS_bsp//libucosii_bsp.a(alt_exit.o)
 *(COMMON)
 COMMON         0x000000000001d090     0x6000 obj/default/main.o
                0x000000000001d090                task1_stk
                0x000000000001f090                task2_stk
                0x0000000000021090                task3_stk
 COMMON         0x0000000000023090      0x100 ../Autonomous_Car_OS_bsp//libucosii_bsp.a(alt_irq_handler.o)
                0x0000000000023090                alt_irq
 COMMON         0x0000000000023190     0x3224 ../Autonomous_Car_OS_bsp//libucosii_bsp.a(os_core.o)
                0x0000000000023190                OSFlagTbl
                0x0000000000023500                OSMemTbl
                0x0000000000024130                OSTaskStatStk
                0x0000000000024930                OSQTbl
                0x0000000000024b10                OSTaskIdleStk
                0x0000000000025310                OSEventTbl
                0x0000000000025e50                OSTCBTbl
                0x0000000000026360                OSTCBPrioTbl
                0x00000000000263b4                . = ALIGN (0x4)
                0x00000000000263b4                __bss_end = ABSOLUTE (.)

.sdram          0x00000000000263b4        0x0
                0x00000000000263b4                PROVIDE (_alt_partition_sdram_start, ABSOLUTE (.))
 *(.sdram .sdram. sdram.*)
                0x00000000000263b4                . = ALIGN (0x4)
                0x00000000000263b4                PROVIDE (_alt_partition_sdram_end, ABSOLUTE (.))
                0x00000000000263b4                _end = ABSOLUTE (.)
                0x00000000000263b4                end = ABSOLUTE (.)
                0x00000000000263b4                __alt_stack_base = ABSOLUTE (.)
                0x00000000000263b4                PROVIDE (_alt_partition_sdram_load_addr, LOADADDR (.sdram))

.onchip_memory2_0
                0x0000000002004000        0x0
                0x0000000002004000                PROVIDE (_alt_partition_onchip_memory2_0_start, ABSOLUTE (.))
 *(.onchip_memory2_0 .onchip_memory2_0. onchip_memory2_0.*)
                0x0000000002004000                . = ALIGN (0x4)
                0x0000000002004000                PROVIDE (_alt_partition_onchip_memory2_0_end, ABSOLUTE (.))
                0x0000000002004000                PROVIDE (_alt_partition_onchip_memory2_0_load_addr, LOADADDR (.onchip_memory2_0))

.epcs_flash_controller_0
                0x0000000002009020        0x0
                0x0000000002009020                PROVIDE (_alt_partition_epcs_flash_controller_0_start, ABSOLUTE (.))
 *(.epcs_flash_controller_0 .epcs_flash_controller_0. epcs_flash_controller_0.*)
                0x0000000002009020                . = ALIGN (0x4)
                0x0000000002009020                PROVIDE (_alt_partition_epcs_flash_controller_0_end, ABSOLUTE (.))
                0x0000000002009020                PROVIDE (_alt_partition_epcs_flash_controller_0_load_addr, LOADADDR (.epcs_flash_controller_0))

.stab
 *(.stab)

.stabstr
 *(.stabstr)

.stab.excl
 *(.stab.excl)

.stab.exclstr
 *(.stab.exclstr)

.stab.index
 *(.stab.index)

.stab.indexstr
 *(.stab.indexstr)

.comment        0x0000000000000000       0x23
 *(.comment)
 .comment       0x0000000000000000       0x23 obj/default/communication.o
                                         0x24 (size before relaxing)
 .comment       0x0000000000000000       0x24 obj/default/gps.o
 .comment       0x0000000000000000       0x24 obj/default/main.o
 .comment       0x0000000000000000       0x24 obj/default/motor.o
 .comment       0x0000000000000000       0x24 obj/default/uart.o
 .comment       0x0000000000000000       0x24 obj/default/ultrasound.o
 .comment       0x0000000000000000       0x24 /media/christoph/8A841458841448D9/space/altera_lite/15.1/nios2eds/bin/gnu/H-x86_64-pc-linux-gnu/bin/../lib/gcc/nios2-elf/4.9.2/mno-hw-mul/libgcc.a(_fixunsdfsi.o)
 .comment       0x0000000000000000       0x24 /media/christoph/8A841458841448D9/space/altera_lite/15.1/nios2eds/bin/gnu/H-x86_64-pc-linux-gnu/bin/../lib/gcc/nios2-elf/4.9.2/mno-hw-mul/libgcc.a(lib2-mul.o)
 .comment       0x0000000000000000       0x24 /media/christoph/8A841458841448D9/space/altera_lite/15.1/nios2eds/bin/gnu/H-x86_64-pc-linux-gnu/bin/../lib/gcc/nios2-elf/4.9.2/mno-hw-mul/libgcc.a(divdf3.o)
 .comment       0x0000000000000000       0x24 /media/christoph/8A841458841448D9/space/altera_lite/15.1/nios2eds/bin/gnu/H-x86_64-pc-linux-gnu/bin/../lib/gcc/nios2-elf/4.9.2/mno-hw-mul/libgcc.a(gedf2.o)
 .comment       0x0000000000000000       0x24 /media/christoph/8A841458841448D9/space/altera_lite/15.1/nios2eds/bin/gnu/H-x86_64-pc-linux-gnu/bin/../lib/gcc/nios2-elf/4.9.2/mno-hw-mul/libgcc.a(ledf2.o)
 .comment       0x0000000000000000       0x24 /media/christoph/8A841458841448D9/space/altera_lite/15.1/nios2eds/bin/gnu/H-x86_64-pc-linux-gnu/bin/../lib/gcc/nios2-elf/4.9.2/mno-hw-mul/libgcc.a(muldf3.o)
 .comment       0x0000000000000000       0x24 /media/christoph/8A841458841448D9/space/altera_lite/15.1/nios2eds/bin/gnu/H-x86_64-pc-linux-gnu/bin/../lib/gcc/nios2-elf/4.9.2/mno-hw-mul/libgcc.a(subdf3.o)
 .comment       0x0000000000000000       0x24 /media/christoph/8A841458841448D9/space/altera_lite/15.1/nios2eds/bin/gnu/H-x86_64-pc-linux-gnu/bin/../lib/gcc/nios2-elf/4.9.2/mno-hw-mul/libgcc.a(fixdfsi.o)
 .comment       0x0000000000000000       0x24 /media/christoph/8A841458841448D9/space/altera_lite/15.1/nios2eds/bin/gnu/H-x86_64-pc-linux-gnu/bin/../lib/gcc/nios2-elf/4.9.2/mno-hw-mul/libgcc.a(floatsidf.o)
 .comment       0x0000000000000000       0x24 /media/christoph/8A841458841448D9/space/altera_lite/15.1/nios2eds/bin/gnu/H-x86_64-pc-linux-gnu/bin/../lib/gcc/nios2-elf/4.9.2/mno-hw-mul/libgcc.a(_clzsi2.o)
 .comment       0x0000000000000000       0x24 /media/christoph/8A841458841448D9/space/altera_lite/15.1/nios2eds/bin/gnu/H-x86_64-pc-linux-gnu/bin/../lib/gcc/nios2-elf/4.9.2/mno-hw-mul/libgcc.a(lib2-divmod.o)
 .comment       0x0000000000000000       0x24 /media/christoph/8A841458841448D9/space/altera_lite/15.1/nios2eds/bin/gnu/H-x86_64-pc-linux-gnu/bin/../lib/gcc/nios2-elf/4.9.2/mno-hw-mul/libgcc.a(_clz.o)
 .comment       0x0000000000000000       0x24 /media/christoph/8A841458841448D9/space/altera_lite/15.1/nios2eds/bin/gnu/H-x86_64-pc-linux-gnu/bin/../lib/gcc/nios2-elf/4.9.2/../../../../../H-x86_64-pc-linux-gnu/nios2-elf/lib/mno-hw-mul/libc.a(lib_a-printf.o)
 .comment       0x0000000000000000       0x24 /media/christoph/8A841458841448D9/space/altera_lite/15.1/nios2eds/bin/gnu/H-x86_64-pc-linux-gnu/bin/../lib/gcc/nios2-elf/4.9.2/../../../../../H-x86_64-pc-linux-gnu/nios2-elf/lib/mno-hw-mul/libc.a(lib_a-strncmp.o)
 .comment       0x0000000000000000       0x24 /media/christoph/8A841458841448D9/space/altera_lite/15.1/nios2eds/bin/gnu/H-x86_64-pc-linux-gnu/bin/../lib/gcc/nios2-elf/4.9.2/../../../../../H-x86_64-pc-linux-gnu/nios2-elf/lib/mno-hw-mul/libc.a(lib_a-strncpy.o)
 .comment       0x0000000000000000       0x24 /media/christoph/8A841458841448D9/space/altera_lite/15.1/nios2eds/bin/gnu/H-x86_64-pc-linux-gnu/bin/../lib/gcc/nios2-elf/4.9.2/../../../../../H-x86_64-pc-linux-gnu/nios2-elf/lib/mno-hw-mul/libc.a(lib_a-vfprintf.o)
 .comment       0x0000000000000000       0x24 /media/christoph/8A841458841448D9/space/altera_lite/15.1/nios2eds/bin/gnu/H-x86_64-pc-linux-gnu/bin/../lib/gcc/nios2-elf/4.9.2/../../../../../H-x86_64-pc-linux-gnu/nios2-elf/lib/mno-hw-mul/libc.a(lib_a-wsetup.o)
 .comment       0x0000000000000000       0x24 /media/christoph/8A841458841448D9/space/altera_lite/15.1/nios2eds/bin/gnu/H-x86_64-pc-linux-gnu/bin/../lib/gcc/nios2-elf/4.9.2/../../../../../H-x86_64-pc-linux-gnu/nios2-elf/lib/mno-hw-mul/libc.a(lib_a-dtoa.o)
 .comment       0x0000000000000000       0x24 /media/christoph/8A841458841448D9/space/altera_lite/15.1/nios2eds/bin/gnu/H-x86_64-pc-linux-gnu/bin/../lib/gcc/nios2-elf/4.9.2/../../../../../H-x86_64-pc-linux-gnu/nios2-elf/lib/mno-hw-mul/libc.a(lib_a-fflush.o)
 .comment       0x0000000000000000       0x24 /media/christoph/8A841458841448D9/space/altera_lite/15.1/nios2eds/bin/gnu/H-x86_64-pc-linux-gnu/bin/../lib/gcc/nios2-elf/4.9.2/../../../../../H-x86_64-pc-linux-gnu/nios2-elf/lib/mno-hw-mul/libc.a(lib_a-findfp.o)
 .comment       0x0000000000000000       0x24 /media/christoph/8A841458841448D9/space/altera_lite/15.1/nios2eds/bin/gnu/H-x86_64-pc-linux-gnu/bin/../lib/gcc/nios2-elf/4.9.2/../../../../../H-x86_64-pc-linux-gnu/nios2-elf/lib/mno-hw-mul/libc.a(lib_a-freer.o)
 .comment       0x0000000000000000       0x24 /media/christoph/8A841458841448D9/space/altera_lite/15.1/nios2eds/bin/gnu/H-x86_64-pc-linux-gnu/bin/../lib/gcc/nios2-elf/4.9.2/../../../../../H-x86_64-pc-linux-gnu/nios2-elf/lib/mno-hw-mul/libc.a(lib_a-fwalk.o)
 .comment       0x0000000000000000       0x24 /media/christoph/8A841458841448D9/space/altera_lite/15.1/nios2eds/bin/gnu/H-x86_64-pc-linux-gnu/bin/../lib/gcc/nios2-elf/4.9.2/../../../../../H-x86_64-pc-linux-gnu/nios2-elf/lib/mno-hw-mul/libc.a(lib_a-impure.o)
 .comment       0x0000000000000000       0x24 /media/christoph/8A841458841448D9/space/altera_lite/15.1/nios2eds/bin/gnu/H-x86_64-pc-linux-gnu/bin/../lib/gcc/nios2-elf/4.9.2/../../../../../H-x86_64-pc-linux-gnu/nios2-elf/lib/mno-hw-mul/libc.a(lib_a-locale.o)
 .comment       0x0000000000000000       0x24 /media/christoph/8A841458841448D9/space/altera_lite/15.1/nios2eds/bin/gnu/H-x86_64-pc-linux-gnu/bin/../lib/gcc/nios2-elf/4.9.2/../../../../../H-x86_64-pc-linux-gnu/nios2-elf/lib/mno-hw-mul/libc.a(lib_a-makebuf.o)
 .comment       0x0000000000000000       0x24 /media/christoph/8A841458841448D9/space/altera_lite/15.1/nios2eds/bin/gnu/H-x86_64-pc-linux-gnu/bin/../lib/gcc/nios2-elf/4.9.2/../../../../../H-x86_64-pc-linux-gnu/nios2-elf/lib/mno-hw-mul/libc.a(lib_a-mallocr.o)
 .comment       0x0000000000000000       0x24 /media/christoph/8A841458841448D9/space/altera_lite/15.1/nios2eds/bin/gnu/H-x86_64-pc-linux-gnu/bin/../lib/gcc/nios2-elf/4.9.2/../../../../../H-x86_64-pc-linux-gnu/nios2-elf/lib/mno-hw-mul/libc.a(lib_a-memchr.o)
 .comment       0x0000000000000000       0x24 /media/christoph/8A841458841448D9/space/altera_lite/15.1/nios2eds/bin/gnu/H-x86_64-pc-linux-gnu/bin/../lib/gcc/nios2-elf/4.9.2/../../../../../H-x86_64-pc-linux-gnu/nios2-elf/lib/mno-hw-mul/libc.a(lib_a-memcpy.o)
 .comment       0x0000000000000000       0x24 /media/christoph/8A841458841448D9/space/altera_lite/15.1/nios2eds/bin/gnu/H-x86_64-pc-linux-gnu/bin/../lib/gcc/nios2-elf/4.9.2/../../../../../H-x86_64-pc-linux-gnu/nios2-elf/lib/mno-hw-mul/libc.a(lib_a-memset.o)
 .comment       0x0000000000000000       0x24 /media/christoph/8A841458841448D9/space/altera_lite/15.1/nios2eds/bin/gnu/H-x86_64-pc-linux-gnu/bin/../lib/gcc/nios2-elf/4.9.2/../../../../../H-x86_64-pc-linux-gnu/nios2-elf/lib/mno-hw-mul/libc.a(lib_a-mprec.o)
 .comment       0x0000000000000000       0x24 /media/christoph/8A841458841448D9/space/altera_lite/15.1/nios2eds/bin/gnu/H-x86_64-pc-linux-gnu/bin/../lib/gcc/nios2-elf/4.9.2/../../../../../H-x86_64-pc-linux-gnu/nios2-elf/lib/mno-hw-mul/libc.a(lib_a-s_fpclassify.o)
 .comment       0x0000000000000000       0x24 /media/christoph/8A841458841448D9/space/altera_lite/15.1/nios2eds/bin/gnu/H-x86_64-pc-linux-gnu/bin/../lib/gcc/nios2-elf/4.9.2/../../../../../H-x86_64-pc-linux-gnu/nios2-elf/lib/mno-hw-mul/libc.a(lib_a-sbrkr.o)
 .comment       0x0000000000000000       0x24 /media/christoph/8A841458841448D9/space/altera_lite/15.1/nios2eds/bin/gnu/H-x86_64-pc-linux-gnu/bin/../lib/gcc/nios2-elf/4.9.2/../../../../../H-x86_64-pc-linux-gnu/nios2-elf/lib/mno-hw-mul/libc.a(lib_a-stdio.o)
 .comment       0x0000000000000000       0x24 /media/christoph/8A841458841448D9/space/altera_lite/15.1/nios2eds/bin/gnu/H-x86_64-pc-linux-gnu/bin/../lib/gcc/nios2-elf/4.9.2/../../../../../H-x86_64-pc-linux-gnu/nios2-elf/lib/mno-hw-mul/libc.a(lib_a-strcmp.o)
 .comment       0x0000000000000000       0x24 /media/christoph/8A841458841448D9/space/altera_lite/15.1/nios2eds/bin/gnu/H-x86_64-pc-linux-gnu/bin/../lib/gcc/nios2-elf/4.9.2/../../../../../H-x86_64-pc-linux-gnu/nios2-elf/lib/mno-hw-mul/libc.a(lib_a-strlen.o)
 .comment       0x0000000000000000       0x24 /media/christoph/8A841458841448D9/space/altera_lite/15.1/nios2eds/bin/gnu/H-x86_64-pc-linux-gnu/bin/../lib/gcc/nios2-elf/4.9.2/../../../../../H-x86_64-pc-linux-gnu/nios2-elf/lib/mno-hw-mul/libc.a(lib_a-vfiprintf.o)
 .comment       0x0000000000000000       0x24 /media/christoph/8A841458841448D9/space/altera_lite/15.1/nios2eds/bin/gnu/H-x86_64-pc-linux-gnu/bin/../lib/gcc/nios2-elf/4.9.2/../../../../../H-x86_64-pc-linux-gnu/nios2-elf/lib/mno-hw-mul/libc.a(lib_a-writer.o)
 .comment       0x0000000000000000       0x24 /media/christoph/8A841458841448D9/space/altera_lite/15.1/nios2eds/bin/gnu/H-x86_64-pc-linux-gnu/bin/../lib/gcc/nios2-elf/4.9.2/../../../../../H-x86_64-pc-linux-gnu/nios2-elf/lib/mno-hw-mul/libc.a(closer.o)
 .comment       0x0000000000000000       0x24 /media/christoph/8A841458841448D9/space/altera_lite/15.1/nios2eds/bin/gnu/H-x86_64-pc-linux-gnu/bin/../lib/gcc/nios2-elf/4.9.2/../../../../../H-x86_64-pc-linux-gnu/nios2-elf/lib/mno-hw-mul/libc.a(lib_a-callocr.o)
 .comment       0x0000000000000000       0x24 /media/christoph/8A841458841448D9/space/altera_lite/15.1/nios2eds/bin/gnu/H-x86_64-pc-linux-gnu/bin/../lib/gcc/nios2-elf/4.9.2/../../../../../H-x86_64-pc-linux-gnu/nios2-elf/lib/mno-hw-mul/libc.a(lib_a-fclose.o)
 .comment       0x0000000000000000       0x24 /media/christoph/8A841458841448D9/space/altera_lite/15.1/nios2eds/bin/gnu/H-x86_64-pc-linux-gnu/bin/../lib/gcc/nios2-elf/4.9.2/../../../../../H-x86_64-pc-linux-gnu/nios2-elf/lib/mno-hw-mul/libc.a(lib_a-fputwc.o)
 .comment       0x0000000000000000       0x24 /media/christoph/8A841458841448D9/space/altera_lite/15.1/nios2eds/bin/gnu/H-x86_64-pc-linux-gnu/bin/../lib/gcc/nios2-elf/4.9.2/../../../../../H-x86_64-pc-linux-gnu/nios2-elf/lib/mno-hw-mul/libc.a(lib_a-fstatr.o)
 .comment       0x0000000000000000       0x24 /media/christoph/8A841458841448D9/space/altera_lite/15.1/nios2eds/bin/gnu/H-x86_64-pc-linux-gnu/bin/../lib/gcc/nios2-elf/4.9.2/../../../../../H-x86_64-pc-linux-gnu/nios2-elf/lib/mno-hw-mul/libc.a(lib_a-fvwrite.o)
 .comment       0x0000000000000000       0x24 /media/christoph/8A841458841448D9/space/altera_lite/15.1/nios2eds/bin/gnu/H-x86_64-pc-linux-gnu/bin/../lib/gcc/nios2-elf/4.9.2/../../../../../H-x86_64-pc-linux-gnu/nios2-elf/lib/mno-hw-mul/libc.a(lib_a-int_errno.o)
 .comment       0x0000000000000000       0x24 /media/christoph/8A841458841448D9/space/altera_lite/15.1/nios2eds/bin/gnu/H-x86_64-pc-linux-gnu/bin/../lib/gcc/nios2-elf/4.9.2/../../../../../H-x86_64-pc-linux-gnu/nios2-elf/lib/mno-hw-mul/libc.a(lib_a-isattyr.o)
 .comment       0x0000000000000000       0x24 /media/christoph/8A841458841448D9/space/altera_lite/15.1/nios2eds/bin/gnu/H-x86_64-pc-linux-gnu/bin/../lib/gcc/nios2-elf/4.9.2/../../../../../H-x86_64-pc-linux-gnu/nios2-elf/lib/mno-hw-mul/libc.a(lib_a-lseekr.o)
 .comment       0x0000000000000000       0x24 /media/christoph/8A841458841448D9/space/altera_lite/15.1/nios2eds/bin/gnu/H-x86_64-pc-linux-gnu/bin/../lib/gcc/nios2-elf/4.9.2/../../../../../H-x86_64-pc-linux-gnu/nios2-elf/lib/mno-hw-mul/libc.a(lib_a-memmove.o)
 .comment       0x0000000000000000       0x24 /media/christoph/8A841458841448D9/space/altera_lite/15.1/nios2eds/bin/gnu/H-x86_64-pc-linux-gnu/bin/../lib/gcc/nios2-elf/4.9.2/../../../../../H-x86_64-pc-linux-gnu/nios2-elf/lib/mno-hw-mul/libc.a(lib_a-readr.o)
 .comment       0x0000000000000000       0x24 /media/christoph/8A841458841448D9/space/altera_lite/15.1/nios2eds/bin/gnu/H-x86_64-pc-linux-gnu/bin/../lib/gcc/nios2-elf/4.9.2/../../../../../H-x86_64-pc-linux-gnu/nios2-elf/lib/mno-hw-mul/libc.a(lib_a-reallocr.o)
 .comment       0x0000000000000000       0x24 /media/christoph/8A841458841448D9/space/altera_lite/15.1/nios2eds/bin/gnu/H-x86_64-pc-linux-gnu/bin/../lib/gcc/nios2-elf/4.9.2/../../../../../H-x86_64-pc-linux-gnu/nios2-elf/lib/mno-hw-mul/libc.a(lib_a-wbuf.o)
 .comment       0x0000000000000000       0x24 /media/christoph/8A841458841448D9/space/altera_lite/15.1/nios2eds/bin/gnu/H-x86_64-pc-linux-gnu/bin/../lib/gcc/nios2-elf/4.9.2/../../../../../H-x86_64-pc-linux-gnu/nios2-elf/lib/mno-hw-mul/libc.a(lib_a-wcrtomb.o)
 .comment       0x0000000000000000       0x24 /media/christoph/8A841458841448D9/space/altera_lite/15.1/nios2eds/bin/gnu/H-x86_64-pc-linux-gnu/bin/../lib/gcc/nios2-elf/4.9.2/../../../../../H-x86_64-pc-linux-gnu/nios2-elf/lib/mno-hw-mul/libc.a(lib_a-wctomb_r.o)
 .comment       0x0000000000000000       0x24 /media/christoph/8A841458841448D9/space/altera_lite/15.1/nios2eds/bin/gnu/H-x86_64-pc-linux-gnu/bin/../lib/gcc/nios2-elf/4.9.2/mno-hw-mul/libgcc.a(_udivdi3.o)
 .comment       0x0000000000000000       0x24 /media/christoph/8A841458841448D9/space/altera_lite/15.1/nios2eds/bin/gnu/H-x86_64-pc-linux-gnu/bin/../lib/gcc/nios2-elf/4.9.2/mno-hw-mul/libgcc.a(_umoddi3.o)
 .comment       0x0000000000000000       0x24 /media/christoph/8A841458841448D9/space/altera_lite/15.1/nios2eds/bin/gnu/H-x86_64-pc-linux-gnu/bin/../lib/gcc/nios2-elf/4.9.2/mno-hw-mul/libgcc.a(adddf3.o)
 .comment       0x0000000000000000       0x24 /media/christoph/8A841458841448D9/space/altera_lite/15.1/nios2eds/bin/gnu/H-x86_64-pc-linux-gnu/bin/../lib/gcc/nios2-elf/4.9.2/mno-hw-mul/libgcc.a(eqdf2.o)
 .comment       0x0000000000000000       0x24 /media/christoph/8A841458841448D9/space/altera_lite/15.1/nios2eds/bin/gnu/H-x86_64-pc-linux-gnu/bin/../lib/gcc/nios2-elf/4.9.2/mno-hw-mul/libgcc.a(floatunsidf.o)
 .comment       0x0000000000000000       0x24 ../Autonomous_Car_OS_bsp//libucosii_bsp.a(alt_close.o)
 .comment       0x0000000000000000       0x24 ../Autonomous_Car_OS_bsp//libucosii_bsp.a(alt_dev.o)
 .comment       0x0000000000000000       0x24 ../Autonomous_Car_OS_bsp//libucosii_bsp.a(alt_errno.o)
 .comment       0x0000000000000000       0x24 ../Autonomous_Car_OS_bsp//libucosii_bsp.a(alt_fstat.o)
 .comment       0x0000000000000000       0x24 ../Autonomous_Car_OS_bsp//libucosii_bsp.a(alt_iic.o)
 .comment       0x0000000000000000       0x24 ../Autonomous_Car_OS_bsp//libucosii_bsp.a(alt_iic_isr_register.o)
 .comment       0x0000000000000000       0x24 ../Autonomous_Car_OS_bsp//libucosii_bsp.a(alt_irq_handler.o)
 .comment       0x0000000000000000       0x24 ../Autonomous_Car_OS_bsp//libucosii_bsp.a(alt_irq_vars.o)
 .comment       0x0000000000000000       0x24 ../Autonomous_Car_OS_bsp//libucosii_bsp.a(alt_isatty.o)
 .comment       0x0000000000000000       0x24 ../Autonomous_Car_OS_bsp//libucosii_bsp.a(alt_lseek.o)
 .comment       0x0000000000000000       0x24 ../Autonomous_Car_OS_bsp//libucosii_bsp.a(alt_main.o)
 .comment       0x0000000000000000       0x24 ../Autonomous_Car_OS_bsp//libucosii_bsp.a(alt_read.o)
 .comment       0x0000000000000000       0x24 ../Autonomous_Car_OS_bsp//libucosii_bsp.a(alt_release_fd.o)
 .comment       0x0000000000000000       0x24 ../Autonomous_Car_OS_bsp//libucosii_bsp.a(alt_sbrk.o)
 .comment       0x0000000000000000       0x24 ../Autonomous_Car_OS_bsp//libucosii_bsp.a(alt_write.o)
 .comment       0x0000000000000000       0x24 ../Autonomous_Car_OS_bsp//libucosii_bsp.a(alt_env_lock.o)
 .comment       0x0000000000000000       0x24 ../Autonomous_Car_OS_bsp//libucosii_bsp.a(alt_malloc_lock.o)
 .comment       0x0000000000000000       0x24 ../Autonomous_Car_OS_bsp//libucosii_bsp.a(os_core.o)
 .comment       0x0000000000000000       0x24 ../Autonomous_Car_OS_bsp//libucosii_bsp.a(os_dbg.o)
 .comment       0x0000000000000000       0x24 ../Autonomous_Car_OS_bsp//libucosii_bsp.a(os_flag.o)
 .comment       0x0000000000000000       0x24 ../Autonomous_Car_OS_bsp//libucosii_bsp.a(os_mem.o)
 .comment       0x0000000000000000       0x24 ../Autonomous_Car_OS_bsp//libucosii_bsp.a(os_q.o)
 .comment       0x0000000000000000       0x24 ../Autonomous_Car_OS_bsp//libucosii_bsp.a(os_sem.o)
 .comment       0x0000000000000000       0x24 ../Autonomous_Car_OS_bsp//libucosii_bsp.a(os_task.o)
 .comment       0x0000000000000000       0x24 ../Autonomous_Car_OS_bsp//libucosii_bsp.a(os_time.o)
 .comment       0x0000000000000000       0x24 ../Autonomous_Car_OS_bsp//libucosii_bsp.a(alt_sys_init.o)
 .comment       0x0000000000000000       0x24 ../Autonomous_Car_OS_bsp//libucosii_bsp.a(altera_avalon_epcs_flash_controller.o)
 .comment       0x0000000000000000       0x24 ../Autonomous_Car_OS_bsp//libucosii_bsp.a(altera_avalon_jtag_uart_fd.o)
 .comment       0x0000000000000000       0x24 ../Autonomous_Car_OS_bsp//libucosii_bsp.a(altera_avalon_jtag_uart_init.o)
 .comment       0x0000000000000000       0x24 ../Autonomous_Car_OS_bsp//libucosii_bsp.a(altera_avalon_jtag_uart_ioctl.o)
 .comment       0x0000000000000000       0x24 ../Autonomous_Car_OS_bsp//libucosii_bsp.a(altera_avalon_jtag_uart_read.o)
 .comment       0x0000000000000000       0x24 ../Autonomous_Car_OS_bsp//libucosii_bsp.a(altera_avalon_jtag_uart_write.o)
 .comment       0x0000000000000000       0x24 ../Autonomous_Car_OS_bsp//libucosii_bsp.a(altera_avalon_timer_sc.o)
 .comment       0x0000000000000000       0x24 ../Autonomous_Car_OS_bsp//libucosii_bsp.a(altera_avalon_uart_fd.o)
 .comment       0x0000000000000000       0x24 ../Autonomous_Car_OS_bsp//libucosii_bsp.a(altera_avalon_uart_init.o)
 .comment       0x0000000000000000       0x24 ../Autonomous_Car_OS_bsp//libucosii_bsp.a(altera_avalon_uart_read.o)
 .comment       0x0000000000000000       0x24 ../Autonomous_Car_OS_bsp//libucosii_bsp.a(altera_avalon_uart_write.o)
 .comment       0x0000000000000000       0x24 ../Autonomous_Car_OS_bsp//libucosii_bsp.a(epcs_commands.o)
 .comment       0x0000000000000000       0x24 ../Autonomous_Car_OS_bsp//libucosii_bsp.a(alt_alarm_start.o)
 .comment       0x0000000000000000       0x24 ../Autonomous_Car_OS_bsp//libucosii_bsp.a(alt_dev_llist_insert.o)
 .comment       0x0000000000000000       0x24 ../Autonomous_Car_OS_bsp//libucosii_bsp.a(alt_do_ctors.o)
 .comment       0x0000000000000000       0x24 ../Autonomous_Car_OS_bsp//libucosii_bsp.a(alt_do_dtors.o)
 .comment       0x0000000000000000       0x24 ../Autonomous_Car_OS_bsp//libucosii_bsp.a(alt_flash_dev.o)
 .comment       0x0000000000000000       0x24 ../Autonomous_Car_OS_bsp//libucosii_bsp.a(alt_io_redirect.o)
 .comment       0x0000000000000000       0x24 ../Autonomous_Car_OS_bsp//libucosii_bsp.a(alt_open.o)
 .comment       0x0000000000000000       0x24 ../Autonomous_Car_OS_bsp//libucosii_bsp.a(alt_tick.o)
 .comment       0x0000000000000000       0x24 ../Autonomous_Car_OS_bsp//libucosii_bsp.a(altera_nios2_qsys_irq.o)
 .comment       0x0000000000000000       0x24 ../Autonomous_Car_OS_bsp//libucosii_bsp.a(os_cpu_c.o)
 .comment       0x0000000000000000       0x24 ../Autonomous_Car_OS_bsp//libucosii_bsp.a(altera_avalon_spi.o)
 .comment       0x0000000000000000       0x24 ../Autonomous_Car_OS_bsp//libucosii_bsp.a(alt_find_dev.o)
 .comment       0x0000000000000000       0x24 ../Autonomous_Car_OS_bsp//libucosii_bsp.a(alt_find_file.o)
 .comment       0x0000000000000000       0x24 ../Autonomous_Car_OS_bsp//libucosii_bsp.a(alt_get_fd.o)
 .comment       0x0000000000000000       0x24 /media/christoph/8A841458841448D9/space/altera_lite/15.1/nios2eds/bin/gnu/H-x86_64-pc-linux-gnu/bin/../lib/gcc/nios2-elf/4.9.2/../../../../../H-x86_64-pc-linux-gnu/nios2-elf/lib/mno-hw-mul/libc.a(lib_a-atexit.o)
 .comment       0x0000000000000000       0x24 /media/christoph/8A841458841448D9/space/altera_lite/15.1/nios2eds/bin/gnu/H-x86_64-pc-linux-gnu/bin/../lib/gcc/nios2-elf/4.9.2/../../../../../H-x86_64-pc-linux-gnu/nios2-elf/lib/mno-hw-mul/libc.a(lib_a-exit.o)
 .comment       0x0000000000000000       0x24 /media/christoph/8A841458841448D9/space/altera_lite/15.1/nios2eds/bin/gnu/H-x86_64-pc-linux-gnu/bin/../lib/gcc/nios2-elf/4.9.2/../../../../../H-x86_64-pc-linux-gnu/nios2-elf/lib/mno-hw-mul/libc.a(lib_a-memcmp.o)
 .comment       0x0000000000000000       0x24 /media/christoph/8A841458841448D9/space/altera_lite/15.1/nios2eds/bin/gnu/H-x86_64-pc-linux-gnu/bin/../lib/gcc/nios2-elf/4.9.2/../../../../../H-x86_64-pc-linux-gnu/nios2-elf/lib/mno-hw-mul/libc.a(lib_a-__atexit.o)
 .comment       0x0000000000000000       0x24 /media/christoph/8A841458841448D9/space/altera_lite/15.1/nios2eds/bin/gnu/H-x86_64-pc-linux-gnu/bin/../lib/gcc/nios2-elf/4.9.2/../../../../../H-x86_64-pc-linux-gnu/nios2-elf/lib/mno-hw-mul/libc.a(lib_a-__call_atexit.o)
 .comment       0x0000000000000000       0x24 ../Autonomous_Car_OS_bsp//libucosii_bsp.a(alt_exit.o)

.debug
 *(.debug)

.line
 *(.line)

.debug_srcinfo
 *(.debug_srcinfo)

.debug_sfnames
 *(.debug_sfnames)

.debug_aranges  0x0000000000000000     0x1178
 *(.debug_aranges)
 .debug_aranges
                0x0000000000000000       0x20 ../Autonomous_Car_OS_bsp//obj/HAL/src/crt0.o
 .debug_aranges
                0x0000000000000020       0x20 obj/default/communication.o
 .debug_aranges
                0x0000000000000040       0x20 obj/default/gps.o
 .debug_aranges
                0x0000000000000060       0x20 obj/default/main.o
 .debug_aranges
                0x0000000000000080       0x20 obj/default/motor.o
 .debug_aranges
                0x00000000000000a0       0x20 obj/default/uart.o
 .debug_aranges
                0x00000000000000c0       0x20 obj/default/ultrasound.o
 .debug_aranges
                0x00000000000000e0       0x20 /media/christoph/8A841458841448D9/space/altera_lite/15.1/nios2eds/bin/gnu/H-x86_64-pc-linux-gnu/bin/../lib/gcc/nios2-elf/4.9.2/mno-hw-mul/libgcc.a(_fixunsdfsi.o)
 .debug_aranges
                0x0000000000000100       0x20 /media/christoph/8A841458841448D9/space/altera_lite/15.1/nios2eds/bin/gnu/H-x86_64-pc-linux-gnu/bin/../lib/gcc/nios2-elf/4.9.2/mno-hw-mul/libgcc.a(lib2-mul.o)
 .debug_aranges
                0x0000000000000120       0x20 /media/christoph/8A841458841448D9/space/altera_lite/15.1/nios2eds/bin/gnu/H-x86_64-pc-linux-gnu/bin/../lib/gcc/nios2-elf/4.9.2/mno-hw-mul/libgcc.a(divdf3.o)
 .debug_aranges
                0x0000000000000140       0x20 /media/christoph/8A841458841448D9/space/altera_lite/15.1/nios2eds/bin/gnu/H-x86_64-pc-linux-gnu/bin/../lib/gcc/nios2-elf/4.9.2/mno-hw-mul/libgcc.a(gedf2.o)
 .debug_aranges
                0x0000000000000160       0x20 /media/christoph/8A841458841448D9/space/altera_lite/15.1/nios2eds/bin/gnu/H-x86_64-pc-linux-gnu/bin/../lib/gcc/nios2-elf/4.9.2/mno-hw-mul/libgcc.a(ledf2.o)
 .debug_aranges
                0x0000000000000180       0x20 /media/christoph/8A841458841448D9/space/altera_lite/15.1/nios2eds/bin/gnu/H-x86_64-pc-linux-gnu/bin/../lib/gcc/nios2-elf/4.9.2/mno-hw-mul/libgcc.a(muldf3.o)
 .debug_aranges
                0x00000000000001a0       0x20 /media/christoph/8A841458841448D9/space/altera_lite/15.1/nios2eds/bin/gnu/H-x86_64-pc-linux-gnu/bin/../lib/gcc/nios2-elf/4.9.2/mno-hw-mul/libgcc.a(subdf3.o)
 .debug_aranges
                0x00000000000001c0       0x20 /media/christoph/8A841458841448D9/space/altera_lite/15.1/nios2eds/bin/gnu/H-x86_64-pc-linux-gnu/bin/../lib/gcc/nios2-elf/4.9.2/mno-hw-mul/libgcc.a(fixdfsi.o)
 .debug_aranges
                0x00000000000001e0       0x20 /media/christoph/8A841458841448D9/space/altera_lite/15.1/nios2eds/bin/gnu/H-x86_64-pc-linux-gnu/bin/../lib/gcc/nios2-elf/4.9.2/mno-hw-mul/libgcc.a(floatsidf.o)
 .debug_aranges
                0x0000000000000200       0x20 /media/christoph/8A841458841448D9/space/altera_lite/15.1/nios2eds/bin/gnu/H-x86_64-pc-linux-gnu/bin/../lib/gcc/nios2-elf/4.9.2/mno-hw-mul/libgcc.a(_clzsi2.o)
 .debug_aranges
                0x0000000000000220       0x20 /media/christoph/8A841458841448D9/space/altera_lite/15.1/nios2eds/bin/gnu/H-x86_64-pc-linux-gnu/bin/../lib/gcc/nios2-elf/4.9.2/mno-hw-mul/libgcc.a(lib2-divmod.o)
 .debug_aranges
                0x0000000000000240       0x18 /media/christoph/8A841458841448D9/space/altera_lite/15.1/nios2eds/bin/gnu/H-x86_64-pc-linux-gnu/bin/../lib/gcc/nios2-elf/4.9.2/mno-hw-mul/libgcc.a(_clz.o)
 .debug_aranges
                0x0000000000000258       0x28 /media/christoph/8A841458841448D9/space/altera_lite/15.1/nios2eds/bin/gnu/H-x86_64-pc-linux-gnu/bin/../lib/gcc/nios2-elf/4.9.2/../../../../../H-x86_64-pc-linux-gnu/nios2-elf/lib/mno-hw-mul/libc.a(lib_a-printf.o)
 .debug_aranges
                0x0000000000000280       0x20 /media/christoph/8A841458841448D9/space/altera_lite/15.1/nios2eds/bin/gnu/H-x86_64-pc-linux-gnu/bin/../lib/gcc/nios2-elf/4.9.2/../../../../../H-x86_64-pc-linux-gnu/nios2-elf/lib/mno-hw-mul/libc.a(lib_a-strncmp.o)
 .debug_aranges
                0x00000000000002a0       0x20 /media/christoph/8A841458841448D9/space/altera_lite/15.1/nios2eds/bin/gnu/H-x86_64-pc-linux-gnu/bin/../lib/gcc/nios2-elf/4.9.2/../../../../../H-x86_64-pc-linux-gnu/nios2-elf/lib/mno-hw-mul/libc.a(lib_a-strncpy.o)
 .debug_aranges
                0x00000000000002c0       0x30 /media/christoph/8A841458841448D9/space/altera_lite/15.1/nios2eds/bin/gnu/H-x86_64-pc-linux-gnu/bin/../lib/gcc/nios2-elf/4.9.2/../../../../../H-x86_64-pc-linux-gnu/nios2-elf/lib/mno-hw-mul/libc.a(lib_a-vfprintf.o)
 .debug_aranges
                0x00000000000002f0       0x20 /media/christoph/8A841458841448D9/space/altera_lite/15.1/nios2eds/bin/gnu/H-x86_64-pc-linux-gnu/bin/../lib/gcc/nios2-elf/4.9.2/../../../../../H-x86_64-pc-linux-gnu/nios2-elf/lib/mno-hw-mul/libc.a(lib_a-wsetup.o)
 .debug_aranges
                0x0000000000000310       0x28 /media/christoph/8A841458841448D9/space/altera_lite/15.1/nios2eds/bin/gnu/H-x86_64-pc-linux-gnu/bin/../lib/gcc/nios2-elf/4.9.2/../../../../../H-x86_64-pc-linux-gnu/nios2-elf/lib/mno-hw-mul/libc.a(lib_a-dtoa.o)
 .debug_aranges
                0x0000000000000338       0x30 /media/christoph/8A841458841448D9/space/altera_lite/15.1/nios2eds/bin/gnu/H-x86_64-pc-linux-gnu/bin/../lib/gcc/nios2-elf/4.9.2/../../../../../H-x86_64-pc-linux-gnu/nios2-elf/lib/mno-hw-mul/libc.a(lib_a-fflush.o)
 .debug_aranges
                0x0000000000000368       0x88 /media/christoph/8A841458841448D9/space/altera_lite/15.1/nios2eds/bin/gnu/H-x86_64-pc-linux-gnu/bin/../lib/gcc/nios2-elf/4.9.2/../../../../../H-x86_64-pc-linux-gnu/nios2-elf/lib/mno-hw-mul/libc.a(lib_a-findfp.o)
 .debug_aranges
                0x00000000000003f0       0x28 /media/christoph/8A841458841448D9/space/altera_lite/15.1/nios2eds/bin/gnu/H-x86_64-pc-linux-gnu/bin/../lib/gcc/nios2-elf/4.9.2/../../../../../H-x86_64-pc-linux-gnu/nios2-elf/lib/mno-hw-mul/libc.a(lib_a-freer.o)
 .debug_aranges
                0x0000000000000418       0x28 /media/christoph/8A841458841448D9/space/altera_lite/15.1/nios2eds/bin/gnu/H-x86_64-pc-linux-gnu/bin/../lib/gcc/nios2-elf/4.9.2/../../../../../H-x86_64-pc-linux-gnu/nios2-elf/lib/mno-hw-mul/libc.a(lib_a-fwalk.o)
 .debug_aranges
                0x0000000000000440       0x18 /media/christoph/8A841458841448D9/space/altera_lite/15.1/nios2eds/bin/gnu/H-x86_64-pc-linux-gnu/bin/../lib/gcc/nios2-elf/4.9.2/../../../../../H-x86_64-pc-linux-gnu/nios2-elf/lib/mno-hw-mul/libc.a(lib_a-impure.o)
 .debug_aranges
                0x0000000000000458       0x58 /media/christoph/8A841458841448D9/space/altera_lite/15.1/nios2eds/bin/gnu/H-x86_64-pc-linux-gnu/bin/../lib/gcc/nios2-elf/4.9.2/../../../../../H-x86_64-pc-linux-gnu/nios2-elf/lib/mno-hw-mul/libc.a(lib_a-locale.o)
 .debug_aranges
                0x00000000000004b0       0x20 /media/christoph/8A841458841448D9/space/altera_lite/15.1/nios2eds/bin/gnu/H-x86_64-pc-linux-gnu/bin/../lib/gcc/nios2-elf/4.9.2/../../../../../H-x86_64-pc-linux-gnu/nios2-elf/lib/mno-hw-mul/libc.a(lib_a-makebuf.o)
 .debug_aranges
                0x00000000000004d0       0x20 /media/christoph/8A841458841448D9/space/altera_lite/15.1/nios2eds/bin/gnu/H-x86_64-pc-linux-gnu/bin/../lib/gcc/nios2-elf/4.9.2/../../../../../H-x86_64-pc-linux-gnu/nios2-elf/lib/mno-hw-mul/libc.a(lib_a-mallocr.o)
 .debug_aranges
                0x00000000000004f0       0x20 /media/christoph/8A841458841448D9/space/altera_lite/15.1/nios2eds/bin/gnu/H-x86_64-pc-linux-gnu/bin/../lib/gcc/nios2-elf/4.9.2/../../../../../H-x86_64-pc-linux-gnu/nios2-elf/lib/mno-hw-mul/libc.a(lib_a-memchr.o)
 .debug_aranges
                0x0000000000000510       0x20 /media/christoph/8A841458841448D9/space/altera_lite/15.1/nios2eds/bin/gnu/H-x86_64-pc-linux-gnu/bin/../lib/gcc/nios2-elf/4.9.2/../../../../../H-x86_64-pc-linux-gnu/nios2-elf/lib/mno-hw-mul/libc.a(lib_a-memcpy.o)
 .debug_aranges
                0x0000000000000530       0x20 /media/christoph/8A841458841448D9/space/altera_lite/15.1/nios2eds/bin/gnu/H-x86_64-pc-linux-gnu/bin/../lib/gcc/nios2-elf/4.9.2/../../../../../H-x86_64-pc-linux-gnu/nios2-elf/lib/mno-hw-mul/libc.a(lib_a-memset.o)
 .debug_aranges
                0x0000000000000550       0xb0 /media/christoph/8A841458841448D9/space/altera_lite/15.1/nios2eds/bin/gnu/H-x86_64-pc-linux-gnu/bin/../lib/gcc/nios2-elf/4.9.2/../../../../../H-x86_64-pc-linux-gnu/nios2-elf/lib/mno-hw-mul/libc.a(lib_a-mprec.o)
 .debug_aranges
                0x0000000000000600       0x20 /media/christoph/8A841458841448D9/space/altera_lite/15.1/nios2eds/bin/gnu/H-x86_64-pc-linux-gnu/bin/../lib/gcc/nios2-elf/4.9.2/../../../../../H-x86_64-pc-linux-gnu/nios2-elf/lib/mno-hw-mul/libc.a(lib_a-s_fpclassify.o)
 .debug_aranges
                0x0000000000000620       0x20 /media/christoph/8A841458841448D9/space/altera_lite/15.1/nios2eds/bin/gnu/H-x86_64-pc-linux-gnu/bin/../lib/gcc/nios2-elf/4.9.2/../../../../../H-x86_64-pc-linux-gnu/nios2-elf/lib/mno-hw-mul/libc.a(lib_a-sbrkr.o)
 .debug_aranges
                0x0000000000000640       0x40 /media/christoph/8A841458841448D9/space/altera_lite/15.1/nios2eds/bin/gnu/H-x86_64-pc-linux-gnu/bin/../lib/gcc/nios2-elf/4.9.2/../../../../../H-x86_64-pc-linux-gnu/nios2-elf/lib/mno-hw-mul/libc.a(lib_a-stdio.o)
 .debug_aranges
                0x0000000000000680       0x20 /media/christoph/8A841458841448D9/space/altera_lite/15.1/nios2eds/bin/gnu/H-x86_64-pc-linux-gnu/bin/../lib/gcc/nios2-elf/4.9.2/../../../../../H-x86_64-pc-linux-gnu/nios2-elf/lib/mno-hw-mul/libc.a(lib_a-strcmp.o)
 .debug_aranges
                0x00000000000006a0       0x20 /media/christoph/8A841458841448D9/space/altera_lite/15.1/nios2eds/bin/gnu/H-x86_64-pc-linux-gnu/bin/../lib/gcc/nios2-elf/4.9.2/../../../../../H-x86_64-pc-linux-gnu/nios2-elf/lib/mno-hw-mul/libc.a(lib_a-strlen.o)
 .debug_aranges
                0x00000000000006c0       0x40 /media/christoph/8A841458841448D9/space/altera_lite/15.1/nios2eds/bin/gnu/H-x86_64-pc-linux-gnu/bin/../lib/gcc/nios2-elf/4.9.2/../../../../../H-x86_64-pc-linux-gnu/nios2-elf/lib/mno-hw-mul/libc.a(lib_a-vfiprintf.o)
 .debug_aranges
                0x0000000000000700       0x20 /media/christoph/8A841458841448D9/space/altera_lite/15.1/nios2eds/bin/gnu/H-x86_64-pc-linux-gnu/bin/../lib/gcc/nios2-elf/4.9.2/../../../../../H-x86_64-pc-linux-gnu/nios2-elf/lib/mno-hw-mul/libc.a(lib_a-writer.o)
 .debug_aranges
                0x0000000000000720       0x20 /media/christoph/8A841458841448D9/space/altera_lite/15.1/nios2eds/bin/gnu/H-x86_64-pc-linux-gnu/bin/../lib/gcc/nios2-elf/4.9.2/../../../../../H-x86_64-pc-linux-gnu/nios2-elf/lib/mno-hw-mul/libc.a(closer.o)
 .debug_aranges
                0x0000000000000740       0x20 /media/christoph/8A841458841448D9/space/altera_lite/15.1/nios2eds/bin/gnu/H-x86_64-pc-linux-gnu/bin/../lib/gcc/nios2-elf/4.9.2/../../../../../H-x86_64-pc-linux-gnu/nios2-elf/lib/mno-hw-mul/libc.a(lib_a-callocr.o)
 .debug_aranges
                0x0000000000000760       0x28 /media/christoph/8A841458841448D9/space/altera_lite/15.1/nios2eds/bin/gnu/H-x86_64-pc-linux-gnu/bin/../lib/gcc/nios2-elf/4.9.2/../../../../../H-x86_64-pc-linux-gnu/nios2-elf/lib/mno-hw-mul/libc.a(lib_a-fclose.o)
 .debug_aranges
                0x0000000000000788       0x28 /media/christoph/8A841458841448D9/space/altera_lite/15.1/nios2eds/bin/gnu/H-x86_64-pc-linux-gnu/bin/../lib/gcc/nios2-elf/4.9.2/../../../../../H-x86_64-pc-linux-gnu/nios2-elf/lib/mno-hw-mul/libc.a(lib_a-fputwc.o)
 .debug_aranges
                0x00000000000007b0       0x20 /media/christoph/8A841458841448D9/space/altera_lite/15.1/nios2eds/bin/gnu/H-x86_64-pc-linux-gnu/bin/../lib/gcc/nios2-elf/4.9.2/../../../../../H-x86_64-pc-linux-gnu/nios2-elf/lib/mno-hw-mul/libc.a(lib_a-fstatr.o)
 .debug_aranges
                0x00000000000007d0       0x20 /media/christoph/8A841458841448D9/space/altera_lite/15.1/nios2eds/bin/gnu/H-x86_64-pc-linux-gnu/bin/../lib/gcc/nios2-elf/4.9.2/../../../../../H-x86_64-pc-linux-gnu/nios2-elf/lib/mno-hw-mul/libc.a(lib_a-fvwrite.o)
 .debug_aranges
                0x00000000000007f0       0x18 /media/christoph/8A841458841448D9/space/altera_lite/15.1/nios2eds/bin/gnu/H-x86_64-pc-linux-gnu/bin/../lib/gcc/nios2-elf/4.9.2/../../../../../H-x86_64-pc-linux-gnu/nios2-elf/lib/mno-hw-mul/libc.a(lib_a-int_errno.o)
 .debug_aranges
                0x0000000000000808       0x20 /media/christoph/8A841458841448D9/space/altera_lite/15.1/nios2eds/bin/gnu/H-x86_64-pc-linux-gnu/bin/../lib/gcc/nios2-elf/4.9.2/../../../../../H-x86_64-pc-linux-gnu/nios2-elf/lib/mno-hw-mul/libc.a(lib_a-isattyr.o)
 .debug_aranges
                0x0000000000000828       0x20 /media/christoph/8A841458841448D9/space/altera_lite/15.1/nios2eds/bin/gnu/H-x86_64-pc-linux-gnu/bin/../lib/gcc/nios2-elf/4.9.2/../../../../../H-x86_64-pc-linux-gnu/nios2-elf/lib/mno-hw-mul/libc.a(lib_a-lseekr.o)
 .debug_aranges
                0x0000000000000848       0x20 /media/christoph/8A841458841448D9/space/altera_lite/15.1/nios2eds/bin/gnu/H-x86_64-pc-linux-gnu/bin/../lib/gcc/nios2-elf/4.9.2/../../../../../H-x86_64-pc-linux-gnu/nios2-elf/lib/mno-hw-mul/libc.a(lib_a-memmove.o)
 .debug_aranges
                0x0000000000000868       0x20 /media/christoph/8A841458841448D9/space/altera_lite/15.1/nios2eds/bin/gnu/H-x86_64-pc-linux-gnu/bin/../lib/gcc/nios2-elf/4.9.2/../../../../../H-x86_64-pc-linux-gnu/nios2-elf/lib/mno-hw-mul/libc.a(lib_a-readr.o)
 .debug_aranges
                0x0000000000000888       0x20 /media/christoph/8A841458841448D9/space/altera_lite/15.1/nios2eds/bin/gnu/H-x86_64-pc-linux-gnu/bin/../lib/gcc/nios2-elf/4.9.2/../../../../../H-x86_64-pc-linux-gnu/nios2-elf/lib/mno-hw-mul/libc.a(lib_a-reallocr.o)
 .debug_aranges
                0x00000000000008a8       0x28 /media/christoph/8A841458841448D9/space/altera_lite/15.1/nios2eds/bin/gnu/H-x86_64-pc-linux-gnu/bin/../lib/gcc/nios2-elf/4.9.2/../../../../../H-x86_64-pc-linux-gnu/nios2-elf/lib/mno-hw-mul/libc.a(lib_a-wbuf.o)
 .debug_aranges
                0x00000000000008d0       0x28 /media/christoph/8A841458841448D9/space/altera_lite/15.1/nios2eds/bin/gnu/H-x86_64-pc-linux-gnu/bin/../lib/gcc/nios2-elf/4.9.2/../../../../../H-x86_64-pc-linux-gnu/nios2-elf/lib/mno-hw-mul/libc.a(lib_a-wcrtomb.o)
 .debug_aranges
                0x00000000000008f8       0x28 /media/christoph/8A841458841448D9/space/altera_lite/15.1/nios2eds/bin/gnu/H-x86_64-pc-linux-gnu/bin/../lib/gcc/nios2-elf/4.9.2/../../../../../H-x86_64-pc-linux-gnu/nios2-elf/lib/mno-hw-mul/libc.a(lib_a-wctomb_r.o)
 .debug_aranges
                0x0000000000000920       0x20 /media/christoph/8A841458841448D9/space/altera_lite/15.1/nios2eds/bin/gnu/H-x86_64-pc-linux-gnu/bin/../lib/gcc/nios2-elf/4.9.2/mno-hw-mul/libgcc.a(_udivdi3.o)
 .debug_aranges
                0x0000000000000940       0x20 /media/christoph/8A841458841448D9/space/altera_lite/15.1/nios2eds/bin/gnu/H-x86_64-pc-linux-gnu/bin/../lib/gcc/nios2-elf/4.9.2/mno-hw-mul/libgcc.a(_umoddi3.o)
 .debug_aranges
                0x0000000000000960       0x20 /media/christoph/8A841458841448D9/space/altera_lite/15.1/nios2eds/bin/gnu/H-x86_64-pc-linux-gnu/bin/../lib/gcc/nios2-elf/4.9.2/mno-hw-mul/libgcc.a(adddf3.o)
 .debug_aranges
                0x0000000000000980       0x20 /media/christoph/8A841458841448D9/space/altera_lite/15.1/nios2eds/bin/gnu/H-x86_64-pc-linux-gnu/bin/../lib/gcc/nios2-elf/4.9.2/mno-hw-mul/libgcc.a(eqdf2.o)
 .debug_aranges
                0x00000000000009a0       0x20 /media/christoph/8A841458841448D9/space/altera_lite/15.1/nios2eds/bin/gnu/H-x86_64-pc-linux-gnu/bin/../lib/gcc/nios2-elf/4.9.2/mno-hw-mul/libgcc.a(floatunsidf.o)
 .debug_aranges
                0x00000000000009c0       0x20 ../Autonomous_Car_OS_bsp//libucosii_bsp.a(alt_close.o)
 .debug_aranges
                0x00000000000009e0       0x20 ../Autonomous_Car_OS_bsp//libucosii_bsp.a(alt_dev.o)
 .debug_aranges
                0x0000000000000a00       0x18 ../Autonomous_Car_OS_bsp//libucosii_bsp.a(alt_errno.o)
 .debug_aranges
                0x0000000000000a18       0x20 ../Autonomous_Car_OS_bsp//libucosii_bsp.a(alt_fstat.o)
 .debug_aranges
                0x0000000000000a38       0x20 ../Autonomous_Car_OS_bsp//libucosii_bsp.a(alt_iic.o)
 .debug_aranges
                0x0000000000000a58       0x20 ../Autonomous_Car_OS_bsp//libucosii_bsp.a(alt_iic_isr_register.o)
 .debug_aranges
                0x0000000000000a78       0x30 ../Autonomous_Car_OS_bsp//libucosii_bsp.a(alt_irq_entry.o)
 .debug_aranges
                0x0000000000000aa8       0x20 ../Autonomous_Car_OS_bsp//libucosii_bsp.a(alt_irq_handler.o)
 .debug_aranges
                0x0000000000000ac8       0x18 ../Autonomous_Car_OS_bsp//libucosii_bsp.a(alt_irq_vars.o)
 .debug_aranges
                0x0000000000000ae0       0x20 ../Autonomous_Car_OS_bsp//libucosii_bsp.a(alt_isatty.o)
 .debug_aranges
                0x0000000000000b00       0x20 ../Autonomous_Car_OS_bsp//libucosii_bsp.a(alt_lseek.o)
 .debug_aranges
                0x0000000000000b20       0x20 ../Autonomous_Car_OS_bsp//libucosii_bsp.a(alt_main.o)
 .debug_aranges
                0x0000000000000b40       0x20 ../Autonomous_Car_OS_bsp//libucosii_bsp.a(alt_read.o)
 .debug_aranges
                0x0000000000000b60       0x20 ../Autonomous_Car_OS_bsp//libucosii_bsp.a(alt_release_fd.o)
 .debug_aranges
                0x0000000000000b80       0x20 ../Autonomous_Car_OS_bsp//libucosii_bsp.a(alt_sbrk.o)
 .debug_aranges
                0x0000000000000ba0       0x20 ../Autonomous_Car_OS_bsp//libucosii_bsp.a(alt_write.o)
 .debug_aranges
                0x0000000000000bc0       0x20 ../Autonomous_Car_OS_bsp//libucosii_bsp.a(alt_env_lock.o)
 .debug_aranges
                0x0000000000000be0       0x20 ../Autonomous_Car_OS_bsp//libucosii_bsp.a(alt_malloc_lock.o)
 .debug_aranges
                0x0000000000000c00       0x20 ../Autonomous_Car_OS_bsp//libucosii_bsp.a(os_core.o)
 .debug_aranges
                0x0000000000000c20       0x20 ../Autonomous_Car_OS_bsp//libucosii_bsp.a(os_dbg.o)
 .debug_aranges
                0x0000000000000c40       0x20 ../Autonomous_Car_OS_bsp//libucosii_bsp.a(os_flag.o)
 .debug_aranges
                0x0000000000000c60       0x20 ../Autonomous_Car_OS_bsp//libucosii_bsp.a(os_mem.o)
 .debug_aranges
                0x0000000000000c80       0x20 ../Autonomous_Car_OS_bsp//libucosii_bsp.a(os_q.o)
 .debug_aranges
                0x0000000000000ca0       0x20 ../Autonomous_Car_OS_bsp//libucosii_bsp.a(os_sem.o)
 .debug_aranges
                0x0000000000000cc0       0x20 ../Autonomous_Car_OS_bsp//libucosii_bsp.a(os_task.o)
 .debug_aranges
                0x0000000000000ce0       0x20 ../Autonomous_Car_OS_bsp//libucosii_bsp.a(os_time.o)
 .debug_aranges
                0x0000000000000d00       0x20 ../Autonomous_Car_OS_bsp//libucosii_bsp.a(alt_sys_init.o)
 .debug_aranges
                0x0000000000000d20       0x20 ../Autonomous_Car_OS_bsp//libucosii_bsp.a(altera_avalon_epcs_flash_controller.o)
 .debug_aranges
                0x0000000000000d40       0x20 ../Autonomous_Car_OS_bsp//libucosii_bsp.a(altera_avalon_jtag_uart_fd.o)
 .debug_aranges
                0x0000000000000d60       0x20 ../Autonomous_Car_OS_bsp//libucosii_bsp.a(altera_avalon_jtag_uart_init.o)
 .debug_aranges
                0x0000000000000d80       0x20 ../Autonomous_Car_OS_bsp//libucosii_bsp.a(altera_avalon_jtag_uart_ioctl.o)
 .debug_aranges
                0x0000000000000da0       0x20 ../Autonomous_Car_OS_bsp//libucosii_bsp.a(altera_avalon_jtag_uart_read.o)
 .debug_aranges
                0x0000000000000dc0       0x20 ../Autonomous_Car_OS_bsp//libucosii_bsp.a(altera_avalon_jtag_uart_write.o)
 .debug_aranges
                0x0000000000000de0       0x20 ../Autonomous_Car_OS_bsp//libucosii_bsp.a(altera_avalon_timer_sc.o)
 .debug_aranges
                0x0000000000000e00       0x20 ../Autonomous_Car_OS_bsp//libucosii_bsp.a(altera_avalon_uart_fd.o)
 .debug_aranges
                0x0000000000000e20       0x20 ../Autonomous_Car_OS_bsp//libucosii_bsp.a(altera_avalon_uart_init.o)
 .debug_aranges
                0x0000000000000e40       0x20 ../Autonomous_Car_OS_bsp//libucosii_bsp.a(altera_avalon_uart_read.o)
 .debug_aranges
                0x0000000000000e60       0x20 ../Autonomous_Car_OS_bsp//libucosii_bsp.a(altera_avalon_uart_write.o)
 .debug_aranges
                0x0000000000000e80       0x20 ../Autonomous_Car_OS_bsp//libucosii_bsp.a(epcs_commands.o)
 .debug_aranges
                0x0000000000000ea0       0x20 ../Autonomous_Car_OS_bsp//libucosii_bsp.a(alt_alarm_start.o)
 .debug_aranges
                0x0000000000000ec0       0x20 ../Autonomous_Car_OS_bsp//libucosii_bsp.a(alt_dev_llist_insert.o)
 .debug_aranges
                0x0000000000000ee0       0x20 ../Autonomous_Car_OS_bsp//libucosii_bsp.a(alt_do_ctors.o)
 .debug_aranges
                0x0000000000000f00       0x20 ../Autonomous_Car_OS_bsp//libucosii_bsp.a(alt_do_dtors.o)
 .debug_aranges
                0x0000000000000f20       0x38 ../Autonomous_Car_OS_bsp//libucosii_bsp.a(alt_exception_entry.o)
 .debug_aranges
                0x0000000000000f58       0x20 ../Autonomous_Car_OS_bsp//libucosii_bsp.a(alt_flash_dev.o)
 .debug_aranges
                0x0000000000000f78       0x20 ../Autonomous_Car_OS_bsp//libucosii_bsp.a(alt_io_redirect.o)
 .debug_aranges
                0x0000000000000f98       0x20 ../Autonomous_Car_OS_bsp//libucosii_bsp.a(alt_open.o)
 .debug_aranges
                0x0000000000000fb8       0x20 ../Autonomous_Car_OS_bsp//libucosii_bsp.a(alt_tick.o)
 .debug_aranges
                0x0000000000000fd8       0x20 ../Autonomous_Car_OS_bsp//libucosii_bsp.a(altera_nios2_qsys_irq.o)
 .debug_aranges
                0x0000000000000ff8       0x20 ../Autonomous_Car_OS_bsp//libucosii_bsp.a(os_cpu_a.o)
 .debug_aranges
                0x0000000000001018       0x20 ../Autonomous_Car_OS_bsp//libucosii_bsp.a(os_cpu_c.o)
 .debug_aranges
                0x0000000000001038       0x20 ../Autonomous_Car_OS_bsp//libucosii_bsp.a(altera_avalon_spi.o)
 .debug_aranges
                0x0000000000001058       0x20 ../Autonomous_Car_OS_bsp//libucosii_bsp.a(alt_find_dev.o)
 .debug_aranges
                0x0000000000001078       0x20 ../Autonomous_Car_OS_bsp//libucosii_bsp.a(alt_find_file.o)
 .debug_aranges
                0x0000000000001098       0x20 ../Autonomous_Car_OS_bsp//libucosii_bsp.a(alt_get_fd.o)
 .debug_aranges
                0x00000000000010b8       0x20 /media/christoph/8A841458841448D9/space/altera_lite/15.1/nios2eds/bin/gnu/H-x86_64-pc-linux-gnu/bin/../lib/gcc/nios2-elf/4.9.2/../../../../../H-x86_64-pc-linux-gnu/nios2-elf/lib/mno-hw-mul/libc.a(lib_a-atexit.o)
 .debug_aranges
                0x00000000000010d8       0x20 /media/christoph/8A841458841448D9/space/altera_lite/15.1/nios2eds/bin/gnu/H-x86_64-pc-linux-gnu/bin/../lib/gcc/nios2-elf/4.9.2/../../../../../H-x86_64-pc-linux-gnu/nios2-elf/lib/mno-hw-mul/libc.a(lib_a-exit.o)
 .debug_aranges
                0x00000000000010f8       0x20 /media/christoph/8A841458841448D9/space/altera_lite/15.1/nios2eds/bin/gnu/H-x86_64-pc-linux-gnu/bin/../lib/gcc/nios2-elf/4.9.2/../../../../../H-x86_64-pc-linux-gnu/nios2-elf/lib/mno-hw-mul/libc.a(lib_a-memcmp.o)
 .debug_aranges
                0x0000000000001118       0x20 /media/christoph/8A841458841448D9/space/altera_lite/15.1/nios2eds/bin/gnu/H-x86_64-pc-linux-gnu/bin/../lib/gcc/nios2-elf/4.9.2/../../../../../H-x86_64-pc-linux-gnu/nios2-elf/lib/mno-hw-mul/libc.a(lib_a-__atexit.o)
 .debug_aranges
                0x0000000000001138       0x20 /media/christoph/8A841458841448D9/space/altera_lite/15.1/nios2eds/bin/gnu/H-x86_64-pc-linux-gnu/bin/../lib/gcc/nios2-elf/4.9.2/../../../../../H-x86_64-pc-linux-gnu/nios2-elf/lib/mno-hw-mul/libc.a(lib_a-__call_atexit.o)
 .debug_aranges
                0x0000000000001158       0x20 ../Autonomous_Car_OS_bsp//libucosii_bsp.a(alt_exit.o)

.debug_pubnames
 *(.debug_pubnames)

.debug_info     0x0000000000000000    0x2f9c1
 *(.debug_info .gnu.linkonce.wi.*)
 .debug_info    0x0000000000000000       0x83 ../Autonomous_Car_OS_bsp//obj/HAL/src/crt0.o
 .debug_info    0x0000000000000083       0xa8 obj/default/communication.o
 .debug_info    0x000000000000012b      0x1f4 obj/default/gps.o
 .debug_info    0x000000000000031f      0x2d6 obj/default/main.o
 .debug_info    0x00000000000005f5      0x2bf obj/default/motor.o
 .debug_info    0x00000000000008b4      0x1ff obj/default/uart.o
 .debug_info    0x0000000000000ab3       0xaa obj/default/ultrasound.o
 .debug_info    0x0000000000000b5d       0xc0 /media/christoph/8A841458841448D9/space/altera_lite/15.1/nios2eds/bin/gnu/H-x86_64-pc-linux-gnu/bin/../lib/gcc/nios2-elf/4.9.2/mno-hw-mul/libgcc.a(_fixunsdfsi.o)
 .debug_info    0x0000000000000c1d       0xb4 /media/christoph/8A841458841448D9/space/altera_lite/15.1/nios2eds/bin/gnu/H-x86_64-pc-linux-gnu/bin/../lib/gcc/nios2-elf/4.9.2/mno-hw-mul/libgcc.a(lib2-mul.o)
 .debug_info    0x0000000000000cd1      0x5be /media/christoph/8A841458841448D9/space/altera_lite/15.1/nios2eds/bin/gnu/H-x86_64-pc-linux-gnu/bin/../lib/gcc/nios2-elf/4.9.2/mno-hw-mul/libgcc.a(divdf3.o)
 .debug_info    0x000000000000128f      0x202 /media/christoph/8A841458841448D9/space/altera_lite/15.1/nios2eds/bin/gnu/H-x86_64-pc-linux-gnu/bin/../lib/gcc/nios2-elf/4.9.2/mno-hw-mul/libgcc.a(gedf2.o)
 .debug_info    0x0000000000001491      0x202 /media/christoph/8A841458841448D9/space/altera_lite/15.1/nios2eds/bin/gnu/H-x86_64-pc-linux-gnu/bin/../lib/gcc/nios2-elf/4.9.2/mno-hw-mul/libgcc.a(ledf2.o)
 .debug_info    0x0000000000001693      0x5f6 /media/christoph/8A841458841448D9/space/altera_lite/15.1/nios2eds/bin/gnu/H-x86_64-pc-linux-gnu/bin/../lib/gcc/nios2-elf/4.9.2/mno-hw-mul/libgcc.a(muldf3.o)
 .debug_info    0x0000000000001c89      0x4a2 /media/christoph/8A841458841448D9/space/altera_lite/15.1/nios2eds/bin/gnu/H-x86_64-pc-linux-gnu/bin/../lib/gcc/nios2-elf/4.9.2/mno-hw-mul/libgcc.a(subdf3.o)
 .debug_info    0x000000000000212b      0x1a6 /media/christoph/8A841458841448D9/space/altera_lite/15.1/nios2eds/bin/gnu/H-x86_64-pc-linux-gnu/bin/../lib/gcc/nios2-elf/4.9.2/mno-hw-mul/libgcc.a(fixdfsi.o)
 .debug_info    0x00000000000022d1      0x1b6 /media/christoph/8A841458841448D9/space/altera_lite/15.1/nios2eds/bin/gnu/H-x86_64-pc-linux-gnu/bin/../lib/gcc/nios2-elf/4.9.2/mno-hw-mul/libgcc.a(floatsidf.o)
 .debug_info    0x0000000000002487      0x119 /media/christoph/8A841458841448D9/space/altera_lite/15.1/nios2eds/bin/gnu/H-x86_64-pc-linux-gnu/bin/../lib/gcc/nios2-elf/4.9.2/mno-hw-mul/libgcc.a(_clzsi2.o)
 .debug_info    0x00000000000025a0      0x234 /media/christoph/8A841458841448D9/space/altera_lite/15.1/nios2eds/bin/gnu/H-x86_64-pc-linux-gnu/bin/../lib/gcc/nios2-elf/4.9.2/mno-hw-mul/libgcc.a(lib2-divmod.o)
 .debug_info    0x00000000000027d4       0xab /media/christoph/8A841458841448D9/space/altera_lite/15.1/nios2eds/bin/gnu/H-x86_64-pc-linux-gnu/bin/../lib/gcc/nios2-elf/4.9.2/mno-hw-mul/libgcc.a(_clz.o)
 .debug_info    0x000000000000287f      0x9bf /media/christoph/8A841458841448D9/space/altera_lite/15.1/nios2eds/bin/gnu/H-x86_64-pc-linux-gnu/bin/../lib/gcc/nios2-elf/4.9.2/../../../../../H-x86_64-pc-linux-gnu/nios2-elf/lib/mno-hw-mul/libc.a(lib_a-printf.o)
 .debug_info    0x000000000000323e       0xf5 /media/christoph/8A841458841448D9/space/altera_lite/15.1/nios2eds/bin/gnu/H-x86_64-pc-linux-gnu/bin/../lib/gcc/nios2-elf/4.9.2/../../../../../H-x86_64-pc-linux-gnu/nios2-elf/lib/mno-hw-mul/libc.a(lib_a-strncmp.o)
 .debug_info    0x0000000000003333      0x12a /media/christoph/8A841458841448D9/space/altera_lite/15.1/nios2eds/bin/gnu/H-x86_64-pc-linux-gnu/bin/../lib/gcc/nios2-elf/4.9.2/../../../../../H-x86_64-pc-linux-gnu/nios2-elf/lib/mno-hw-mul/libc.a(lib_a-strncpy.o)
 .debug_info    0x000000000000345d     0x1818 /media/christoph/8A841458841448D9/space/altera_lite/15.1/nios2eds/bin/gnu/H-x86_64-pc-linux-gnu/bin/../lib/gcc/nios2-elf/4.9.2/../../../../../H-x86_64-pc-linux-gnu/nios2-elf/lib/mno-hw-mul/libc.a(lib_a-vfprintf.o)
 .debug_info    0x0000000000004c75      0x946 /media/christoph/8A841458841448D9/space/altera_lite/15.1/nios2eds/bin/gnu/H-x86_64-pc-linux-gnu/bin/../lib/gcc/nios2-elf/4.9.2/../../../../../H-x86_64-pc-linux-gnu/nios2-elf/lib/mno-hw-mul/libc.a(lib_a-wsetup.o)
 .debug_info    0x00000000000055bb     0x1356 /media/christoph/8A841458841448D9/space/altera_lite/15.1/nios2eds/bin/gnu/H-x86_64-pc-linux-gnu/bin/../lib/gcc/nios2-elf/4.9.2/../../../../../H-x86_64-pc-linux-gnu/nios2-elf/lib/mno-hw-mul/libc.a(lib_a-dtoa.o)
 .debug_info    0x0000000000006911      0xac2 /media/christoph/8A841458841448D9/space/altera_lite/15.1/nios2eds/bin/gnu/H-x86_64-pc-linux-gnu/bin/../lib/gcc/nios2-elf/4.9.2/../../../../../H-x86_64-pc-linux-gnu/nios2-elf/lib/mno-hw-mul/libc.a(lib_a-fflush.o)
 .debug_info    0x00000000000073d3      0xda2 /media/christoph/8A841458841448D9/space/altera_lite/15.1/nios2eds/bin/gnu/H-x86_64-pc-linux-gnu/bin/../lib/gcc/nios2-elf/4.9.2/../../../../../H-x86_64-pc-linux-gnu/nios2-elf/lib/mno-hw-mul/libc.a(lib_a-findfp.o)
 .debug_info    0x0000000000008175      0xc12 /media/christoph/8A841458841448D9/space/altera_lite/15.1/nios2eds/bin/gnu/H-x86_64-pc-linux-gnu/bin/../lib/gcc/nios2-elf/4.9.2/../../../../../H-x86_64-pc-linux-gnu/nios2-elf/lib/mno-hw-mul/libc.a(lib_a-freer.o)
 .debug_info    0x0000000000008d87      0x9a9 /media/christoph/8A841458841448D9/space/altera_lite/15.1/nios2eds/bin/gnu/H-x86_64-pc-linux-gnu/bin/../lib/gcc/nios2-elf/4.9.2/../../../../../H-x86_64-pc-linux-gnu/nios2-elf/lib/mno-hw-mul/libc.a(lib_a-fwalk.o)
 .debug_info    0x0000000000009730      0x89f /media/christoph/8A841458841448D9/space/altera_lite/15.1/nios2eds/bin/gnu/H-x86_64-pc-linux-gnu/bin/../lib/gcc/nios2-elf/4.9.2/../../../../../H-x86_64-pc-linux-gnu/nios2-elf/lib/mno-hw-mul/libc.a(lib_a-impure.o)
 .debug_info    0x0000000000009fcf      0xc29 /media/christoph/8A841458841448D9/space/altera_lite/15.1/nios2eds/bin/gnu/H-x86_64-pc-linux-gnu/bin/../lib/gcc/nios2-elf/4.9.2/../../../../../H-x86_64-pc-linux-gnu/nios2-elf/lib/mno-hw-mul/libc.a(lib_a-locale.o)
 .debug_info    0x000000000000abf8      0xb04 /media/christoph/8A841458841448D9/space/altera_lite/15.1/nios2eds/bin/gnu/H-x86_64-pc-linux-gnu/bin/../lib/gcc/nios2-elf/4.9.2/../../../../../H-x86_64-pc-linux-gnu/nios2-elf/lib/mno-hw-mul/libc.a(lib_a-makebuf.o)
 .debug_info    0x000000000000b6fc      0xd81 /media/christoph/8A841458841448D9/space/altera_lite/15.1/nios2eds/bin/gnu/H-x86_64-pc-linux-gnu/bin/../lib/gcc/nios2-elf/4.9.2/../../../../../H-x86_64-pc-linux-gnu/nios2-elf/lib/mno-hw-mul/libc.a(lib_a-mallocr.o)
 .debug_info    0x000000000000c47d      0x12b /media/christoph/8A841458841448D9/space/altera_lite/15.1/nios2eds/bin/gnu/H-x86_64-pc-linux-gnu/bin/../lib/gcc/nios2-elf/4.9.2/../../../../../H-x86_64-pc-linux-gnu/nios2-elf/lib/mno-hw-mul/libc.a(lib_a-memchr.o)
 .debug_info    0x000000000000c5a8      0x133 /media/christoph/8A841458841448D9/space/altera_lite/15.1/nios2eds/bin/gnu/H-x86_64-pc-linux-gnu/bin/../lib/gcc/nios2-elf/4.9.2/../../../../../H-x86_64-pc-linux-gnu/nios2-elf/lib/mno-hw-mul/libc.a(lib_a-memcpy.o)
 .debug_info    0x000000000000c6db      0x11a /media/christoph/8A841458841448D9/space/altera_lite/15.1/nios2eds/bin/gnu/H-x86_64-pc-linux-gnu/bin/../lib/gcc/nios2-elf/4.9.2/../../../../../H-x86_64-pc-linux-gnu/nios2-elf/lib/mno-hw-mul/libc.a(lib_a-memset.o)
 .debug_info    0x000000000000c7f5     0x168c /media/christoph/8A841458841448D9/space/altera_lite/15.1/nios2eds/bin/gnu/H-x86_64-pc-linux-gnu/bin/../lib/gcc/nios2-elf/4.9.2/../../../../../H-x86_64-pc-linux-gnu/nios2-elf/lib/mno-hw-mul/libc.a(lib_a-mprec.o)
 .debug_info    0x000000000000de81       0xdc /media/christoph/8A841458841448D9/space/altera_lite/15.1/nios2eds/bin/gnu/H-x86_64-pc-linux-gnu/bin/../lib/gcc/nios2-elf/4.9.2/../../../../../H-x86_64-pc-linux-gnu/nios2-elf/lib/mno-hw-mul/libc.a(lib_a-s_fpclassify.o)
 .debug_info    0x000000000000df5d      0x8ff /media/christoph/8A841458841448D9/space/altera_lite/15.1/nios2eds/bin/gnu/H-x86_64-pc-linux-gnu/bin/../lib/gcc/nios2-elf/4.9.2/../../../../../H-x86_64-pc-linux-gnu/nios2-elf/lib/mno-hw-mul/libc.a(lib_a-sbrkr.o)
 .debug_info    0x000000000000e85c      0xb93 /media/christoph/8A841458841448D9/space/altera_lite/15.1/nios2eds/bin/gnu/H-x86_64-pc-linux-gnu/bin/../lib/gcc/nios2-elf/4.9.2/../../../../../H-x86_64-pc-linux-gnu/nios2-elf/lib/mno-hw-mul/libc.a(lib_a-stdio.o)
 .debug_info    0x000000000000f3ef       0xdd /media/christoph/8A841458841448D9/space/altera_lite/15.1/nios2eds/bin/gnu/H-x86_64-pc-linux-gnu/bin/../lib/gcc/nios2-elf/4.9.2/../../../../../H-x86_64-pc-linux-gnu/nios2-elf/lib/mno-hw-mul/libc.a(lib_a-strcmp.o)
 .debug_info    0x000000000000f4cc       0xdb /media/christoph/8A841458841448D9/space/altera_lite/15.1/nios2eds/bin/gnu/H-x86_64-pc-linux-gnu/bin/../lib/gcc/nios2-elf/4.9.2/../../../../../H-x86_64-pc-linux-gnu/nios2-elf/lib/mno-hw-mul/libc.a(lib_a-strlen.o)
 .debug_info    0x000000000000f5a7     0x15c1 /media/christoph/8A841458841448D9/space/altera_lite/15.1/nios2eds/bin/gnu/H-x86_64-pc-linux-gnu/bin/../lib/gcc/nios2-elf/4.9.2/../../../../../H-x86_64-pc-linux-gnu/nios2-elf/lib/mno-hw-mul/libc.a(lib_a-vfiprintf.o)
 .debug_info    0x0000000000010b68      0x931 /media/christoph/8A841458841448D9/space/altera_lite/15.1/nios2eds/bin/gnu/H-x86_64-pc-linux-gnu/bin/../lib/gcc/nios2-elf/4.9.2/../../../../../H-x86_64-pc-linux-gnu/nios2-elf/lib/mno-hw-mul/libc.a(lib_a-writer.o)
 .debug_info    0x0000000000011499      0x8de /media/christoph/8A841458841448D9/space/altera_lite/15.1/nios2eds/bin/gnu/H-x86_64-pc-linux-gnu/bin/../lib/gcc/nios2-elf/4.9.2/../../../../../H-x86_64-pc-linux-gnu/nios2-elf/lib/mno-hw-mul/libc.a(closer.o)
 .debug_info    0x0000000000011d77      0x9e5 /media/christoph/8A841458841448D9/space/altera_lite/15.1/nios2eds/bin/gnu/H-x86_64-pc-linux-gnu/bin/../lib/gcc/nios2-elf/4.9.2/../../../../../H-x86_64-pc-linux-gnu/nios2-elf/lib/mno-hw-mul/libc.a(lib_a-callocr.o)
 .debug_info    0x000000000001275c      0xa33 /media/christoph/8A841458841448D9/space/altera_lite/15.1/nios2eds/bin/gnu/H-x86_64-pc-linux-gnu/bin/../lib/gcc/nios2-elf/4.9.2/../../../../../H-x86_64-pc-linux-gnu/nios2-elf/lib/mno-hw-mul/libc.a(lib_a-fclose.o)
 .debug_info    0x000000000001318f      0xaef /media/christoph/8A841458841448D9/space/altera_lite/15.1/nios2eds/bin/gnu/H-x86_64-pc-linux-gnu/bin/../lib/gcc/nios2-elf/4.9.2/../../../../../H-x86_64-pc-linux-gnu/nios2-elf/lib/mno-hw-mul/libc.a(lib_a-fputwc.o)
 .debug_info    0x0000000000013c7e      0xa61 /media/christoph/8A841458841448D9/space/altera_lite/15.1/nios2eds/bin/gnu/H-x86_64-pc-linux-gnu/bin/../lib/gcc/nios2-elf/4.9.2/../../../../../H-x86_64-pc-linux-gnu/nios2-elf/lib/mno-hw-mul/libc.a(lib_a-fstatr.o)
 .debug_info    0x00000000000146df      0xc32 /media/christoph/8A841458841448D9/space/altera_lite/15.1/nios2eds/bin/gnu/H-x86_64-pc-linux-gnu/bin/../lib/gcc/nios2-elf/4.9.2/../../../../../H-x86_64-pc-linux-gnu/nios2-elf/lib/mno-hw-mul/libc.a(lib_a-fvwrite.o)
 .debug_info    0x0000000000015311       0x83 /media/christoph/8A841458841448D9/space/altera_lite/15.1/nios2eds/bin/gnu/H-x86_64-pc-linux-gnu/bin/../lib/gcc/nios2-elf/4.9.2/../../../../../H-x86_64-pc-linux-gnu/nios2-elf/lib/mno-hw-mul/libc.a(lib_a-int_errno.o)
 .debug_info    0x0000000000015394      0x8de /media/christoph/8A841458841448D9/space/altera_lite/15.1/nios2eds/bin/gnu/H-x86_64-pc-linux-gnu/bin/../lib/gcc/nios2-elf/4.9.2/../../../../../H-x86_64-pc-linux-gnu/nios2-elf/lib/mno-hw-mul/libc.a(lib_a-isattyr.o)
 .debug_info    0x0000000000015c72      0x91f /media/christoph/8A841458841448D9/space/altera_lite/15.1/nios2eds/bin/gnu/H-x86_64-pc-linux-gnu/bin/../lib/gcc/nios2-elf/4.9.2/../../../../../H-x86_64-pc-linux-gnu/nios2-elf/lib/mno-hw-mul/libc.a(lib_a-lseekr.o)
 .debug_info    0x0000000000016591      0x133 /media/christoph/8A841458841448D9/space/altera_lite/15.1/nios2eds/bin/gnu/H-x86_64-pc-linux-gnu/bin/../lib/gcc/nios2-elf/4.9.2/../../../../../H-x86_64-pc-linux-gnu/nios2-elf/lib/mno-hw-mul/libc.a(lib_a-memmove.o)
 .debug_info    0x00000000000166c4      0x92a /media/christoph/8A841458841448D9/space/altera_lite/15.1/nios2eds/bin/gnu/H-x86_64-pc-linux-gnu/bin/../lib/gcc/nios2-elf/4.9.2/../../../../../H-x86_64-pc-linux-gnu/nios2-elf/lib/mno-hw-mul/libc.a(lib_a-readr.o)
 .debug_info    0x0000000000016fee      0xcac /media/christoph/8A841458841448D9/space/altera_lite/15.1/nios2eds/bin/gnu/H-x86_64-pc-linux-gnu/bin/../lib/gcc/nios2-elf/4.9.2/../../../../../H-x86_64-pc-linux-gnu/nios2-elf/lib/mno-hw-mul/libc.a(lib_a-reallocr.o)
 .debug_info    0x0000000000017c9a      0x9d7 /media/christoph/8A841458841448D9/space/altera_lite/15.1/nios2eds/bin/gnu/H-x86_64-pc-linux-gnu/bin/../lib/gcc/nios2-elf/4.9.2/../../../../../H-x86_64-pc-linux-gnu/nios2-elf/lib/mno-hw-mul/libc.a(lib_a-wbuf.o)
 .debug_info    0x0000000000018671      0xa71 /media/christoph/8A841458841448D9/space/altera_lite/15.1/nios2eds/bin/gnu/H-x86_64-pc-linux-gnu/bin/../lib/gcc/nios2-elf/4.9.2/../../../../../H-x86_64-pc-linux-gnu/nios2-elf/lib/mno-hw-mul/libc.a(lib_a-wcrtomb.o)
 .debug_info    0x00000000000190e2      0x9aa /media/christoph/8A841458841448D9/space/altera_lite/15.1/nios2eds/bin/gnu/H-x86_64-pc-linux-gnu/bin/../lib/gcc/nios2-elf/4.9.2/../../../../../H-x86_64-pc-linux-gnu/nios2-elf/lib/mno-hw-mul/libc.a(lib_a-wctomb_r.o)
 .debug_info    0x0000000000019a8c      0x710 /media/christoph/8A841458841448D9/space/altera_lite/15.1/nios2eds/bin/gnu/H-x86_64-pc-linux-gnu/bin/../lib/gcc/nios2-elf/4.9.2/mno-hw-mul/libgcc.a(_udivdi3.o)
 .debug_info    0x000000000001a19c      0x767 /media/christoph/8A841458841448D9/space/altera_lite/15.1/nios2eds/bin/gnu/H-x86_64-pc-linux-gnu/bin/../lib/gcc/nios2-elf/4.9.2/mno-hw-mul/libgcc.a(_umoddi3.o)
 .debug_info    0x000000000001a903      0x485 /media/christoph/8A841458841448D9/space/altera_lite/15.1/nios2eds/bin/gnu/H-x86_64-pc-linux-gnu/bin/../lib/gcc/nios2-elf/4.9.2/mno-hw-mul/libgcc.a(adddf3.o)
 .debug_info    0x000000000001ad88      0x1e2 /media/christoph/8A841458841448D9/space/altera_lite/15.1/nios2eds/bin/gnu/H-x86_64-pc-linux-gnu/bin/../lib/gcc/nios2-elf/4.9.2/mno-hw-mul/libgcc.a(eqdf2.o)
 .debug_info    0x000000000001af6a      0x1af /media/christoph/8A841458841448D9/space/altera_lite/15.1/nios2eds/bin/gnu/H-x86_64-pc-linux-gnu/bin/../lib/gcc/nios2-elf/4.9.2/mno-hw-mul/libgcc.a(floatunsidf.o)
 .debug_info    0x000000000001b119      0x34e ../Autonomous_Car_OS_bsp//libucosii_bsp.a(alt_close.o)
 .debug_info    0x000000000001b467      0x57e ../Autonomous_Car_OS_bsp//libucosii_bsp.a(alt_dev.o)
 .debug_info    0x000000000001b9e5       0x9f ../Autonomous_Car_OS_bsp//libucosii_bsp.a(alt_errno.o)
 .debug_info    0x000000000001ba84      0x4b5 ../Autonomous_Car_OS_bsp//libucosii_bsp.a(alt_fstat.o)
 .debug_info    0x000000000001bf39      0x349 ../Autonomous_Car_OS_bsp//libucosii_bsp.a(alt_iic.o)
 .debug_info    0x000000000001c282      0x1e8 ../Autonomous_Car_OS_bsp//libucosii_bsp.a(alt_iic_isr_register.o)
 .debug_info    0x000000000001c46a       0x88 ../Autonomous_Car_OS_bsp//libucosii_bsp.a(alt_irq_entry.o)
 .debug_info    0x000000000001c4f2      0x1a9 ../Autonomous_Car_OS_bsp//libucosii_bsp.a(alt_irq_handler.o)
 .debug_info    0x000000000001c69b       0x88 ../Autonomous_Car_OS_bsp//libucosii_bsp.a(alt_irq_vars.o)
 .debug_info    0x000000000001c723      0x4b8 ../Autonomous_Car_OS_bsp//libucosii_bsp.a(alt_isatty.o)
 .debug_info    0x000000000001cbdb      0x37f ../Autonomous_Car_OS_bsp//libucosii_bsp.a(alt_lseek.o)
 .debug_info    0x000000000001cf5a      0x266 ../Autonomous_Car_OS_bsp//libucosii_bsp.a(alt_main.o)
 .debug_info    0x000000000001d1c0      0x4dd ../Autonomous_Car_OS_bsp//libucosii_bsp.a(alt_read.o)
 .debug_info    0x000000000001d69d      0x2f2 ../Autonomous_Car_OS_bsp//libucosii_bsp.a(alt_release_fd.o)
 .debug_info    0x000000000001d98f      0x1a5 ../Autonomous_Car_OS_bsp//libucosii_bsp.a(alt_sbrk.o)
 .debug_info    0x000000000001db34      0x4e4 ../Autonomous_Car_OS_bsp//libucosii_bsp.a(alt_write.o)
 .debug_info    0x000000000001e018      0xc60 ../Autonomous_Car_OS_bsp//libucosii_bsp.a(alt_env_lock.o)
 .debug_info    0x000000000001ec78      0xda6 ../Autonomous_Car_OS_bsp//libucosii_bsp.a(alt_malloc_lock.o)
 .debug_info    0x000000000001fa1e     0x1606 ../Autonomous_Car_OS_bsp//libucosii_bsp.a(os_core.o)
 .debug_info    0x0000000000021024      0xaa1 ../Autonomous_Car_OS_bsp//libucosii_bsp.a(os_dbg.o)
 .debug_info    0x0000000000021ac5      0xf95 ../Autonomous_Car_OS_bsp//libucosii_bsp.a(os_flag.o)
 .debug_info    0x0000000000022a5a      0x673 ../Autonomous_Car_OS_bsp//libucosii_bsp.a(os_mem.o)
 .debug_info    0x00000000000230cd      0xd9c ../Autonomous_Car_OS_bsp//libucosii_bsp.a(os_q.o)
 .debug_info    0x0000000000023e69      0x9fd ../Autonomous_Car_OS_bsp//libucosii_bsp.a(os_sem.o)
 .debug_info    0x0000000000024866     0x1110 ../Autonomous_Car_OS_bsp//libucosii_bsp.a(os_task.o)
 .debug_info    0x0000000000025976      0x6e2 ../Autonomous_Car_OS_bsp//libucosii_bsp.a(os_time.o)
 .debug_info    0x0000000000026058      0xa5d ../Autonomous_Car_OS_bsp//libucosii_bsp.a(alt_sys_init.o)
 .debug_info    0x0000000000026ab5      0x86b ../Autonomous_Car_OS_bsp//libucosii_bsp.a(altera_avalon_epcs_flash_controller.o)
 .debug_info    0x0000000000027320      0x674 ../Autonomous_Car_OS_bsp//libucosii_bsp.a(altera_avalon_jtag_uart_fd.o)
 .debug_info    0x0000000000027994      0x6b4 ../Autonomous_Car_OS_bsp//libucosii_bsp.a(altera_avalon_jtag_uart_init.o)
 .debug_info    0x0000000000028048      0x3c6 ../Autonomous_Car_OS_bsp//libucosii_bsp.a(altera_avalon_jtag_uart_ioctl.o)
 .debug_info    0x000000000002840e      0x578 ../Autonomous_Car_OS_bsp//libucosii_bsp.a(altera_avalon_jtag_uart_read.o)
 .debug_info    0x0000000000028986      0x572 ../Autonomous_Car_OS_bsp//libucosii_bsp.a(altera_avalon_jtag_uart_write.o)
 .debug_info    0x0000000000028ef8      0x21f ../Autonomous_Car_OS_bsp//libucosii_bsp.a(altera_avalon_timer_sc.o)
 .debug_info    0x0000000000029117      0x5a3 ../Autonomous_Car_OS_bsp//libucosii_bsp.a(altera_avalon_uart_fd.o)
 .debug_info    0x00000000000296ba      0x5e6 ../Autonomous_Car_OS_bsp//libucosii_bsp.a(altera_avalon_uart_init.o)
 .debug_info    0x0000000000029ca0      0x563 ../Autonomous_Car_OS_bsp//libucosii_bsp.a(altera_avalon_uart_read.o)
 .debug_info    0x000000000002a203      0x568 ../Autonomous_Car_OS_bsp//libucosii_bsp.a(altera_avalon_uart_write.o)
 .debug_info    0x000000000002a76b      0x448 ../Autonomous_Car_OS_bsp//libucosii_bsp.a(epcs_commands.o)
 .debug_info    0x000000000002abb3      0x2c5 ../Autonomous_Car_OS_bsp//libucosii_bsp.a(alt_alarm_start.o)
 .debug_info    0x000000000002ae78      0x1a2 ../Autonomous_Car_OS_bsp//libucosii_bsp.a(alt_dev_llist_insert.o)
 .debug_info    0x000000000002b01a       0x83 ../Autonomous_Car_OS_bsp//libucosii_bsp.a(alt_do_ctors.o)
 .debug_info    0x000000000002b09d       0x83 ../Autonomous_Car_OS_bsp//libucosii_bsp.a(alt_do_dtors.o)
 .debug_info    0x000000000002b120       0x8e ../Autonomous_Car_OS_bsp//libucosii_bsp.a(alt_exception_entry.o)
 .debug_info    0x000000000002b1ae      0x3f9 ../Autonomous_Car_OS_bsp//libucosii_bsp.a(alt_flash_dev.o)
 .debug_info    0x000000000002b5a7      0x4d2 ../Autonomous_Car_OS_bsp//libucosii_bsp.a(alt_io_redirect.o)
 .debug_info    0x000000000002ba79      0x3dd ../Autonomous_Car_OS_bsp//libucosii_bsp.a(alt_open.o)
 .debug_info    0x000000000002be56      0x2a0 ../Autonomous_Car_OS_bsp//libucosii_bsp.a(alt_tick.o)
 .debug_info    0x000000000002c0f6       0x8b ../Autonomous_Car_OS_bsp//libucosii_bsp.a(altera_nios2_qsys_irq.o)
 .debug_info    0x000000000002c181       0x87 ../Autonomous_Car_OS_bsp//libucosii_bsp.a(os_cpu_a.o)
 .debug_info    0x000000000002c208      0xce3 ../Autonomous_Car_OS_bsp//libucosii_bsp.a(os_cpu_c.o)
 .debug_info    0x000000000002ceeb      0x186 ../Autonomous_Car_OS_bsp//libucosii_bsp.a(altera_avalon_spi.o)
 .debug_info    0x000000000002d071      0x316 ../Autonomous_Car_OS_bsp//libucosii_bsp.a(alt_find_dev.o)
 .debug_info    0x000000000002d387      0x313 ../Autonomous_Car_OS_bsp//libucosii_bsp.a(alt_find_file.o)
 .debug_info    0x000000000002d69a      0x444 ../Autonomous_Car_OS_bsp//libucosii_bsp.a(alt_get_fd.o)
 .debug_info    0x000000000002dade      0x10a /media/christoph/8A841458841448D9/space/altera_lite/15.1/nios2eds/bin/gnu/H-x86_64-pc-linux-gnu/bin/../lib/gcc/nios2-elf/4.9.2/../../../../../H-x86_64-pc-linux-gnu/nios2-elf/lib/mno-hw-mul/libc.a(lib_a-atexit.o)
 .debug_info    0x000000000002dbe8      0x8ef /media/christoph/8A841458841448D9/space/altera_lite/15.1/nios2eds/bin/gnu/H-x86_64-pc-linux-gnu/bin/../lib/gcc/nios2-elf/4.9.2/../../../../../H-x86_64-pc-linux-gnu/nios2-elf/lib/mno-hw-mul/libc.a(lib_a-exit.o)
 .debug_info    0x000000000002e4d7      0x113 /media/christoph/8A841458841448D9/space/altera_lite/15.1/nios2eds/bin/gnu/H-x86_64-pc-linux-gnu/bin/../lib/gcc/nios2-elf/4.9.2/../../../../../H-x86_64-pc-linux-gnu/nios2-elf/lib/mno-hw-mul/libc.a(lib_a-memcmp.o)
 .debug_info    0x000000000002e5ea      0x93f /media/christoph/8A841458841448D9/space/altera_lite/15.1/nios2eds/bin/gnu/H-x86_64-pc-linux-gnu/bin/../lib/gcc/nios2-elf/4.9.2/../../../../../H-x86_64-pc-linux-gnu/nios2-elf/lib/mno-hw-mul/libc.a(lib_a-__atexit.o)
 .debug_info    0x000000000002ef29      0x964 /media/christoph/8A841458841448D9/space/altera_lite/15.1/nios2eds/bin/gnu/H-x86_64-pc-linux-gnu/bin/../lib/gcc/nios2-elf/4.9.2/../../../../../H-x86_64-pc-linux-gnu/nios2-elf/lib/mno-hw-mul/libc.a(lib_a-__call_atexit.o)
 .debug_info    0x000000000002f88d      0x134 ../Autonomous_Car_OS_bsp//libucosii_bsp.a(alt_exit.o)

.debug_abbrev   0x0000000000000000     0xb794
 *(.debug_abbrev)
 .debug_abbrev  0x0000000000000000       0x14 ../Autonomous_Car_OS_bsp//obj/HAL/src/crt0.o
 .debug_abbrev  0x0000000000000014       0x76 obj/default/communication.o
 .debug_abbrev  0x000000000000008a       0xf0 obj/default/gps.o
 .debug_abbrev  0x000000000000017a      0x117 obj/default/main.o
 .debug_abbrev  0x0000000000000291       0x8c obj/default/motor.o
 .debug_abbrev  0x000000000000031d      0x104 obj/default/uart.o
 .debug_abbrev  0x0000000000000421       0x7e obj/default/ultrasound.o
 .debug_abbrev  0x000000000000049f       0x60 /media/christoph/8A841458841448D9/space/altera_lite/15.1/nios2eds/bin/gnu/H-x86_64-pc-linux-gnu/bin/../lib/gcc/nios2-elf/4.9.2/mno-hw-mul/libgcc.a(_fixunsdfsi.o)
 .debug_abbrev  0x00000000000004ff       0x6f /media/christoph/8A841458841448D9/space/altera_lite/15.1/nios2eds/bin/gnu/H-x86_64-pc-linux-gnu/bin/../lib/gcc/nios2-elf/4.9.2/mno-hw-mul/libgcc.a(lib2-mul.o)
 .debug_abbrev  0x000000000000056e      0x120 /media/christoph/8A841458841448D9/space/altera_lite/15.1/nios2eds/bin/gnu/H-x86_64-pc-linux-gnu/bin/../lib/gcc/nios2-elf/4.9.2/mno-hw-mul/libgcc.a(divdf3.o)
 .debug_abbrev  0x000000000000068e      0x137 /media/christoph/8A841458841448D9/space/altera_lite/15.1/nios2eds/bin/gnu/H-x86_64-pc-linux-gnu/bin/../lib/gcc/nios2-elf/4.9.2/mno-hw-mul/libgcc.a(gedf2.o)
 .debug_abbrev  0x00000000000007c5      0x137 /media/christoph/8A841458841448D9/space/altera_lite/15.1/nios2eds/bin/gnu/H-x86_64-pc-linux-gnu/bin/../lib/gcc/nios2-elf/4.9.2/mno-hw-mul/libgcc.a(ledf2.o)
 .debug_abbrev  0x00000000000008fc      0x132 /media/christoph/8A841458841448D9/space/altera_lite/15.1/nios2eds/bin/gnu/H-x86_64-pc-linux-gnu/bin/../lib/gcc/nios2-elf/4.9.2/mno-hw-mul/libgcc.a(muldf3.o)
 .debug_abbrev  0x0000000000000a2e      0x133 /media/christoph/8A841458841448D9/space/altera_lite/15.1/nios2eds/bin/gnu/H-x86_64-pc-linux-gnu/bin/../lib/gcc/nios2-elf/4.9.2/mno-hw-mul/libgcc.a(subdf3.o)
 .debug_abbrev  0x0000000000000b61      0x119 /media/christoph/8A841458841448D9/space/altera_lite/15.1/nios2eds/bin/gnu/H-x86_64-pc-linux-gnu/bin/../lib/gcc/nios2-elf/4.9.2/mno-hw-mul/libgcc.a(fixdfsi.o)
 .debug_abbrev  0x0000000000000c7a      0x11e /media/christoph/8A841458841448D9/space/altera_lite/15.1/nios2eds/bin/gnu/H-x86_64-pc-linux-gnu/bin/../lib/gcc/nios2-elf/4.9.2/mno-hw-mul/libgcc.a(floatsidf.o)
 .debug_abbrev  0x0000000000000d98       0xaf /media/christoph/8A841458841448D9/space/altera_lite/15.1/nios2eds/bin/gnu/H-x86_64-pc-linux-gnu/bin/../lib/gcc/nios2-elf/4.9.2/mno-hw-mul/libgcc.a(_clzsi2.o)
 .debug_abbrev  0x0000000000000e47       0xd9 /media/christoph/8A841458841448D9/space/altera_lite/15.1/nios2eds/bin/gnu/H-x86_64-pc-linux-gnu/bin/../lib/gcc/nios2-elf/4.9.2/mno-hw-mul/libgcc.a(lib2-divmod.o)
 .debug_abbrev  0x0000000000000f20       0x5d /media/christoph/8A841458841448D9/space/altera_lite/15.1/nios2eds/bin/gnu/H-x86_64-pc-linux-gnu/bin/../lib/gcc/nios2-elf/4.9.2/mno-hw-mul/libgcc.a(_clz.o)
 .debug_abbrev  0x0000000000000f7d      0x243 /media/christoph/8A841458841448D9/space/altera_lite/15.1/nios2eds/bin/gnu/H-x86_64-pc-linux-gnu/bin/../lib/gcc/nios2-elf/4.9.2/../../../../../H-x86_64-pc-linux-gnu/nios2-elf/lib/mno-hw-mul/libc.a(lib_a-printf.o)
 .debug_abbrev  0x00000000000011c0       0x81 /media/christoph/8A841458841448D9/space/altera_lite/15.1/nios2eds/bin/gnu/H-x86_64-pc-linux-gnu/bin/../lib/gcc/nios2-elf/4.9.2/../../../../../H-x86_64-pc-linux-gnu/nios2-elf/lib/mno-hw-mul/libc.a(lib_a-strncmp.o)
 .debug_abbrev  0x0000000000001241       0x90 /media/christoph/8A841458841448D9/space/altera_lite/15.1/nios2eds/bin/gnu/H-x86_64-pc-linux-gnu/bin/../lib/gcc/nios2-elf/4.9.2/../../../../../H-x86_64-pc-linux-gnu/nios2-elf/lib/mno-hw-mul/libc.a(lib_a-strncpy.o)
 .debug_abbrev  0x00000000000012d1      0x3d8 /media/christoph/8A841458841448D9/space/altera_lite/15.1/nios2eds/bin/gnu/H-x86_64-pc-linux-gnu/bin/../lib/gcc/nios2-elf/4.9.2/../../../../../H-x86_64-pc-linux-gnu/nios2-elf/lib/mno-hw-mul/libc.a(lib_a-vfprintf.o)
 .debug_abbrev  0x00000000000016a9      0x21a /media/christoph/8A841458841448D9/space/altera_lite/15.1/nios2eds/bin/gnu/H-x86_64-pc-linux-gnu/bin/../lib/gcc/nios2-elf/4.9.2/../../../../../H-x86_64-pc-linux-gnu/nios2-elf/lib/mno-hw-mul/libc.a(lib_a-wsetup.o)
 .debug_abbrev  0x00000000000018c3      0x2d6 /media/christoph/8A841458841448D9/space/altera_lite/15.1/nios2eds/bin/gnu/H-x86_64-pc-linux-gnu/bin/../lib/gcc/nios2-elf/4.9.2/../../../../../H-x86_64-pc-linux-gnu/nios2-elf/lib/mno-hw-mul/libc.a(lib_a-dtoa.o)
 .debug_abbrev  0x0000000000001b99      0x2a0 /media/christoph/8A841458841448D9/space/altera_lite/15.1/nios2eds/bin/gnu/H-x86_64-pc-linux-gnu/bin/../lib/gcc/nios2-elf/4.9.2/../../../../../H-x86_64-pc-linux-gnu/nios2-elf/lib/mno-hw-mul/libc.a(lib_a-fflush.o)
 .debug_abbrev  0x0000000000001e39      0x36c /media/christoph/8A841458841448D9/space/altera_lite/15.1/nios2eds/bin/gnu/H-x86_64-pc-linux-gnu/bin/../lib/gcc/nios2-elf/4.9.2/../../../../../H-x86_64-pc-linux-gnu/nios2-elf/lib/mno-hw-mul/libc.a(lib_a-findfp.o)
 .debug_abbrev  0x00000000000021a5      0x27b /media/christoph/8A841458841448D9/space/altera_lite/15.1/nios2eds/bin/gnu/H-x86_64-pc-linux-gnu/bin/../lib/gcc/nios2-elf/4.9.2/../../../../../H-x86_64-pc-linux-gnu/nios2-elf/lib/mno-hw-mul/libc.a(lib_a-freer.o)
 .debug_abbrev  0x0000000000002420      0x1d1 /media/christoph/8A841458841448D9/space/altera_lite/15.1/nios2eds/bin/gnu/H-x86_64-pc-linux-gnu/bin/../lib/gcc/nios2-elf/4.9.2/../../../../../H-x86_64-pc-linux-gnu/nios2-elf/lib/mno-hw-mul/libc.a(lib_a-fwalk.o)
 .debug_abbrev  0x00000000000025f1      0x18f /media/christoph/8A841458841448D9/space/altera_lite/15.1/nios2eds/bin/gnu/H-x86_64-pc-linux-gnu/bin/../lib/gcc/nios2-elf/4.9.2/../../../../../H-x86_64-pc-linux-gnu/nios2-elf/lib/mno-hw-mul/libc.a(lib_a-impure.o)
 .debug_abbrev  0x0000000000002780      0x2c2 /media/christoph/8A841458841448D9/space/altera_lite/15.1/nios2eds/bin/gnu/H-x86_64-pc-linux-gnu/bin/../lib/gcc/nios2-elf/4.9.2/../../../../../H-x86_64-pc-linux-gnu/nios2-elf/lib/mno-hw-mul/libc.a(lib_a-locale.o)
 .debug_abbrev  0x0000000000002a42      0x215 /media/christoph/8A841458841448D9/space/altera_lite/15.1/nios2eds/bin/gnu/H-x86_64-pc-linux-gnu/bin/../lib/gcc/nios2-elf/4.9.2/../../../../../H-x86_64-pc-linux-gnu/nios2-elf/lib/mno-hw-mul/libc.a(lib_a-makebuf.o)
 .debug_abbrev  0x0000000000002c57      0x2ad /media/christoph/8A841458841448D9/space/altera_lite/15.1/nios2eds/bin/gnu/H-x86_64-pc-linux-gnu/bin/../lib/gcc/nios2-elf/4.9.2/../../../../../H-x86_64-pc-linux-gnu/nios2-elf/lib/mno-hw-mul/libc.a(lib_a-mallocr.o)
 .debug_abbrev  0x0000000000002f04       0xab /media/christoph/8A841458841448D9/space/altera_lite/15.1/nios2eds/bin/gnu/H-x86_64-pc-linux-gnu/bin/../lib/gcc/nios2-elf/4.9.2/../../../../../H-x86_64-pc-linux-gnu/nios2-elf/lib/mno-hw-mul/libc.a(lib_a-memchr.o)
 .debug_abbrev  0x0000000000002faf       0x9c /media/christoph/8A841458841448D9/space/altera_lite/15.1/nios2eds/bin/gnu/H-x86_64-pc-linux-gnu/bin/../lib/gcc/nios2-elf/4.9.2/../../../../../H-x86_64-pc-linux-gnu/nios2-elf/lib/mno-hw-mul/libc.a(lib_a-memcpy.o)
 .debug_abbrev  0x000000000000304b       0xae /media/christoph/8A841458841448D9/space/altera_lite/15.1/nios2eds/bin/gnu/H-x86_64-pc-linux-gnu/bin/../lib/gcc/nios2-elf/4.9.2/../../../../../H-x86_64-pc-linux-gnu/nios2-elf/lib/mno-hw-mul/libc.a(lib_a-memset.o)
 .debug_abbrev  0x00000000000030f9      0x3e4 /media/christoph/8A841458841448D9/space/altera_lite/15.1/nios2eds/bin/gnu/H-x86_64-pc-linux-gnu/bin/../lib/gcc/nios2-elf/4.9.2/../../../../../H-x86_64-pc-linux-gnu/nios2-elf/lib/mno-hw-mul/libc.a(lib_a-mprec.o)
 .debug_abbrev  0x00000000000034dd       0x7e /media/christoph/8A841458841448D9/space/altera_lite/15.1/nios2eds/bin/gnu/H-x86_64-pc-linux-gnu/bin/../lib/gcc/nios2-elf/4.9.2/../../../../../H-x86_64-pc-linux-gnu/nios2-elf/lib/mno-hw-mul/libc.a(lib_a-s_fpclassify.o)
 .debug_abbrev  0x000000000000355b      0x20c /media/christoph/8A841458841448D9/space/altera_lite/15.1/nios2eds/bin/gnu/H-x86_64-pc-linux-gnu/bin/../lib/gcc/nios2-elf/4.9.2/../../../../../H-x86_64-pc-linux-gnu/nios2-elf/lib/mno-hw-mul/libc.a(lib_a-sbrkr.o)
 .debug_abbrev  0x0000000000003767      0x255 /media/christoph/8A841458841448D9/space/altera_lite/15.1/nios2eds/bin/gnu/H-x86_64-pc-linux-gnu/bin/../lib/gcc/nios2-elf/4.9.2/../../../../../H-x86_64-pc-linux-gnu/nios2-elf/lib/mno-hw-mul/libc.a(lib_a-stdio.o)
 .debug_abbrev  0x00000000000039bc       0x74 /media/christoph/8A841458841448D9/space/altera_lite/15.1/nios2eds/bin/gnu/H-x86_64-pc-linux-gnu/bin/../lib/gcc/nios2-elf/4.9.2/../../../../../H-x86_64-pc-linux-gnu/nios2-elf/lib/mno-hw-mul/libc.a(lib_a-strcmp.o)
 .debug_abbrev  0x0000000000003a30       0x90 /media/christoph/8A841458841448D9/space/altera_lite/15.1/nios2eds/bin/gnu/H-x86_64-pc-linux-gnu/bin/../lib/gcc/nios2-elf/4.9.2/../../../../../H-x86_64-pc-linux-gnu/nios2-elf/lib/mno-hw-mul/libc.a(lib_a-strlen.o)
 .debug_abbrev  0x0000000000003ac0      0x3e7 /media/christoph/8A841458841448D9/space/altera_lite/15.1/nios2eds/bin/gnu/H-x86_64-pc-linux-gnu/bin/../lib/gcc/nios2-elf/4.9.2/../../../../../H-x86_64-pc-linux-gnu/nios2-elf/lib/mno-hw-mul/libc.a(lib_a-vfiprintf.o)
 .debug_abbrev  0x0000000000003ea7      0x1ed /media/christoph/8A841458841448D9/space/altera_lite/15.1/nios2eds/bin/gnu/H-x86_64-pc-linux-gnu/bin/../lib/gcc/nios2-elf/4.9.2/../../../../../H-x86_64-pc-linux-gnu/nios2-elf/lib/mno-hw-mul/libc.a(lib_a-writer.o)
 .debug_abbrev  0x0000000000004094      0x1e8 /media/christoph/8A841458841448D9/space/altera_lite/15.1/nios2eds/bin/gnu/H-x86_64-pc-linux-gnu/bin/../lib/gcc/nios2-elf/4.9.2/../../../../../H-x86_64-pc-linux-gnu/nios2-elf/lib/mno-hw-mul/libc.a(closer.o)
 .debug_abbrev  0x000000000000427c      0x213 /media/christoph/8A841458841448D9/space/altera_lite/15.1/nios2eds/bin/gnu/H-x86_64-pc-linux-gnu/bin/../lib/gcc/nios2-elf/4.9.2/../../../../../H-x86_64-pc-linux-gnu/nios2-elf/lib/mno-hw-mul/libc.a(lib_a-callocr.o)
 .debug_abbrev  0x000000000000448f      0x2b9 /media/christoph/8A841458841448D9/space/altera_lite/15.1/nios2eds/bin/gnu/H-x86_64-pc-linux-gnu/bin/../lib/gcc/nios2-elf/4.9.2/../../../../../H-x86_64-pc-linux-gnu/nios2-elf/lib/mno-hw-mul/libc.a(lib_a-fclose.o)
 .debug_abbrev  0x0000000000004748      0x2b2 /media/christoph/8A841458841448D9/space/altera_lite/15.1/nios2eds/bin/gnu/H-x86_64-pc-linux-gnu/bin/../lib/gcc/nios2-elf/4.9.2/../../../../../H-x86_64-pc-linux-gnu/nios2-elf/lib/mno-hw-mul/libc.a(lib_a-fputwc.o)
 .debug_abbrev  0x00000000000049fa      0x1f7 /media/christoph/8A841458841448D9/space/altera_lite/15.1/nios2eds/bin/gnu/H-x86_64-pc-linux-gnu/bin/../lib/gcc/nios2-elf/4.9.2/../../../../../H-x86_64-pc-linux-gnu/nios2-elf/lib/mno-hw-mul/libc.a(lib_a-fstatr.o)
 .debug_abbrev  0x0000000000004bf1      0x256 /media/christoph/8A841458841448D9/space/altera_lite/15.1/nios2eds/bin/gnu/H-x86_64-pc-linux-gnu/bin/../lib/gcc/nios2-elf/4.9.2/../../../../../H-x86_64-pc-linux-gnu/nios2-elf/lib/mno-hw-mul/libc.a(lib_a-fvwrite.o)
 .debug_abbrev  0x0000000000004e47       0x37 /media/christoph/8A841458841448D9/space/altera_lite/15.1/nios2eds/bin/gnu/H-x86_64-pc-linux-gnu/bin/../lib/gcc/nios2-elf/4.9.2/../../../../../H-x86_64-pc-linux-gnu/nios2-elf/lib/mno-hw-mul/libc.a(lib_a-int_errno.o)
 .debug_abbrev  0x0000000000004e7e      0x1e8 /media/christoph/8A841458841448D9/space/altera_lite/15.1/nios2eds/bin/gnu/H-x86_64-pc-linux-gnu/bin/../lib/gcc/nios2-elf/4.9.2/../../../../../H-x86_64-pc-linux-gnu/nios2-elf/lib/mno-hw-mul/libc.a(lib_a-isattyr.o)
 .debug_abbrev  0x0000000000005066      0x1f7 /media/christoph/8A841458841448D9/space/altera_lite/15.1/nios2eds/bin/gnu/H-x86_64-pc-linux-gnu/bin/../lib/gcc/nios2-elf/4.9.2/../../../../../H-x86_64-pc-linux-gnu/nios2-elf/lib/mno-hw-mul/libc.a(lib_a-lseekr.o)
 .debug_abbrev  0x000000000000525d       0x9c /media/christoph/8A841458841448D9/space/altera_lite/15.1/nios2eds/bin/gnu/H-x86_64-pc-linux-gnu/bin/../lib/gcc/nios2-elf/4.9.2/../../../../../H-x86_64-pc-linux-gnu/nios2-elf/lib/mno-hw-mul/libc.a(lib_a-memmove.o)
 .debug_abbrev  0x00000000000052f9      0x1e8 /media/christoph/8A841458841448D9/space/altera_lite/15.1/nios2eds/bin/gnu/H-x86_64-pc-linux-gnu/bin/../lib/gcc/nios2-elf/4.9.2/../../../../../H-x86_64-pc-linux-gnu/nios2-elf/lib/mno-hw-mul/libc.a(lib_a-readr.o)
 .debug_abbrev  0x00000000000054e1      0x25e /media/christoph/8A841458841448D9/space/altera_lite/15.1/nios2eds/bin/gnu/H-x86_64-pc-linux-gnu/bin/../lib/gcc/nios2-elf/4.9.2/../../../../../H-x86_64-pc-linux-gnu/nios2-elf/lib/mno-hw-mul/libc.a(lib_a-reallocr.o)
 .debug_abbrev  0x000000000000573f      0x26a /media/christoph/8A841458841448D9/space/altera_lite/15.1/nios2eds/bin/gnu/H-x86_64-pc-linux-gnu/bin/../lib/gcc/nios2-elf/4.9.2/../../../../../H-x86_64-pc-linux-gnu/nios2-elf/lib/mno-hw-mul/libc.a(lib_a-wbuf.o)
 .debug_abbrev  0x00000000000059a9      0x22b /media/christoph/8A841458841448D9/space/altera_lite/15.1/nios2eds/bin/gnu/H-x86_64-pc-linux-gnu/bin/../lib/gcc/nios2-elf/4.9.2/../../../../../H-x86_64-pc-linux-gnu/nios2-elf/lib/mno-hw-mul/libc.a(lib_a-wcrtomb.o)
 .debug_abbrev  0x0000000000005bd4      0x221 /media/christoph/8A841458841448D9/space/altera_lite/15.1/nios2eds/bin/gnu/H-x86_64-pc-linux-gnu/bin/../lib/gcc/nios2-elf/4.9.2/../../../../../H-x86_64-pc-linux-gnu/nios2-elf/lib/mno-hw-mul/libc.a(lib_a-wctomb_r.o)
 .debug_abbrev  0x0000000000005df5      0x170 /media/christoph/8A841458841448D9/space/altera_lite/15.1/nios2eds/bin/gnu/H-x86_64-pc-linux-gnu/bin/../lib/gcc/nios2-elf/4.9.2/mno-hw-mul/libgcc.a(_udivdi3.o)
 .debug_abbrev  0x0000000000005f65      0x19c /media/christoph/8A841458841448D9/space/altera_lite/15.1/nios2eds/bin/gnu/H-x86_64-pc-linux-gnu/bin/../lib/gcc/nios2-elf/4.9.2/mno-hw-mul/libgcc.a(_umoddi3.o)
 .debug_abbrev  0x0000000000006101      0x13a /media/christoph/8A841458841448D9/space/altera_lite/15.1/nios2eds/bin/gnu/H-x86_64-pc-linux-gnu/bin/../lib/gcc/nios2-elf/4.9.2/mno-hw-mul/libgcc.a(adddf3.o)
 .debug_abbrev  0x000000000000623b      0x128 /media/christoph/8A841458841448D9/space/altera_lite/15.1/nios2eds/bin/gnu/H-x86_64-pc-linux-gnu/bin/../lib/gcc/nios2-elf/4.9.2/mno-hw-mul/libgcc.a(eqdf2.o)
 .debug_abbrev  0x0000000000006363      0x117 /media/christoph/8A841458841448D9/space/altera_lite/15.1/nios2eds/bin/gnu/H-x86_64-pc-linux-gnu/bin/../lib/gcc/nios2-elf/4.9.2/mno-hw-mul/libgcc.a(floatunsidf.o)
 .debug_abbrev  0x000000000000647a      0x126 ../Autonomous_Car_OS_bsp//libucosii_bsp.a(alt_close.o)
 .debug_abbrev  0x00000000000065a0      0x11c ../Autonomous_Car_OS_bsp//libucosii_bsp.a(alt_dev.o)
 .debug_abbrev  0x00000000000066bc       0x5a ../Autonomous_Car_OS_bsp//libucosii_bsp.a(alt_errno.o)
 .debug_abbrev  0x0000000000006716      0x126 ../Autonomous_Car_OS_bsp//libucosii_bsp.a(alt_fstat.o)
 .debug_abbrev  0x000000000000683c      0x163 ../Autonomous_Car_OS_bsp//libucosii_bsp.a(alt_iic.o)
 .debug_abbrev  0x000000000000699f      0x169 ../Autonomous_Car_OS_bsp//libucosii_bsp.a(alt_iic_isr_register.o)
 .debug_abbrev  0x0000000000006b08       0x12 ../Autonomous_Car_OS_bsp//libucosii_bsp.a(alt_irq_entry.o)
 .debug_abbrev  0x0000000000006b1a      0x13a ../Autonomous_Car_OS_bsp//libucosii_bsp.a(alt_irq_handler.o)
 .debug_abbrev  0x0000000000006c54       0x40 ../Autonomous_Car_OS_bsp//libucosii_bsp.a(alt_irq_vars.o)
 .debug_abbrev  0x0000000000006c94      0x126 ../Autonomous_Car_OS_bsp//libucosii_bsp.a(alt_isatty.o)
 .debug_abbrev  0x0000000000006dba      0x126 ../Autonomous_Car_OS_bsp//libucosii_bsp.a(alt_lseek.o)
 .debug_abbrev  0x0000000000006ee0      0x139 ../Autonomous_Car_OS_bsp//libucosii_bsp.a(alt_main.o)
 .debug_abbrev  0x0000000000007019      0x135 ../Autonomous_Car_OS_bsp//libucosii_bsp.a(alt_read.o)
 .debug_abbrev  0x000000000000714e       0xe5 ../Autonomous_Car_OS_bsp//libucosii_bsp.a(alt_release_fd.o)
 .debug_abbrev  0x0000000000007233      0x112 ../Autonomous_Car_OS_bsp//libucosii_bsp.a(alt_sbrk.o)
 .debug_abbrev  0x0000000000007345      0x13a ../Autonomous_Car_OS_bsp//libucosii_bsp.a(alt_write.o)
 .debug_abbrev  0x000000000000747f      0x1e3 ../Autonomous_Car_OS_bsp//libucosii_bsp.a(alt_env_lock.o)
 .debug_abbrev  0x0000000000007662      0x26d ../Autonomous_Car_OS_bsp//libucosii_bsp.a(alt_malloc_lock.o)
 .debug_abbrev  0x00000000000078cf      0x302 ../Autonomous_Car_OS_bsp//libucosii_bsp.a(os_core.o)
 .debug_abbrev  0x0000000000007bd1       0xf7 ../Autonomous_Car_OS_bsp//libucosii_bsp.a(os_dbg.o)
 .debug_abbrev  0x0000000000007cc8      0x25a ../Autonomous_Car_OS_bsp//libucosii_bsp.a(os_flag.o)
 .debug_abbrev  0x0000000000007f22      0x228 ../Autonomous_Car_OS_bsp//libucosii_bsp.a(os_mem.o)
 .debug_abbrev  0x000000000000814a      0x248 ../Autonomous_Car_OS_bsp//libucosii_bsp.a(os_q.o)
 .debug_abbrev  0x0000000000008392      0x262 ../Autonomous_Car_OS_bsp//libucosii_bsp.a(os_sem.o)
 .debug_abbrev  0x00000000000085f4      0x247 ../Autonomous_Car_OS_bsp//libucosii_bsp.a(os_task.o)
 .debug_abbrev  0x000000000000883b      0x20c ../Autonomous_Car_OS_bsp//libucosii_bsp.a(os_time.o)
 .debug_abbrev  0x0000000000008a47      0x1cc ../Autonomous_Car_OS_bsp//libucosii_bsp.a(alt_sys_init.o)
 .debug_abbrev  0x0000000000008c13      0x1c9 ../Autonomous_Car_OS_bsp//libucosii_bsp.a(altera_avalon_epcs_flash_controller.o)
 .debug_abbrev  0x0000000000008ddc      0x16c ../Autonomous_Car_OS_bsp//libucosii_bsp.a(altera_avalon_jtag_uart_fd.o)
 .debug_abbrev  0x0000000000008f48      0x248 ../Autonomous_Car_OS_bsp//libucosii_bsp.a(altera_avalon_jtag_uart_init.o)
 .debug_abbrev  0x0000000000009190      0x156 ../Autonomous_Car_OS_bsp//libucosii_bsp.a(altera_avalon_jtag_uart_ioctl.o)
 .debug_abbrev  0x00000000000092e6      0x1fa ../Autonomous_Car_OS_bsp//libucosii_bsp.a(altera_avalon_jtag_uart_read.o)
 .debug_abbrev  0x00000000000094e0      0x1f6 ../Autonomous_Car_OS_bsp//libucosii_bsp.a(altera_avalon_jtag_uart_write.o)
 .debug_abbrev  0x00000000000096d6      0x155 ../Autonomous_Car_OS_bsp//libucosii_bsp.a(altera_avalon_timer_sc.o)
 .debug_abbrev  0x000000000000982b      0x145 ../Autonomous_Car_OS_bsp//libucosii_bsp.a(altera_avalon_uart_fd.o)
 .debug_abbrev  0x0000000000009970      0x1f1 ../Autonomous_Car_OS_bsp//libucosii_bsp.a(altera_avalon_uart_init.o)
 .debug_abbrev  0x0000000000009b61      0x1c8 ../Autonomous_Car_OS_bsp//libucosii_bsp.a(altera_avalon_uart_read.o)
 .debug_abbrev  0x0000000000009d29      0x1cf ../Autonomous_Car_OS_bsp//libucosii_bsp.a(altera_avalon_uart_write.o)
 .debug_abbrev  0x0000000000009ef8      0x169 ../Autonomous_Car_OS_bsp//libucosii_bsp.a(epcs_commands.o)
 .debug_abbrev  0x000000000000a061      0x162 ../Autonomous_Car_OS_bsp//libucosii_bsp.a(alt_alarm_start.o)
 .debug_abbrev  0x000000000000a1c3      0x114 ../Autonomous_Car_OS_bsp//libucosii_bsp.a(alt_dev_llist_insert.o)
 .debug_abbrev  0x000000000000a2d7       0x79 ../Autonomous_Car_OS_bsp//libucosii_bsp.a(alt_do_ctors.o)
 .debug_abbrev  0x000000000000a350       0x79 ../Autonomous_Car_OS_bsp//libucosii_bsp.a(alt_do_dtors.o)
 .debug_abbrev  0x000000000000a3c9       0x12 ../Autonomous_Car_OS_bsp//libucosii_bsp.a(alt_exception_entry.o)
 .debug_abbrev  0x000000000000a3db      0x121 ../Autonomous_Car_OS_bsp//libucosii_bsp.a(alt_flash_dev.o)
 .debug_abbrev  0x000000000000a4fc      0x11b ../Autonomous_Car_OS_bsp//libucosii_bsp.a(alt_io_redirect.o)
 .debug_abbrev  0x000000000000a617      0x14f ../Autonomous_Car_OS_bsp//libucosii_bsp.a(alt_open.o)
 .debug_abbrev  0x000000000000a766      0x15a ../Autonomous_Car_OS_bsp//libucosii_bsp.a(alt_tick.o)
 .debug_abbrev  0x000000000000a8c0       0x42 ../Autonomous_Car_OS_bsp//libucosii_bsp.a(altera_nios2_qsys_irq.o)
 .debug_abbrev  0x000000000000a902       0x14 ../Autonomous_Car_OS_bsp//libucosii_bsp.a(os_cpu_a.o)
 .debug_abbrev  0x000000000000a916      0x215 ../Autonomous_Car_OS_bsp//libucosii_bsp.a(os_cpu_c.o)
 .debug_abbrev  0x000000000000ab2b       0x8a ../Autonomous_Car_OS_bsp//libucosii_bsp.a(altera_avalon_spi.o)
 .debug_abbrev  0x000000000000abb5       0xf7 ../Autonomous_Car_OS_bsp//libucosii_bsp.a(alt_find_dev.o)
 .debug_abbrev  0x000000000000acac       0xf7 ../Autonomous_Car_OS_bsp//libucosii_bsp.a(alt_find_file.o)
 .debug_abbrev  0x000000000000ada3      0x19b ../Autonomous_Car_OS_bsp//libucosii_bsp.a(alt_get_fd.o)
 .debug_abbrev  0x000000000000af3e       0xb8 /media/christoph/8A841458841448D9/space/altera_lite/15.1/nios2eds/bin/gnu/H-x86_64-pc-linux-gnu/bin/../lib/gcc/nios2-elf/4.9.2/../../../../../H-x86_64-pc-linux-gnu/nios2-elf/lib/mno-hw-mul/libc.a(lib_a-atexit.o)
 .debug_abbrev  0x000000000000aff6      0x1f5 /media/christoph/8A841458841448D9/space/altera_lite/15.1/nios2eds/bin/gnu/H-x86_64-pc-linux-gnu/bin/../lib/gcc/nios2-elf/4.9.2/../../../../../H-x86_64-pc-linux-gnu/nios2-elf/lib/mno-hw-mul/libc.a(lib_a-exit.o)
 .debug_abbrev  0x000000000000b1eb       0x7f /media/christoph/8A841458841448D9/space/altera_lite/15.1/nios2eds/bin/gnu/H-x86_64-pc-linux-gnu/bin/../lib/gcc/nios2-elf/4.9.2/../../../../../H-x86_64-pc-linux-gnu/nios2-elf/lib/mno-hw-mul/libc.a(lib_a-memcmp.o)
 .debug_abbrev  0x000000000000b26a      0x21e /media/christoph/8A841458841448D9/space/altera_lite/15.1/nios2eds/bin/gnu/H-x86_64-pc-linux-gnu/bin/../lib/gcc/nios2-elf/4.9.2/../../../../../H-x86_64-pc-linux-gnu/nios2-elf/lib/mno-hw-mul/libc.a(lib_a-__atexit.o)
 .debug_abbrev  0x000000000000b488      0x22e /media/christoph/8A841458841448D9/space/altera_lite/15.1/nios2eds/bin/gnu/H-x86_64-pc-linux-gnu/bin/../lib/gcc/nios2-elf/4.9.2/../../../../../H-x86_64-pc-linux-gnu/nios2-elf/lib/mno-hw-mul/libc.a(lib_a-__call_atexit.o)
 .debug_abbrev  0x000000000000b6b6       0xde ../Autonomous_Car_OS_bsp//libucosii_bsp.a(alt_exit.o)

.debug_line     0x0000000000000000     0xeb3f
 *(.debug_line)
 .debug_line    0x0000000000000000       0x51 ../Autonomous_Car_OS_bsp//obj/HAL/src/crt0.o
 .debug_line    0x0000000000000051       0x4f obj/default/communication.o
 .debug_line    0x00000000000000a0      0x10a obj/default/gps.o
 .debug_line    0x00000000000001aa      0x135 obj/default/main.o
 .debug_line    0x00000000000002df       0x90 obj/default/motor.o
 .debug_line    0x000000000000036f      0x14a obj/default/uart.o
 .debug_line    0x00000000000004b9       0x81 obj/default/ultrasound.o
 .debug_line    0x000000000000053a       0x6e /media/christoph/8A841458841448D9/space/altera_lite/15.1/nios2eds/bin/gnu/H-x86_64-pc-linux-gnu/bin/../lib/gcc/nios2-elf/4.9.2/mno-hw-mul/libgcc.a(_fixunsdfsi.o)
 .debug_line    0x00000000000005a8       0x80 /media/christoph/8A841458841448D9/space/altera_lite/15.1/nios2eds/bin/gnu/H-x86_64-pc-linux-gnu/bin/../lib/gcc/nios2-elf/4.9.2/mno-hw-mul/libgcc.a(lib2-mul.o)
 .debug_line    0x0000000000000628      0x2a8 /media/christoph/8A841458841448D9/space/altera_lite/15.1/nios2eds/bin/gnu/H-x86_64-pc-linux-gnu/bin/../lib/gcc/nios2-elf/4.9.2/mno-hw-mul/libgcc.a(divdf3.o)
 .debug_line    0x00000000000008d0       0xce /media/christoph/8A841458841448D9/space/altera_lite/15.1/nios2eds/bin/gnu/H-x86_64-pc-linux-gnu/bin/../lib/gcc/nios2-elf/4.9.2/mno-hw-mul/libgcc.a(gedf2.o)
 .debug_line    0x000000000000099e       0xcd /media/christoph/8A841458841448D9/space/altera_lite/15.1/nios2eds/bin/gnu/H-x86_64-pc-linux-gnu/bin/../lib/gcc/nios2-elf/4.9.2/mno-hw-mul/libgcc.a(ledf2.o)
 .debug_line    0x0000000000000a6b      0x1e2 /media/christoph/8A841458841448D9/space/altera_lite/15.1/nios2eds/bin/gnu/H-x86_64-pc-linux-gnu/bin/../lib/gcc/nios2-elf/4.9.2/mno-hw-mul/libgcc.a(muldf3.o)
 .debug_line    0x0000000000000c4d      0x3a1 /media/christoph/8A841458841448D9/space/altera_lite/15.1/nios2eds/bin/gnu/H-x86_64-pc-linux-gnu/bin/../lib/gcc/nios2-elf/4.9.2/mno-hw-mul/libgcc.a(subdf3.o)
 .debug_line    0x0000000000000fee       0x9c /media/christoph/8A841458841448D9/space/altera_lite/15.1/nios2eds/bin/gnu/H-x86_64-pc-linux-gnu/bin/../lib/gcc/nios2-elf/4.9.2/mno-hw-mul/libgcc.a(fixdfsi.o)
 .debug_line    0x000000000000108a       0xa0 /media/christoph/8A841458841448D9/space/altera_lite/15.1/nios2eds/bin/gnu/H-x86_64-pc-linux-gnu/bin/../lib/gcc/nios2-elf/4.9.2/mno-hw-mul/libgcc.a(floatsidf.o)
 .debug_line    0x000000000000112a       0xba /media/christoph/8A841458841448D9/space/altera_lite/15.1/nios2eds/bin/gnu/H-x86_64-pc-linux-gnu/bin/../lib/gcc/nios2-elf/4.9.2/mno-hw-mul/libgcc.a(_clzsi2.o)
 .debug_line    0x00000000000011e4       0xc7 /media/christoph/8A841458841448D9/space/altera_lite/15.1/nios2eds/bin/gnu/H-x86_64-pc-linux-gnu/bin/../lib/gcc/nios2-elf/4.9.2/mno-hw-mul/libgcc.a(lib2-divmod.o)
 .debug_line    0x00000000000012ab       0x56 /media/christoph/8A841458841448D9/space/altera_lite/15.1/nios2eds/bin/gnu/H-x86_64-pc-linux-gnu/bin/../lib/gcc/nios2-elf/4.9.2/mno-hw-mul/libgcc.a(_clz.o)
 .debug_line    0x0000000000001301      0x20b /media/christoph/8A841458841448D9/space/altera_lite/15.1/nios2eds/bin/gnu/H-x86_64-pc-linux-gnu/bin/../lib/gcc/nios2-elf/4.9.2/../../../../../H-x86_64-pc-linux-gnu/nios2-elf/lib/mno-hw-mul/libc.a(lib_a-printf.o)
 .debug_line    0x000000000000150c      0x19c /media/christoph/8A841458841448D9/space/altera_lite/15.1/nios2eds/bin/gnu/H-x86_64-pc-linux-gnu/bin/../lib/gcc/nios2-elf/4.9.2/../../../../../H-x86_64-pc-linux-gnu/nios2-elf/lib/mno-hw-mul/libc.a(lib_a-strncmp.o)
 .debug_line    0x00000000000016a8      0x18c /media/christoph/8A841458841448D9/space/altera_lite/15.1/nios2eds/bin/gnu/H-x86_64-pc-linux-gnu/bin/../lib/gcc/nios2-elf/4.9.2/../../../../../H-x86_64-pc-linux-gnu/nios2-elf/lib/mno-hw-mul/libc.a(lib_a-strncpy.o)
 .debug_line    0x0000000000001834      0xb41 /media/christoph/8A841458841448D9/space/altera_lite/15.1/nios2eds/bin/gnu/H-x86_64-pc-linux-gnu/bin/../lib/gcc/nios2-elf/4.9.2/../../../../../H-x86_64-pc-linux-gnu/nios2-elf/lib/mno-hw-mul/libc.a(lib_a-vfprintf.o)
 .debug_line    0x0000000000002375      0x266 /media/christoph/8A841458841448D9/space/altera_lite/15.1/nios2eds/bin/gnu/H-x86_64-pc-linux-gnu/bin/../lib/gcc/nios2-elf/4.9.2/../../../../../H-x86_64-pc-linux-gnu/nios2-elf/lib/mno-hw-mul/libc.a(lib_a-wsetup.o)
 .debug_line    0x00000000000025db      0x7e7 /media/christoph/8A841458841448D9/space/altera_lite/15.1/nios2eds/bin/gnu/H-x86_64-pc-linux-gnu/bin/../lib/gcc/nios2-elf/4.9.2/../../../../../H-x86_64-pc-linux-gnu/nios2-elf/lib/mno-hw-mul/libc.a(lib_a-dtoa.o)
 .debug_line    0x0000000000002dc2      0x2e5 /media/christoph/8A841458841448D9/space/altera_lite/15.1/nios2eds/bin/gnu/H-x86_64-pc-linux-gnu/bin/../lib/gcc/nios2-elf/4.9.2/../../../../../H-x86_64-pc-linux-gnu/nios2-elf/lib/mno-hw-mul/libc.a(lib_a-fflush.o)
 .debug_line    0x00000000000030a7      0x3bc /media/christoph/8A841458841448D9/space/altera_lite/15.1/nios2eds/bin/gnu/H-x86_64-pc-linux-gnu/bin/../lib/gcc/nios2-elf/4.9.2/../../../../../H-x86_64-pc-linux-gnu/nios2-elf/lib/mno-hw-mul/libc.a(lib_a-findfp.o)
 .debug_line    0x0000000000003463      0x2ef /media/christoph/8A841458841448D9/space/altera_lite/15.1/nios2eds/bin/gnu/H-x86_64-pc-linux-gnu/bin/../lib/gcc/nios2-elf/4.9.2/../../../../../H-x86_64-pc-linux-gnu/nios2-elf/lib/mno-hw-mul/libc.a(lib_a-freer.o)
 .debug_line    0x0000000000003752      0x23b /media/christoph/8A841458841448D9/space/altera_lite/15.1/nios2eds/bin/gnu/H-x86_64-pc-linux-gnu/bin/../lib/gcc/nios2-elf/4.9.2/../../../../../H-x86_64-pc-linux-gnu/nios2-elf/lib/mno-hw-mul/libc.a(lib_a-fwalk.o)
 .debug_line    0x000000000000398d      0x160 /media/christoph/8A841458841448D9/space/altera_lite/15.1/nios2eds/bin/gnu/H-x86_64-pc-linux-gnu/bin/../lib/gcc/nios2-elf/4.9.2/../../../../../H-x86_64-pc-linux-gnu/nios2-elf/lib/mno-hw-mul/libc.a(lib_a-impure.o)
 .debug_line    0x0000000000003aed      0x291 /media/christoph/8A841458841448D9/space/altera_lite/15.1/nios2eds/bin/gnu/H-x86_64-pc-linux-gnu/bin/../lib/gcc/nios2-elf/4.9.2/../../../../../H-x86_64-pc-linux-gnu/nios2-elf/lib/mno-hw-mul/libc.a(lib_a-locale.o)
 .debug_line    0x0000000000003d7e      0x274 /media/christoph/8A841458841448D9/space/altera_lite/15.1/nios2eds/bin/gnu/H-x86_64-pc-linux-gnu/bin/../lib/gcc/nios2-elf/4.9.2/../../../../../H-x86_64-pc-linux-gnu/nios2-elf/lib/mno-hw-mul/libc.a(lib_a-makebuf.o)
 .debug_line    0x0000000000003ff2      0x3fd /media/christoph/8A841458841448D9/space/altera_lite/15.1/nios2eds/bin/gnu/H-x86_64-pc-linux-gnu/bin/../lib/gcc/nios2-elf/4.9.2/../../../../../H-x86_64-pc-linux-gnu/nios2-elf/lib/mno-hw-mul/libc.a(lib_a-mallocr.o)
 .debug_line    0x00000000000043ef      0x18e /media/christoph/8A841458841448D9/space/altera_lite/15.1/nios2eds/bin/gnu/H-x86_64-pc-linux-gnu/bin/../lib/gcc/nios2-elf/4.9.2/../../../../../H-x86_64-pc-linux-gnu/nios2-elf/lib/mno-hw-mul/libc.a(lib_a-memchr.o)
 .debug_line    0x000000000000457d      0x185 /media/christoph/8A841458841448D9/space/altera_lite/15.1/nios2eds/bin/gnu/H-x86_64-pc-linux-gnu/bin/../lib/gcc/nios2-elf/4.9.2/../../../../../H-x86_64-pc-linux-gnu/nios2-elf/lib/mno-hw-mul/libc.a(lib_a-memcpy.o)
 .debug_line    0x0000000000004702      0x18f /media/christoph/8A841458841448D9/space/altera_lite/15.1/nios2eds/bin/gnu/H-x86_64-pc-linux-gnu/bin/../lib/gcc/nios2-elf/4.9.2/../../../../../H-x86_64-pc-linux-gnu/nios2-elf/lib/mno-hw-mul/libc.a(lib_a-memset.o)
 .debug_line    0x0000000000004891      0x77c /media/christoph/8A841458841448D9/space/altera_lite/15.1/nios2eds/bin/gnu/H-x86_64-pc-linux-gnu/bin/../lib/gcc/nios2-elf/4.9.2/../../../../../H-x86_64-pc-linux-gnu/nios2-elf/lib/mno-hw-mul/libc.a(lib_a-mprec.o)
 .debug_line    0x000000000000500d      0x17b /media/christoph/8A841458841448D9/space/altera_lite/15.1/nios2eds/bin/gnu/H-x86_64-pc-linux-gnu/bin/../lib/gcc/nios2-elf/4.9.2/../../../../../H-x86_64-pc-linux-gnu/nios2-elf/lib/mno-hw-mul/libc.a(lib_a-s_fpclassify.o)
 .debug_line    0x0000000000005188      0x1e9 /media/christoph/8A841458841448D9/space/altera_lite/15.1/nios2eds/bin/gnu/H-x86_64-pc-linux-gnu/bin/../lib/gcc/nios2-elf/4.9.2/../../../../../H-x86_64-pc-linux-gnu/nios2-elf/lib/mno-hw-mul/libc.a(lib_a-sbrkr.o)
 .debug_line    0x0000000000005371      0x26a /media/christoph/8A841458841448D9/space/altera_lite/15.1/nios2eds/bin/gnu/H-x86_64-pc-linux-gnu/bin/../lib/gcc/nios2-elf/4.9.2/../../../../../H-x86_64-pc-linux-gnu/nios2-elf/lib/mno-hw-mul/libc.a(lib_a-stdio.o)
 .debug_line    0x00000000000055db       0xf7 /media/christoph/8A841458841448D9/space/altera_lite/15.1/nios2eds/bin/gnu/H-x86_64-pc-linux-gnu/bin/../lib/gcc/nios2-elf/4.9.2/../../../../../H-x86_64-pc-linux-gnu/nios2-elf/lib/mno-hw-mul/libc.a(lib_a-strcmp.o)
 .debug_line    0x00000000000056d2      0x16f /media/christoph/8A841458841448D9/space/altera_lite/15.1/nios2eds/bin/gnu/H-x86_64-pc-linux-gnu/bin/../lib/gcc/nios2-elf/4.9.2/../../../../../H-x86_64-pc-linux-gnu/nios2-elf/lib/mno-hw-mul/libc.a(lib_a-strlen.o)
 .debug_line    0x0000000000005841      0x885 /media/christoph/8A841458841448D9/space/altera_lite/15.1/nios2eds/bin/gnu/H-x86_64-pc-linux-gnu/bin/../lib/gcc/nios2-elf/4.9.2/../../../../../H-x86_64-pc-linux-gnu/nios2-elf/lib/mno-hw-mul/libc.a(lib_a-vfiprintf.o)
 .debug_line    0x00000000000060c6      0x1f6 /media/christoph/8A841458841448D9/space/altera_lite/15.1/nios2eds/bin/gnu/H-x86_64-pc-linux-gnu/bin/../lib/gcc/nios2-elf/4.9.2/../../../../../H-x86_64-pc-linux-gnu/nios2-elf/lib/mno-hw-mul/libc.a(lib_a-writer.o)
 .debug_line    0x00000000000062bc      0x1f6 /media/christoph/8A841458841448D9/space/altera_lite/15.1/nios2eds/bin/gnu/H-x86_64-pc-linux-gnu/bin/../lib/gcc/nios2-elf/4.9.2/../../../../../H-x86_64-pc-linux-gnu/nios2-elf/lib/mno-hw-mul/libc.a(closer.o)
 .debug_line    0x00000000000064b2      0x1b4 /media/christoph/8A841458841448D9/space/altera_lite/15.1/nios2eds/bin/gnu/H-x86_64-pc-linux-gnu/bin/../lib/gcc/nios2-elf/4.9.2/../../../../../H-x86_64-pc-linux-gnu/nios2-elf/lib/mno-hw-mul/libc.a(lib_a-callocr.o)
 .debug_line    0x0000000000006666      0x239 /media/christoph/8A841458841448D9/space/altera_lite/15.1/nios2eds/bin/gnu/H-x86_64-pc-linux-gnu/bin/../lib/gcc/nios2-elf/4.9.2/../../../../../H-x86_64-pc-linux-gnu/nios2-elf/lib/mno-hw-mul/libc.a(lib_a-fclose.o)
 .debug_line    0x000000000000689f      0x25f /media/christoph/8A841458841448D9/space/altera_lite/15.1/nios2eds/bin/gnu/H-x86_64-pc-linux-gnu/bin/../lib/gcc/nios2-elf/4.9.2/../../../../../H-x86_64-pc-linux-gnu/nios2-elf/lib/mno-hw-mul/libc.a(lib_a-fputwc.o)
 .debug_line    0x0000000000006afe      0x1ff /media/christoph/8A841458841448D9/space/altera_lite/15.1/nios2eds/bin/gnu/H-x86_64-pc-linux-gnu/bin/../lib/gcc/nios2-elf/4.9.2/../../../../../H-x86_64-pc-linux-gnu/nios2-elf/lib/mno-hw-mul/libc.a(lib_a-fstatr.o)
 .debug_line    0x0000000000006cfd      0x368 /media/christoph/8A841458841448D9/space/altera_lite/15.1/nios2eds/bin/gnu/H-x86_64-pc-linux-gnu/bin/../lib/gcc/nios2-elf/4.9.2/../../../../../H-x86_64-pc-linux-gnu/nios2-elf/lib/mno-hw-mul/libc.a(lib_a-fvwrite.o)
 .debug_line    0x0000000000007065       0x5f /media/christoph/8A841458841448D9/space/altera_lite/15.1/nios2eds/bin/gnu/H-x86_64-pc-linux-gnu/bin/../lib/gcc/nios2-elf/4.9.2/../../../../../H-x86_64-pc-linux-gnu/nios2-elf/lib/mno-hw-mul/libc.a(lib_a-int_errno.o)
 .debug_line    0x00000000000070c4      0x1f7 /media/christoph/8A841458841448D9/space/altera_lite/15.1/nios2eds/bin/gnu/H-x86_64-pc-linux-gnu/bin/../lib/gcc/nios2-elf/4.9.2/../../../../../H-x86_64-pc-linux-gnu/nios2-elf/lib/mno-hw-mul/libc.a(lib_a-isattyr.o)
 .debug_line    0x00000000000072bb      0x201 /media/christoph/8A841458841448D9/space/altera_lite/15.1/nios2eds/bin/gnu/H-x86_64-pc-linux-gnu/bin/../lib/gcc/nios2-elf/4.9.2/../../../../../H-x86_64-pc-linux-gnu/nios2-elf/lib/mno-hw-mul/libc.a(lib_a-lseekr.o)
 .debug_line    0x00000000000074bc      0x18c /media/christoph/8A841458841448D9/space/altera_lite/15.1/nios2eds/bin/gnu/H-x86_64-pc-linux-gnu/bin/../lib/gcc/nios2-elf/4.9.2/../../../../../H-x86_64-pc-linux-gnu/nios2-elf/lib/mno-hw-mul/libc.a(lib_a-memmove.o)
 .debug_line    0x0000000000007648      0x1f5 /media/christoph/8A841458841448D9/space/altera_lite/15.1/nios2eds/bin/gnu/H-x86_64-pc-linux-gnu/bin/../lib/gcc/nios2-elf/4.9.2/../../../../../H-x86_64-pc-linux-gnu/nios2-elf/lib/mno-hw-mul/libc.a(lib_a-readr.o)
 .debug_line    0x000000000000783d      0x2ec /media/christoph/8A841458841448D9/space/altera_lite/15.1/nios2eds/bin/gnu/H-x86_64-pc-linux-gnu/bin/../lib/gcc/nios2-elf/4.9.2/../../../../../H-x86_64-pc-linux-gnu/nios2-elf/lib/mno-hw-mul/libc.a(lib_a-reallocr.o)
 .debug_line    0x0000000000007b29      0x274 /media/christoph/8A841458841448D9/space/altera_lite/15.1/nios2eds/bin/gnu/H-x86_64-pc-linux-gnu/bin/../lib/gcc/nios2-elf/4.9.2/../../../../../H-x86_64-pc-linux-gnu/nios2-elf/lib/mno-hw-mul/libc.a(lib_a-wbuf.o)
 .debug_line    0x0000000000007d9d      0x226 /media/christoph/8A841458841448D9/space/altera_lite/15.1/nios2eds/bin/gnu/H-x86_64-pc-linux-gnu/bin/../lib/gcc/nios2-elf/4.9.2/../../../../../H-x86_64-pc-linux-gnu/nios2-elf/lib/mno-hw-mul/libc.a(lib_a-wcrtomb.o)
 .debug_line    0x0000000000007fc3      0x21a /media/christoph/8A841458841448D9/space/altera_lite/15.1/nios2eds/bin/gnu/H-x86_64-pc-linux-gnu/bin/../lib/gcc/nios2-elf/4.9.2/../../../../../H-x86_64-pc-linux-gnu/nios2-elf/lib/mno-hw-mul/libc.a(lib_a-wctomb_r.o)
 .debug_line    0x00000000000081dd      0x13a /media/christoph/8A841458841448D9/space/altera_lite/15.1/nios2eds/bin/gnu/H-x86_64-pc-linux-gnu/bin/../lib/gcc/nios2-elf/4.9.2/mno-hw-mul/libgcc.a(_udivdi3.o)
 .debug_line    0x0000000000008317      0x14b /media/christoph/8A841458841448D9/space/altera_lite/15.1/nios2eds/bin/gnu/H-x86_64-pc-linux-gnu/bin/../lib/gcc/nios2-elf/4.9.2/mno-hw-mul/libgcc.a(_umoddi3.o)
 .debug_line    0x0000000000008462      0x386 /media/christoph/8A841458841448D9/space/altera_lite/15.1/nios2eds/bin/gnu/H-x86_64-pc-linux-gnu/bin/../lib/gcc/nios2-elf/4.9.2/mno-hw-mul/libgcc.a(adddf3.o)
 .debug_line    0x00000000000087e8       0xae /media/christoph/8A841458841448D9/space/altera_lite/15.1/nios2eds/bin/gnu/H-x86_64-pc-linux-gnu/bin/../lib/gcc/nios2-elf/4.9.2/mno-hw-mul/libgcc.a(eqdf2.o)
 .debug_line    0x0000000000008896       0x96 /media/christoph/8A841458841448D9/space/altera_lite/15.1/nios2eds/bin/gnu/H-x86_64-pc-linux-gnu/bin/../lib/gcc/nios2-elf/4.9.2/mno-hw-mul/libgcc.a(floatunsidf.o)
 .debug_line    0x000000000000892c      0x19c ../Autonomous_Car_OS_bsp//libucosii_bsp.a(alt_close.o)
 .debug_line    0x0000000000008ac8      0x163 ../Autonomous_Car_OS_bsp//libucosii_bsp.a(alt_dev.o)
 .debug_line    0x0000000000008c2b       0x51 ../Autonomous_Car_OS_bsp//libucosii_bsp.a(alt_errno.o)
 .debug_line    0x0000000000008c7c      0x195 ../Autonomous_Car_OS_bsp//libucosii_bsp.a(alt_fstat.o)
 .debug_line    0x0000000000008e11       0xef ../Autonomous_Car_OS_bsp//libucosii_bsp.a(alt_iic.o)
 .debug_line    0x0000000000008f00       0xdb ../Autonomous_Car_OS_bsp//libucosii_bsp.a(alt_iic_isr_register.o)
 .debug_line    0x0000000000008fdb       0x6b ../Autonomous_Car_OS_bsp//libucosii_bsp.a(alt_irq_entry.o)
 .debug_line    0x0000000000009046       0xc8 ../Autonomous_Car_OS_bsp//libucosii_bsp.a(alt_irq_handler.o)
 .debug_line    0x000000000000910e       0x50 ../Autonomous_Car_OS_bsp//libucosii_bsp.a(alt_irq_vars.o)
 .debug_line    0x000000000000915e      0x199 ../Autonomous_Car_OS_bsp//libucosii_bsp.a(alt_isatty.o)
 .debug_line    0x00000000000092f7      0x19a ../Autonomous_Car_OS_bsp//libucosii_bsp.a(alt_lseek.o)
 .debug_line    0x0000000000009491      0x12f ../Autonomous_Car_OS_bsp//libucosii_bsp.a(alt_main.o)
 .debug_line    0x00000000000095c0      0x23a ../Autonomous_Car_OS_bsp//libucosii_bsp.a(alt_read.o)
 .debug_line    0x00000000000097fa       0xbf ../Autonomous_Car_OS_bsp//libucosii_bsp.a(alt_release_fd.o)
 .debug_line    0x00000000000098b9      0x11a ../Autonomous_Car_OS_bsp//libucosii_bsp.a(alt_sbrk.o)
 .debug_line    0x00000000000099d3      0x239 ../Autonomous_Car_OS_bsp//libucosii_bsp.a(alt_write.o)
 .debug_line    0x0000000000009c0c      0x1f0 ../Autonomous_Car_OS_bsp//libucosii_bsp.a(alt_env_lock.o)
 .debug_line    0x0000000000009dfc      0x25e ../Autonomous_Car_OS_bsp//libucosii_bsp.a(alt_malloc_lock.o)
 .debug_line    0x000000000000a05a      0x67c ../Autonomous_Car_OS_bsp//libucosii_bsp.a(os_core.o)
 .debug_line    0x000000000000a6d6       0xd2 ../Autonomous_Car_OS_bsp//libucosii_bsp.a(os_dbg.o)
 .debug_line    0x000000000000a7a8      0x505 ../Autonomous_Car_OS_bsp//libucosii_bsp.a(os_flag.o)
 .debug_line    0x000000000000acad      0x23f ../Autonomous_Car_OS_bsp//libucosii_bsp.a(os_mem.o)
 .debug_line    0x000000000000aeec      0x410 ../Autonomous_Car_OS_bsp//libucosii_bsp.a(os_q.o)
 .debug_line    0x000000000000b2fc      0x2ea ../Autonomous_Car_OS_bsp//libucosii_bsp.a(os_sem.o)
 .debug_line    0x000000000000b5e6      0x547 ../Autonomous_Car_OS_bsp//libucosii_bsp.a(os_task.o)
 .debug_line    0x000000000000bb2d      0x1ad ../Autonomous_Car_OS_bsp//libucosii_bsp.a(os_time.o)
 .debug_line    0x000000000000bcda      0x207 ../Autonomous_Car_OS_bsp//libucosii_bsp.a(alt_sys_init.o)
 .debug_line    0x000000000000bee1      0x2f9 ../Autonomous_Car_OS_bsp//libucosii_bsp.a(altera_avalon_epcs_flash_controller.o)
 .debug_line    0x000000000000c1da      0x155 ../Autonomous_Car_OS_bsp//libucosii_bsp.a(altera_avalon_jtag_uart_fd.o)
 .debug_line    0x000000000000c32f      0x21e ../Autonomous_Car_OS_bsp//libucosii_bsp.a(altera_avalon_jtag_uart_init.o)
 .debug_line    0x000000000000c54d      0x154 ../Autonomous_Car_OS_bsp//libucosii_bsp.a(altera_avalon_jtag_uart_ioctl.o)
 .debug_line    0x000000000000c6a1      0x1d8 ../Autonomous_Car_OS_bsp//libucosii_bsp.a(altera_avalon_jtag_uart_read.o)
 .debug_line    0x000000000000c879      0x1d8 ../Autonomous_Car_OS_bsp//libucosii_bsp.a(altera_avalon_jtag_uart_write.o)
 .debug_line    0x000000000000ca51       0xfd ../Autonomous_Car_OS_bsp//libucosii_bsp.a(altera_avalon_timer_sc.o)
 .debug_line    0x000000000000cb4e      0x132 ../Autonomous_Car_OS_bsp//libucosii_bsp.a(altera_avalon_uart_fd.o)
 .debug_line    0x000000000000cc80      0x22d ../Autonomous_Car_OS_bsp//libucosii_bsp.a(altera_avalon_uart_init.o)
 .debug_line    0x000000000000cead      0x1f9 ../Autonomous_Car_OS_bsp//libucosii_bsp.a(altera_avalon_uart_read.o)
 .debug_line    0x000000000000d0a6      0x1eb ../Autonomous_Car_OS_bsp//libucosii_bsp.a(altera_avalon_uart_write.o)
 .debug_line    0x000000000000d291      0x113 ../Autonomous_Car_OS_bsp//libucosii_bsp.a(epcs_commands.o)
 .debug_line    0x000000000000d3a4       0xfa ../Autonomous_Car_OS_bsp//libucosii_bsp.a(alt_alarm_start.o)
 .debug_line    0x000000000000d49e       0xd0 ../Autonomous_Car_OS_bsp//libucosii_bsp.a(alt_dev_llist_insert.o)
 .debug_line    0x000000000000d56e       0x59 ../Autonomous_Car_OS_bsp//libucosii_bsp.a(alt_do_ctors.o)
 .debug_line    0x000000000000d5c7       0x59 ../Autonomous_Car_OS_bsp//libucosii_bsp.a(alt_do_dtors.o)
 .debug_line    0x000000000000d620       0xab ../Autonomous_Car_OS_bsp//libucosii_bsp.a(alt_exception_entry.o)
 .debug_line    0x000000000000d6cb       0xed ../Autonomous_Car_OS_bsp//libucosii_bsp.a(alt_flash_dev.o)
 .debug_line    0x000000000000d7b8      0x16b ../Autonomous_Car_OS_bsp//libucosii_bsp.a(alt_io_redirect.o)
 .debug_line    0x000000000000d923      0x13c ../Autonomous_Car_OS_bsp//libucosii_bsp.a(alt_open.o)
 .debug_line    0x000000000000da5f       0xfe ../Autonomous_Car_OS_bsp//libucosii_bsp.a(alt_tick.o)
 .debug_line    0x000000000000db5d       0x51 ../Autonomous_Car_OS_bsp//libucosii_bsp.a(altera_nios2_qsys_irq.o)
 .debug_line    0x000000000000dbae       0x86 ../Autonomous_Car_OS_bsp//libucosii_bsp.a(os_cpu_a.o)
 .debug_line    0x000000000000dc34      0x1f7 ../Autonomous_Car_OS_bsp//libucosii_bsp.a(os_cpu_c.o)
 .debug_line    0x000000000000de2b       0xb7 ../Autonomous_Car_OS_bsp//libucosii_bsp.a(altera_avalon_spi.o)
 .debug_line    0x000000000000dee2       0xc4 ../Autonomous_Car_OS_bsp//libucosii_bsp.a(alt_find_dev.o)
 .debug_line    0x000000000000dfa6       0xe0 ../Autonomous_Car_OS_bsp//libucosii_bsp.a(alt_find_file.o)
 .debug_line    0x000000000000e086      0x12b ../Autonomous_Car_OS_bsp//libucosii_bsp.a(alt_get_fd.o)
 .debug_line    0x000000000000e1b1       0xe7 /media/christoph/8A841458841448D9/space/altera_lite/15.1/nios2eds/bin/gnu/H-x86_64-pc-linux-gnu/bin/../lib/gcc/nios2-elf/4.9.2/../../../../../H-x86_64-pc-linux-gnu/nios2-elf/lib/mno-hw-mul/libc.a(lib_a-atexit.o)
 .debug_line    0x000000000000e298      0x1fc /media/christoph/8A841458841448D9/space/altera_lite/15.1/nios2eds/bin/gnu/H-x86_64-pc-linux-gnu/bin/../lib/gcc/nios2-elf/4.9.2/../../../../../H-x86_64-pc-linux-gnu/nios2-elf/lib/mno-hw-mul/libc.a(lib_a-exit.o)
 .debug_line    0x000000000000e494      0x176 /media/christoph/8A841458841448D9/space/altera_lite/15.1/nios2eds/bin/gnu/H-x86_64-pc-linux-gnu/bin/../lib/gcc/nios2-elf/4.9.2/../../../../../H-x86_64-pc-linux-gnu/nios2-elf/lib/mno-hw-mul/libc.a(lib_a-memcmp.o)
 .debug_line    0x000000000000e60a      0x225 /media/christoph/8A841458841448D9/space/altera_lite/15.1/nios2eds/bin/gnu/H-x86_64-pc-linux-gnu/bin/../lib/gcc/nios2-elf/4.9.2/../../../../../H-x86_64-pc-linux-gnu/nios2-elf/lib/mno-hw-mul/libc.a(lib_a-__atexit.o)
 .debug_line    0x000000000000e82f      0x241 /media/christoph/8A841458841448D9/space/altera_lite/15.1/nios2eds/bin/gnu/H-x86_64-pc-linux-gnu/bin/../lib/gcc/nios2-elf/4.9.2/../../../../../H-x86_64-pc-linux-gnu/nios2-elf/lib/mno-hw-mul/libc.a(lib_a-__call_atexit.o)
 .debug_line    0x000000000000ea70       0xcf ../Autonomous_Car_OS_bsp//libucosii_bsp.a(alt_exit.o)

.debug_frame    0x0000000000000000     0x39bc
 *(.debug_frame)
 .debug_frame   0x0000000000000000       0x88 obj/default/communication.o
 .debug_frame   0x0000000000000088       0xb0 obj/default/gps.o
 .debug_frame   0x0000000000000138       0xb4 obj/default/main.o
 .debug_frame   0x00000000000001ec       0xd0 obj/default/motor.o
 .debug_frame   0x00000000000002bc       0xa4 obj/default/uart.o
 .debug_frame   0x0000000000000360       0x60 obj/default/ultrasound.o
 .debug_frame   0x00000000000003c0       0x38 /media/christoph/8A841458841448D9/space/altera_lite/15.1/nios2eds/bin/gnu/H-x86_64-pc-linux-gnu/bin/../lib/gcc/nios2-elf/4.9.2/mno-hw-mul/libgcc.a(_fixunsdfsi.o)
 .debug_frame   0x00000000000003f8       0x20 /media/christoph/8A841458841448D9/space/altera_lite/15.1/nios2eds/bin/gnu/H-x86_64-pc-linux-gnu/bin/../lib/gcc/nios2-elf/4.9.2/mno-hw-mul/libgcc.a(lib2-mul.o)
 .debug_frame   0x0000000000000418       0x58 /media/christoph/8A841458841448D9/space/altera_lite/15.1/nios2eds/bin/gnu/H-x86_64-pc-linux-gnu/bin/../lib/gcc/nios2-elf/4.9.2/mno-hw-mul/libgcc.a(divdf3.o)
 .debug_frame   0x0000000000000470       0x20 /media/christoph/8A841458841448D9/space/altera_lite/15.1/nios2eds/bin/gnu/H-x86_64-pc-linux-gnu/bin/../lib/gcc/nios2-elf/4.9.2/mno-hw-mul/libgcc.a(gedf2.o)
 .debug_frame   0x0000000000000490       0x20 /media/christoph/8A841458841448D9/space/altera_lite/15.1/nios2eds/bin/gnu/H-x86_64-pc-linux-gnu/bin/../lib/gcc/nios2-elf/4.9.2/mno-hw-mul/libgcc.a(ledf2.o)
 .debug_frame   0x00000000000004b0       0x58 /media/christoph/8A841458841448D9/space/altera_lite/15.1/nios2eds/bin/gnu/H-x86_64-pc-linux-gnu/bin/../lib/gcc/nios2-elf/4.9.2/mno-hw-mul/libgcc.a(muldf3.o)
 .debug_frame   0x0000000000000508       0x44 /media/christoph/8A841458841448D9/space/altera_lite/15.1/nios2eds/bin/gnu/H-x86_64-pc-linux-gnu/bin/../lib/gcc/nios2-elf/4.9.2/mno-hw-mul/libgcc.a(subdf3.o)
 .debug_frame   0x000000000000054c       0x20 /media/christoph/8A841458841448D9/space/altera_lite/15.1/nios2eds/bin/gnu/H-x86_64-pc-linux-gnu/bin/../lib/gcc/nios2-elf/4.9.2/mno-hw-mul/libgcc.a(fixdfsi.o)
 .debug_frame   0x000000000000056c       0x38 /media/christoph/8A841458841448D9/space/altera_lite/15.1/nios2eds/bin/gnu/H-x86_64-pc-linux-gnu/bin/../lib/gcc/nios2-elf/4.9.2/mno-hw-mul/libgcc.a(floatsidf.o)
 .debug_frame   0x00000000000005a4       0x20 /media/christoph/8A841458841448D9/space/altera_lite/15.1/nios2eds/bin/gnu/H-x86_64-pc-linux-gnu/bin/../lib/gcc/nios2-elf/4.9.2/mno-hw-mul/libgcc.a(_clzsi2.o)
 .debug_frame   0x00000000000005c4       0x8c /media/christoph/8A841458841448D9/space/altera_lite/15.1/nios2eds/bin/gnu/H-x86_64-pc-linux-gnu/bin/../lib/gcc/nios2-elf/4.9.2/mno-hw-mul/libgcc.a(lib2-divmod.o)
 .debug_frame   0x0000000000000650       0x48 /media/christoph/8A841458841448D9/space/altera_lite/15.1/nios2eds/bin/gnu/H-x86_64-pc-linux-gnu/bin/../lib/gcc/nios2-elf/4.9.2/../../../../../H-x86_64-pc-linux-gnu/nios2-elf/lib/mno-hw-mul/libc.a(lib_a-printf.o)
 .debug_frame   0x0000000000000698       0x20 /media/christoph/8A841458841448D9/space/altera_lite/15.1/nios2eds/bin/gnu/H-x86_64-pc-linux-gnu/bin/../lib/gcc/nios2-elf/4.9.2/../../../../../H-x86_64-pc-linux-gnu/nios2-elf/lib/mno-hw-mul/libc.a(lib_a-strncmp.o)
 .debug_frame   0x00000000000006b8       0x20 /media/christoph/8A841458841448D9/space/altera_lite/15.1/nios2eds/bin/gnu/H-x86_64-pc-linux-gnu/bin/../lib/gcc/nios2-elf/4.9.2/../../../../../H-x86_64-pc-linux-gnu/nios2-elf/lib/mno-hw-mul/libc.a(lib_a-strncpy.o)
 .debug_frame   0x00000000000006d8       0x98 /media/christoph/8A841458841448D9/space/altera_lite/15.1/nios2eds/bin/gnu/H-x86_64-pc-linux-gnu/bin/../lib/gcc/nios2-elf/4.9.2/../../../../../H-x86_64-pc-linux-gnu/nios2-elf/lib/mno-hw-mul/libc.a(lib_a-vfprintf.o)
 .debug_frame   0x0000000000000770       0x38 /media/christoph/8A841458841448D9/space/altera_lite/15.1/nios2eds/bin/gnu/H-x86_64-pc-linux-gnu/bin/../lib/gcc/nios2-elf/4.9.2/../../../../../H-x86_64-pc-linux-gnu/nios2-elf/lib/mno-hw-mul/libc.a(lib_a-wsetup.o)
 .debug_frame   0x00000000000007a8       0x9c /media/christoph/8A841458841448D9/space/altera_lite/15.1/nios2eds/bin/gnu/H-x86_64-pc-linux-gnu/bin/../lib/gcc/nios2-elf/4.9.2/../../../../../H-x86_64-pc-linux-gnu/nios2-elf/lib/mno-hw-mul/libc.a(lib_a-dtoa.o)
 .debug_frame   0x0000000000000844       0x7c /media/christoph/8A841458841448D9/space/altera_lite/15.1/nios2eds/bin/gnu/H-x86_64-pc-linux-gnu/bin/../lib/gcc/nios2-elf/4.9.2/../../../../../H-x86_64-pc-linux-gnu/nios2-elf/lib/mno-hw-mul/libc.a(lib_a-fflush.o)
 .debug_frame   0x00000000000008c0      0x15c /media/christoph/8A841458841448D9/space/altera_lite/15.1/nios2eds/bin/gnu/H-x86_64-pc-linux-gnu/bin/../lib/gcc/nios2-elf/4.9.2/../../../../../H-x86_64-pc-linux-gnu/nios2-elf/lib/mno-hw-mul/libc.a(lib_a-findfp.o)
 .debug_frame   0x0000000000000a1c       0x70 /media/christoph/8A841458841448D9/space/altera_lite/15.1/nios2eds/bin/gnu/H-x86_64-pc-linux-gnu/bin/../lib/gcc/nios2-elf/4.9.2/../../../../../H-x86_64-pc-linux-gnu/nios2-elf/lib/mno-hw-mul/libc.a(lib_a-freer.o)
 .debug_frame   0x0000000000000a8c       0x90 /media/christoph/8A841458841448D9/space/altera_lite/15.1/nios2eds/bin/gnu/H-x86_64-pc-linux-gnu/bin/../lib/gcc/nios2-elf/4.9.2/../../../../../H-x86_64-pc-linux-gnu/nios2-elf/lib/mno-hw-mul/libc.a(lib_a-fwalk.o)
 .debug_frame   0x0000000000000b1c       0xa8 /media/christoph/8A841458841448D9/space/altera_lite/15.1/nios2eds/bin/gnu/H-x86_64-pc-linux-gnu/bin/../lib/gcc/nios2-elf/4.9.2/../../../../../H-x86_64-pc-linux-gnu/nios2-elf/lib/mno-hw-mul/libc.a(lib_a-locale.o)
 .debug_frame   0x0000000000000bc4       0x4c /media/christoph/8A841458841448D9/space/altera_lite/15.1/nios2eds/bin/gnu/H-x86_64-pc-linux-gnu/bin/../lib/gcc/nios2-elf/4.9.2/../../../../../H-x86_64-pc-linux-gnu/nios2-elf/lib/mno-hw-mul/libc.a(lib_a-makebuf.o)
 .debug_frame   0x0000000000000c10       0x54 /media/christoph/8A841458841448D9/space/altera_lite/15.1/nios2eds/bin/gnu/H-x86_64-pc-linux-gnu/bin/../lib/gcc/nios2-elf/4.9.2/../../../../../H-x86_64-pc-linux-gnu/nios2-elf/lib/mno-hw-mul/libc.a(lib_a-mallocr.o)
 .debug_frame   0x0000000000000c64       0x20 /media/christoph/8A841458841448D9/space/altera_lite/15.1/nios2eds/bin/gnu/H-x86_64-pc-linux-gnu/bin/../lib/gcc/nios2-elf/4.9.2/../../../../../H-x86_64-pc-linux-gnu/nios2-elf/lib/mno-hw-mul/libc.a(lib_a-memchr.o)
 .debug_frame   0x0000000000000c84       0x30 /media/christoph/8A841458841448D9/space/altera_lite/15.1/nios2eds/bin/gnu/H-x86_64-pc-linux-gnu/bin/../lib/gcc/nios2-elf/4.9.2/../../../../../H-x86_64-pc-linux-gnu/nios2-elf/lib/mno-hw-mul/libc.a(lib_a-memcpy.o)
 .debug_frame   0x0000000000000cb4       0x20 /media/christoph/8A841458841448D9/space/altera_lite/15.1/nios2eds/bin/gnu/H-x86_64-pc-linux-gnu/bin/../lib/gcc/nios2-elf/4.9.2/../../../../../H-x86_64-pc-linux-gnu/nios2-elf/lib/mno-hw-mul/libc.a(lib_a-memset.o)
 .debug_frame   0x0000000000000cd4      0x308 /media/christoph/8A841458841448D9/space/altera_lite/15.1/nios2eds/bin/gnu/H-x86_64-pc-linux-gnu/bin/../lib/gcc/nios2-elf/4.9.2/../../../../../H-x86_64-pc-linux-gnu/nios2-elf/lib/mno-hw-mul/libc.a(lib_a-mprec.o)
 .debug_frame   0x0000000000000fdc       0x20 /media/christoph/8A841458841448D9/space/altera_lite/15.1/nios2eds/bin/gnu/H-x86_64-pc-linux-gnu/bin/../lib/gcc/nios2-elf/4.9.2/../../../../../H-x86_64-pc-linux-gnu/nios2-elf/lib/mno-hw-mul/libc.a(lib_a-s_fpclassify.o)
 .debug_frame   0x0000000000000ffc       0x38 /media/christoph/8A841458841448D9/space/altera_lite/15.1/nios2eds/bin/gnu/H-x86_64-pc-linux-gnu/bin/../lib/gcc/nios2-elf/4.9.2/../../../../../H-x86_64-pc-linux-gnu/nios2-elf/lib/mno-hw-mul/libc.a(lib_a-sbrkr.o)
 .debug_frame   0x0000000000001034       0xb4 /media/christoph/8A841458841448D9/space/altera_lite/15.1/nios2eds/bin/gnu/H-x86_64-pc-linux-gnu/bin/../lib/gcc/nios2-elf/4.9.2/../../../../../H-x86_64-pc-linux-gnu/nios2-elf/lib/mno-hw-mul/libc.a(lib_a-stdio.o)
 .debug_frame   0x00000000000010e8       0x20 /media/christoph/8A841458841448D9/space/altera_lite/15.1/nios2eds/bin/gnu/H-x86_64-pc-linux-gnu/bin/../lib/gcc/nios2-elf/4.9.2/../../../../../H-x86_64-pc-linux-gnu/nios2-elf/lib/mno-hw-mul/libc.a(lib_a-strcmp.o)
 .debug_frame   0x0000000000001108       0x20 /media/christoph/8A841458841448D9/space/altera_lite/15.1/nios2eds/bin/gnu/H-x86_64-pc-linux-gnu/bin/../lib/gcc/nios2-elf/4.9.2/../../../../../H-x86_64-pc-linux-gnu/nios2-elf/lib/mno-hw-mul/libc.a(lib_a-strlen.o)
 .debug_frame   0x0000000000001128       0xec /media/christoph/8A841458841448D9/space/altera_lite/15.1/nios2eds/bin/gnu/H-x86_64-pc-linux-gnu/bin/../lib/gcc/nios2-elf/4.9.2/../../../../../H-x86_64-pc-linux-gnu/nios2-elf/lib/mno-hw-mul/libc.a(lib_a-vfiprintf.o)
 .debug_frame   0x0000000000001214       0x38 /media/christoph/8A841458841448D9/space/altera_lite/15.1/nios2eds/bin/gnu/H-x86_64-pc-linux-gnu/bin/../lib/gcc/nios2-elf/4.9.2/../../../../../H-x86_64-pc-linux-gnu/nios2-elf/lib/mno-hw-mul/libc.a(lib_a-writer.o)
 .debug_frame   0x000000000000124c       0x38 /media/christoph/8A841458841448D9/space/altera_lite/15.1/nios2eds/bin/gnu/H-x86_64-pc-linux-gnu/bin/../lib/gcc/nios2-elf/4.9.2/../../../../../H-x86_64-pc-linux-gnu/nios2-elf/lib/mno-hw-mul/libc.a(closer.o)
 .debug_frame   0x0000000000001284       0x40 /media/christoph/8A841458841448D9/space/altera_lite/15.1/nios2eds/bin/gnu/H-x86_64-pc-linux-gnu/bin/../lib/gcc/nios2-elf/4.9.2/../../../../../H-x86_64-pc-linux-gnu/nios2-elf/lib/mno-hw-mul/libc.a(lib_a-callocr.o)
 .debug_frame   0x00000000000012c4       0x54 /media/christoph/8A841458841448D9/space/altera_lite/15.1/nios2eds/bin/gnu/H-x86_64-pc-linux-gnu/bin/../lib/gcc/nios2-elf/4.9.2/../../../../../H-x86_64-pc-linux-gnu/nios2-elf/lib/mno-hw-mul/libc.a(lib_a-fclose.o)
 .debug_frame   0x0000000000001318       0x6c /media/christoph/8A841458841448D9/space/altera_lite/15.1/nios2eds/bin/gnu/H-x86_64-pc-linux-gnu/bin/../lib/gcc/nios2-elf/4.9.2/../../../../../H-x86_64-pc-linux-gnu/nios2-elf/lib/mno-hw-mul/libc.a(lib_a-fputwc.o)
 .debug_frame   0x0000000000001384       0x38 /media/christoph/8A841458841448D9/space/altera_lite/15.1/nios2eds/bin/gnu/H-x86_64-pc-linux-gnu/bin/../lib/gcc/nios2-elf/4.9.2/../../../../../H-x86_64-pc-linux-gnu/nios2-elf/lib/mno-hw-mul/libc.a(lib_a-fstatr.o)
 .debug_frame   0x00000000000013bc       0x7c /media/christoph/8A841458841448D9/space/altera_lite/15.1/nios2eds/bin/gnu/H-x86_64-pc-linux-gnu/bin/../lib/gcc/nios2-elf/4.9.2/../../../../../H-x86_64-pc-linux-gnu/nios2-elf/lib/mno-hw-mul/libc.a(lib_a-fvwrite.o)
 .debug_frame   0x0000000000001438       0x38 /media/christoph/8A841458841448D9/space/altera_lite/15.1/nios2eds/bin/gnu/H-x86_64-pc-linux-gnu/bin/../lib/gcc/nios2-elf/4.9.2/../../../../../H-x86_64-pc-linux-gnu/nios2-elf/lib/mno-hw-mul/libc.a(lib_a-isattyr.o)
 .debug_frame   0x0000000000001470       0x38 /media/christoph/8A841458841448D9/space/altera_lite/15.1/nios2eds/bin/gnu/H-x86_64-pc-linux-gnu/bin/../lib/gcc/nios2-elf/4.9.2/../../../../../H-x86_64-pc-linux-gnu/nios2-elf/lib/mno-hw-mul/libc.a(lib_a-lseekr.o)
 .debug_frame   0x00000000000014a8       0x20 /media/christoph/8A841458841448D9/space/altera_lite/15.1/nios2eds/bin/gnu/H-x86_64-pc-linux-gnu/bin/../lib/gcc/nios2-elf/4.9.2/../../../../../H-x86_64-pc-linux-gnu/nios2-elf/lib/mno-hw-mul/libc.a(lib_a-memmove.o)
 .debug_frame   0x00000000000014c8       0x38 /media/christoph/8A841458841448D9/space/altera_lite/15.1/nios2eds/bin/gnu/H-x86_64-pc-linux-gnu/bin/../lib/gcc/nios2-elf/4.9.2/../../../../../H-x86_64-pc-linux-gnu/nios2-elf/lib/mno-hw-mul/libc.a(lib_a-readr.o)
 .debug_frame   0x0000000000001500       0x70 /media/christoph/8A841458841448D9/space/altera_lite/15.1/nios2eds/bin/gnu/H-x86_64-pc-linux-gnu/bin/../lib/gcc/nios2-elf/4.9.2/../../../../../H-x86_64-pc-linux-gnu/nios2-elf/lib/mno-hw-mul/libc.a(lib_a-reallocr.o)
 .debug_frame   0x0000000000001570       0x4c /media/christoph/8A841458841448D9/space/altera_lite/15.1/nios2eds/bin/gnu/H-x86_64-pc-linux-gnu/bin/../lib/gcc/nios2-elf/4.9.2/../../../../../H-x86_64-pc-linux-gnu/nios2-elf/lib/mno-hw-mul/libc.a(lib_a-wbuf.o)
 .debug_frame   0x00000000000015bc       0x70 /media/christoph/8A841458841448D9/space/altera_lite/15.1/nios2eds/bin/gnu/H-x86_64-pc-linux-gnu/bin/../lib/gcc/nios2-elf/4.9.2/../../../../../H-x86_64-pc-linux-gnu/nios2-elf/lib/mno-hw-mul/libc.a(lib_a-wcrtomb.o)
 .debug_frame   0x000000000000162c       0x44 /media/christoph/8A841458841448D9/space/altera_lite/15.1/nios2eds/bin/gnu/H-x86_64-pc-linux-gnu/bin/../lib/gcc/nios2-elf/4.9.2/../../../../../H-x86_64-pc-linux-gnu/nios2-elf/lib/mno-hw-mul/libc.a(lib_a-wctomb_r.o)
 .debug_frame   0x0000000000001670       0x54 /media/christoph/8A841458841448D9/space/altera_lite/15.1/nios2eds/bin/gnu/H-x86_64-pc-linux-gnu/bin/../lib/gcc/nios2-elf/4.9.2/mno-hw-mul/libgcc.a(_udivdi3.o)
 .debug_frame   0x00000000000016c4       0x54 /media/christoph/8A841458841448D9/space/altera_lite/15.1/nios2eds/bin/gnu/H-x86_64-pc-linux-gnu/bin/../lib/gcc/nios2-elf/4.9.2/mno-hw-mul/libgcc.a(_umoddi3.o)
 .debug_frame   0x0000000000001718       0x40 /media/christoph/8A841458841448D9/space/altera_lite/15.1/nios2eds/bin/gnu/H-x86_64-pc-linux-gnu/bin/../lib/gcc/nios2-elf/4.9.2/mno-hw-mul/libgcc.a(adddf3.o)
 .debug_frame   0x0000000000001758       0x20 /media/christoph/8A841458841448D9/space/altera_lite/15.1/nios2eds/bin/gnu/H-x86_64-pc-linux-gnu/bin/../lib/gcc/nios2-elf/4.9.2/mno-hw-mul/libgcc.a(eqdf2.o)
 .debug_frame   0x0000000000001778       0x34 /media/christoph/8A841458841448D9/space/altera_lite/15.1/nios2eds/bin/gnu/H-x86_64-pc-linux-gnu/bin/../lib/gcc/nios2-elf/4.9.2/mno-hw-mul/libgcc.a(floatunsidf.o)
 .debug_frame   0x00000000000017ac       0x60 ../Autonomous_Car_OS_bsp//libucosii_bsp.a(alt_close.o)
 .debug_frame   0x000000000000180c       0x34 ../Autonomous_Car_OS_bsp//libucosii_bsp.a(alt_dev.o)
 .debug_frame   0x0000000000001840       0x60 ../Autonomous_Car_OS_bsp//libucosii_bsp.a(alt_fstat.o)
 .debug_frame   0x00000000000018a0       0xa4 ../Autonomous_Car_OS_bsp//libucosii_bsp.a(alt_iic.o)
 .debug_frame   0x0000000000001944       0x38 ../Autonomous_Car_OS_bsp//libucosii_bsp.a(alt_iic_isr_register.o)
 .debug_frame   0x000000000000197c       0x38 ../Autonomous_Car_OS_bsp//libucosii_bsp.a(alt_irq_handler.o)
 .debug_frame   0x00000000000019b4       0x60 ../Autonomous_Car_OS_bsp//libucosii_bsp.a(alt_isatty.o)
 .debug_frame   0x0000000000001a14       0x60 ../Autonomous_Car_OS_bsp//libucosii_bsp.a(alt_lseek.o)
 .debug_frame   0x0000000000001a74       0x2c ../Autonomous_Car_OS_bsp//libucosii_bsp.a(alt_main.o)
 .debug_frame   0x0000000000001aa0       0x60 ../Autonomous_Car_OS_bsp//libucosii_bsp.a(alt_read.o)
 .debug_frame   0x0000000000001b00       0x3c ../Autonomous_Car_OS_bsp//libucosii_bsp.a(alt_release_fd.o)
 .debug_frame   0x0000000000001b3c       0x34 ../Autonomous_Car_OS_bsp//libucosii_bsp.a(alt_sbrk.o)
 .debug_frame   0x0000000000001b70       0x60 ../Autonomous_Car_OS_bsp//libucosii_bsp.a(alt_write.o)
 .debug_frame   0x0000000000001bd0       0x60 ../Autonomous_Car_OS_bsp//libucosii_bsp.a(alt_env_lock.o)
 .debug_frame   0x0000000000001c30       0x64 ../Autonomous_Car_OS_bsp//libucosii_bsp.a(alt_malloc_lock.o)
 .debug_frame   0x0000000000001c94      0x530 ../Autonomous_Car_OS_bsp//libucosii_bsp.a(os_core.o)
 .debug_frame   0x00000000000021c4       0x34 ../Autonomous_Car_OS_bsp//libucosii_bsp.a(os_dbg.o)
 .debug_frame   0x00000000000021f8      0x200 ../Autonomous_Car_OS_bsp//libucosii_bsp.a(os_flag.o)
 .debug_frame   0x00000000000023f8      0x118 ../Autonomous_Car_OS_bsp//libucosii_bsp.a(os_mem.o)
 .debug_frame   0x0000000000002510      0x1bc ../Autonomous_Car_OS_bsp//libucosii_bsp.a(os_q.o)
 .debug_frame   0x00000000000026cc      0x144 ../Autonomous_Car_OS_bsp//libucosii_bsp.a(os_sem.o)
 .debug_frame   0x0000000000002810      0x1e4 ../Autonomous_Car_OS_bsp//libucosii_bsp.a(os_task.o)
 .debug_frame   0x00000000000029f4       0xdc ../Autonomous_Car_OS_bsp//libucosii_bsp.a(os_time.o)
 .debug_frame   0x0000000000002ad0       0x88 ../Autonomous_Car_OS_bsp//libucosii_bsp.a(alt_sys_init.o)
 .debug_frame   0x0000000000002b58      0x198 ../Autonomous_Car_OS_bsp//libucosii_bsp.a(altera_avalon_epcs_flash_controller.o)
 .debug_frame   0x0000000000002cf0       0xb0 ../Autonomous_Car_OS_bsp//libucosii_bsp.a(altera_avalon_jtag_uart_fd.o)
 .debug_frame   0x0000000000002da0       0xac ../Autonomous_Car_OS_bsp//libucosii_bsp.a(altera_avalon_jtag_uart_init.o)
 .debug_frame   0x0000000000002e4c       0x34 ../Autonomous_Car_OS_bsp//libucosii_bsp.a(altera_avalon_jtag_uart_ioctl.o)
 .debug_frame   0x0000000000002e80       0x38 ../Autonomous_Car_OS_bsp//libucosii_bsp.a(altera_avalon_jtag_uart_read.o)
 .debug_frame   0x0000000000002eb8       0x38 ../Autonomous_Car_OS_bsp//libucosii_bsp.a(altera_avalon_jtag_uart_write.o)
 .debug_frame   0x0000000000002ef0       0x60 ../Autonomous_Car_OS_bsp//libucosii_bsp.a(altera_avalon_timer_sc.o)
 .debug_frame   0x0000000000002f50       0x88 ../Autonomous_Car_OS_bsp//libucosii_bsp.a(altera_avalon_uart_fd.o)
 .debug_frame   0x0000000000002fd8       0xd4 ../Autonomous_Car_OS_bsp//libucosii_bsp.a(altera_avalon_uart_init.o)
 .debug_frame   0x00000000000030ac       0x60 ../Autonomous_Car_OS_bsp//libucosii_bsp.a(altera_avalon_uart_read.o)
 .debug_frame   0x000000000000310c       0x60 ../Autonomous_Car_OS_bsp//libucosii_bsp.a(altera_avalon_uart_write.o)
 .debug_frame   0x000000000000316c      0x1f0 ../Autonomous_Car_OS_bsp//libucosii_bsp.a(epcs_commands.o)
 .debug_frame   0x000000000000335c       0x34 ../Autonomous_Car_OS_bsp//libucosii_bsp.a(alt_alarm_start.o)
 .debug_frame   0x0000000000003390       0x60 ../Autonomous_Car_OS_bsp//libucosii_bsp.a(alt_dev_llist_insert.o)
 .debug_frame   0x00000000000033f0       0x38 ../Autonomous_Car_OS_bsp//libucosii_bsp.a(alt_do_ctors.o)
 .debug_frame   0x0000000000003428       0x38 ../Autonomous_Car_OS_bsp//libucosii_bsp.a(alt_do_dtors.o)
 .debug_frame   0x0000000000003460       0x60 ../Autonomous_Car_OS_bsp//libucosii_bsp.a(alt_flash_dev.o)
 .debug_frame   0x00000000000034c0       0x64 ../Autonomous_Car_OS_bsp//libucosii_bsp.a(alt_io_redirect.o)
 .debug_frame   0x0000000000003524       0x8c ../Autonomous_Car_OS_bsp//libucosii_bsp.a(alt_open.o)
 .debug_frame   0x00000000000035b0       0x5c ../Autonomous_Car_OS_bsp//libucosii_bsp.a(alt_tick.o)
 .debug_frame   0x000000000000360c       0x34 ../Autonomous_Car_OS_bsp//libucosii_bsp.a(altera_nios2_qsys_irq.o)
 .debug_frame   0x0000000000003640      0x17c ../Autonomous_Car_OS_bsp//libucosii_bsp.a(os_cpu_c.o)
 .debug_frame   0x00000000000037bc       0x34 ../Autonomous_Car_OS_bsp//libucosii_bsp.a(altera_avalon_spi.o)
 .debug_frame   0x00000000000037f0       0x38 ../Autonomous_Car_OS_bsp//libucosii_bsp.a(alt_find_dev.o)
 .debug_frame   0x0000000000003828       0x38 ../Autonomous_Car_OS_bsp//libucosii_bsp.a(alt_find_file.o)
 .debug_frame   0x0000000000003860       0x3c ../Autonomous_Car_OS_bsp//libucosii_bsp.a(alt_get_fd.o)
 .debug_frame   0x000000000000389c       0x20 /media/christoph/8A841458841448D9/space/altera_lite/15.1/nios2eds/bin/gnu/H-x86_64-pc-linux-gnu/bin/../lib/gcc/nios2-elf/4.9.2/../../../../../H-x86_64-pc-linux-gnu/nios2-elf/lib/mno-hw-mul/libc.a(lib_a-atexit.o)
 .debug_frame   0x00000000000038bc       0x28 /media/christoph/8A841458841448D9/space/altera_lite/15.1/nios2eds/bin/gnu/H-x86_64-pc-linux-gnu/bin/../lib/gcc/nios2-elf/4.9.2/../../../../../H-x86_64-pc-linux-gnu/nios2-elf/lib/mno-hw-mul/libc.a(lib_a-exit.o)
 .debug_frame   0x00000000000038e4       0x20 /media/christoph/8A841458841448D9/space/altera_lite/15.1/nios2eds/bin/gnu/H-x86_64-pc-linux-gnu/bin/../lib/gcc/nios2-elf/4.9.2/../../../../../H-x86_64-pc-linux-gnu/nios2-elf/lib/mno-hw-mul/libc.a(lib_a-memcmp.o)
 .debug_frame   0x0000000000003904       0x38 /media/christoph/8A841458841448D9/space/altera_lite/15.1/nios2eds/bin/gnu/H-x86_64-pc-linux-gnu/bin/../lib/gcc/nios2-elf/4.9.2/../../../../../H-x86_64-pc-linux-gnu/nios2-elf/lib/mno-hw-mul/libc.a(lib_a-__atexit.o)
 .debug_frame   0x000000000000393c       0x54 /media/christoph/8A841458841448D9/space/altera_lite/15.1/nios2eds/bin/gnu/H-x86_64-pc-linux-gnu/bin/../lib/gcc/nios2-elf/4.9.2/../../../../../H-x86_64-pc-linux-gnu/nios2-elf/lib/mno-hw-mul/libc.a(lib_a-__call_atexit.o)
 .debug_frame   0x0000000000003990       0x2c ../Autonomous_Car_OS_bsp//libucosii_bsp.a(alt_exit.o)

.debug_str      0x0000000000000000     0x4cbe
 *(.debug_str)
 .debug_str     0x0000000000000000      0x10f obj/default/communication.o
                                        0x13b (size before relaxing)
 .debug_str     0x000000000000010f       0x5b obj/default/gps.o
                                        0x182 (size before relaxing)
 .debug_str     0x000000000000016a      0x12b obj/default/main.o
                                        0x25a (size before relaxing)
 .debug_str     0x0000000000000295       0xac obj/default/motor.o
                                        0x1f2 (size before relaxing)
 .debug_str     0x0000000000000341       0x91 obj/default/uart.o
                                        0x1f9 (size before relaxing)
 .debug_str     0x00000000000003d2       0x36 obj/default/ultrasound.o
                                         0xed (size before relaxing)
 .debug_str     0x0000000000000408      0x161 /media/christoph/8A841458841448D9/space/altera_lite/15.1/nios2eds/bin/gnu/H-x86_64-pc-linux-gnu/bin/../lib/gcc/nios2-elf/4.9.2/mno-hw-mul/libgcc.a(_fixunsdfsi.o)
                                        0x1de (size before relaxing)
 .debug_str     0x0000000000000569       0x40 /media/christoph/8A841458841448D9/space/altera_lite/15.1/nios2eds/bin/gnu/H-x86_64-pc-linux-gnu/bin/../lib/gcc/nios2-elf/4.9.2/mno-hw-mul/libgcc.a(lib2-mul.o)
                                        0x192 (size before relaxing)
 .debug_str     0x00000000000005a9      0x113 /media/christoph/8A841458841448D9/space/altera_lite/15.1/nios2eds/bin/gnu/H-x86_64-pc-linux-gnu/bin/../lib/gcc/nios2-elf/4.9.2/mno-hw-mul/libgcc.a(divdf3.o)
                                        0x2a4 (size before relaxing)
 .debug_str     0x00000000000006bc       0x4f /media/christoph/8A841458841448D9/space/altera_lite/15.1/nios2eds/bin/gnu/H-x86_64-pc-linux-gnu/bin/../lib/gcc/nios2-elf/4.9.2/mno-hw-mul/libgcc.a(gedf2.o)
                                        0x216 (size before relaxing)
 .debug_str     0x000000000000070b       0x37 /media/christoph/8A841458841448D9/space/altera_lite/15.1/nios2eds/bin/gnu/H-x86_64-pc-linux-gnu/bin/../lib/gcc/nios2-elf/4.9.2/mno-hw-mul/libgcc.a(ledf2.o)
                                        0x216 (size before relaxing)
 .debug_str     0x0000000000000742       0x90 /media/christoph/8A841458841448D9/space/altera_lite/15.1/nios2eds/bin/gnu/H-x86_64-pc-linux-gnu/bin/../lib/gcc/nios2-elf/4.9.2/mno-hw-mul/libgcc.a(muldf3.o)
                                        0x2bc (size before relaxing)
 .debug_str     0x00000000000007d2       0x88 /media/christoph/8A841458841448D9/space/altera_lite/15.1/nios2eds/bin/gnu/H-x86_64-pc-linux-gnu/bin/../lib/gcc/nios2-elf/4.9.2/mno-hw-mul/libgcc.a(subdf3.o)
                                        0x263 (size before relaxing)
 .debug_str     0x000000000000085a       0x43 /media/christoph/8A841458841448D9/space/altera_lite/15.1/nios2eds/bin/gnu/H-x86_64-pc-linux-gnu/bin/../lib/gcc/nios2-elf/4.9.2/mno-hw-mul/libgcc.a(fixdfsi.o)
                                        0x20f (size before relaxing)
 .debug_str     0x000000000000089d       0x4c /media/christoph/8A841458841448D9/space/altera_lite/15.1/nios2eds/bin/gnu/H-x86_64-pc-linux-gnu/bin/../lib/gcc/nios2-elf/4.9.2/mno-hw-mul/libgcc.a(floatsidf.o)
                                        0x213 (size before relaxing)
 .debug_str     0x00000000000008e9       0x20 /media/christoph/8A841458841448D9/space/altera_lite/15.1/nios2eds/bin/gnu/H-x86_64-pc-linux-gnu/bin/../lib/gcc/nios2-elf/4.9.2/mno-hw-mul/libgcc.a(_clzsi2.o)
                                        0x1f3 (size before relaxing)
 .debug_str     0x0000000000000909       0x7f /media/christoph/8A841458841448D9/space/altera_lite/15.1/nios2eds/bin/gnu/H-x86_64-pc-linux-gnu/bin/../lib/gcc/nios2-elf/4.9.2/mno-hw-mul/libgcc.a(lib2-divmod.o)
                                        0x1d1 (size before relaxing)
 .debug_str     0x0000000000000000      0x1d6 /media/christoph/8A841458841448D9/space/altera_lite/15.1/nios2eds/bin/gnu/H-x86_64-pc-linux-gnu/bin/../lib/gcc/nios2-elf/4.9.2/mno-hw-mul/libgcc.a(_clz.o)
 .debug_str     0x0000000000000988      0x4d0 /media/christoph/8A841458841448D9/space/altera_lite/15.1/nios2eds/bin/gnu/H-x86_64-pc-linux-gnu/bin/../lib/gcc/nios2-elf/4.9.2/../../../../../H-x86_64-pc-linux-gnu/nios2-elf/lib/mno-hw-mul/libc.a(lib_a-printf.o)
                                        0x5f3 (size before relaxing)
 .debug_str     0x0000000000000e58       0xd6 /media/christoph/8A841458841448D9/space/altera_lite/15.1/nios2eds/bin/gnu/H-x86_64-pc-linux-gnu/bin/../lib/gcc/nios2-elf/4.9.2/../../../../../H-x86_64-pc-linux-gnu/nios2-elf/lib/mno-hw-mul/libc.a(lib_a-strncmp.o)
                                        0x1d9 (size before relaxing)
 .debug_str     0x0000000000000f2e       0x68 /media/christoph/8A841458841448D9/space/altera_lite/15.1/nios2eds/bin/gnu/H-x86_64-pc-linux-gnu/bin/../lib/gcc/nios2-elf/4.9.2/../../../../../H-x86_64-pc-linux-gnu/nios2-elf/lib/mno-hw-mul/libc.a(lib_a-strncpy.o)
                                        0x201 (size before relaxing)
 .debug_str     0x0000000000000f96      0x382 /media/christoph/8A841458841448D9/space/altera_lite/15.1/nios2eds/bin/gnu/H-x86_64-pc-linux-gnu/bin/../lib/gcc/nios2-elf/4.9.2/../../../../../H-x86_64-pc-linux-gnu/nios2-elf/lib/mno-hw-mul/libc.a(lib_a-vfprintf.o)
                                        0x9a3 (size before relaxing)
 .debug_str     0x0000000000001318       0x51 /media/christoph/8A841458841448D9/space/altera_lite/15.1/nios2eds/bin/gnu/H-x86_64-pc-linux-gnu/bin/../lib/gcc/nios2-elf/4.9.2/../../../../../H-x86_64-pc-linux-gnu/nios2-elf/lib/mno-hw-mul/libc.a(lib_a-wsetup.o)
                                        0x5c7 (size before relaxing)
 .debug_str     0x0000000000001369      0x1f0 /media/christoph/8A841458841448D9/space/altera_lite/15.1/nios2eds/bin/gnu/H-x86_64-pc-linux-gnu/bin/../lib/gcc/nios2-elf/4.9.2/../../../../../H-x86_64-pc-linux-gnu/nios2-elf/lib/mno-hw-mul/libc.a(lib_a-dtoa.o)
                                        0x6fa (size before relaxing)
 .debug_str     0x0000000000001559       0x7f /media/christoph/8A841458841448D9/space/altera_lite/15.1/nios2eds/bin/gnu/H-x86_64-pc-linux-gnu/bin/../lib/gcc/nios2-elf/4.9.2/../../../../../H-x86_64-pc-linux-gnu/nios2-elf/lib/mno-hw-mul/libc.a(lib_a-fflush.o)
                                        0x608 (size before relaxing)
 .debug_str     0x00000000000015d8      0x123 /media/christoph/8A841458841448D9/space/altera_lite/15.1/nios2eds/bin/gnu/H-x86_64-pc-linux-gnu/bin/../lib/gcc/nios2-elf/4.9.2/../../../../../H-x86_64-pc-linux-gnu/nios2-elf/lib/mno-hw-mul/libc.a(lib_a-findfp.o)
                                        0x6c2 (size before relaxing)
 .debug_str     0x00000000000016fb      0x185 /media/christoph/8A841458841448D9/space/altera_lite/15.1/nios2eds/bin/gnu/H-x86_64-pc-linux-gnu/bin/../lib/gcc/nios2-elf/4.9.2/../../../../../H-x86_64-pc-linux-gnu/nios2-elf/lib/mno-hw-mul/libc.a(lib_a-freer.o)
                                        0x701 (size before relaxing)
 .debug_str     0x0000000000001880       0x4a /media/christoph/8A841458841448D9/space/altera_lite/15.1/nios2eds/bin/gnu/H-x86_64-pc-linux-gnu/bin/../lib/gcc/nios2-elf/4.9.2/../../../../../H-x86_64-pc-linux-gnu/nios2-elf/lib/mno-hw-mul/libc.a(lib_a-fwalk.o)
                                        0x5ad (size before relaxing)
 .debug_str     0x00000000000018ca       0xd7 /media/christoph/8A841458841448D9/space/altera_lite/15.1/nios2eds/bin/gnu/H-x86_64-pc-linux-gnu/bin/../lib/gcc/nios2-elf/4.9.2/../../../../../H-x86_64-pc-linux-gnu/nios2-elf/lib/mno-hw-mul/libc.a(lib_a-impure.o)
                                        0x5a8 (size before relaxing)
 .debug_str     0x00000000000019a1      0x1b4 /media/christoph/8A841458841448D9/space/altera_lite/15.1/nios2eds/bin/gnu/H-x86_64-pc-linux-gnu/bin/../lib/gcc/nios2-elf/4.9.2/../../../../../H-x86_64-pc-linux-gnu/nios2-elf/lib/mno-hw-mul/libc.a(lib_a-locale.o)
                                        0x805 (size before relaxing)
 .debug_str     0x0000000000001b55      0x124 /media/christoph/8A841458841448D9/space/altera_lite/15.1/nios2eds/bin/gnu/H-x86_64-pc-linux-gnu/bin/../lib/gcc/nios2-elf/4.9.2/../../../../../H-x86_64-pc-linux-gnu/nios2-elf/lib/mno-hw-mul/libc.a(lib_a-makebuf.o)
                                        0x6aa (size before relaxing)
 .debug_str     0x0000000000001c79       0xd9 /media/christoph/8A841458841448D9/space/altera_lite/15.1/nios2eds/bin/gnu/H-x86_64-pc-linux-gnu/bin/../lib/gcc/nios2-elf/4.9.2/../../../../../H-x86_64-pc-linux-gnu/nios2-elf/lib/mno-hw-mul/libc.a(lib_a-mallocr.o)
                                        0x7b7 (size before relaxing)
 .debug_str     0x0000000000001d52       0x4b /media/christoph/8A841458841448D9/space/altera_lite/15.1/nios2eds/bin/gnu/H-x86_64-pc-linux-gnu/bin/../lib/gcc/nios2-elf/4.9.2/../../../../../H-x86_64-pc-linux-gnu/nios2-elf/lib/mno-hw-mul/libc.a(lib_a-memchr.o)
                                        0x1f1 (size before relaxing)
 .debug_str     0x0000000000001d9d       0x42 /media/christoph/8A841458841448D9/space/altera_lite/15.1/nios2eds/bin/gnu/H-x86_64-pc-linux-gnu/bin/../lib/gcc/nios2-elf/4.9.2/../../../../../H-x86_64-pc-linux-gnu/nios2-elf/lib/mno-hw-mul/libc.a(lib_a-memcpy.o)
                                        0x1fe (size before relaxing)
 .debug_str     0x0000000000001ddf       0x4a /media/christoph/8A841458841448D9/space/altera_lite/15.1/nios2eds/bin/gnu/H-x86_64-pc-linux-gnu/bin/../lib/gcc/nios2-elf/4.9.2/../../../../../H-x86_64-pc-linux-gnu/nios2-elf/lib/mno-hw-mul/libc.a(lib_a-memset.o)
                                        0x1eb (size before relaxing)
 .debug_str     0x0000000000001e29       0xa7 /media/christoph/8A841458841448D9/space/altera_lite/15.1/nios2eds/bin/gnu/H-x86_64-pc-linux-gnu/bin/../lib/gcc/nios2-elf/4.9.2/../../../../../H-x86_64-pc-linux-gnu/nios2-elf/lib/mno-hw-mul/libc.a(lib_a-mprec.o)
                                        0x6b4 (size before relaxing)
 .debug_str     0x0000000000001ed0       0xd3 /media/christoph/8A841458841448D9/space/altera_lite/15.1/nios2eds/bin/gnu/H-x86_64-pc-linux-gnu/bin/../lib/gcc/nios2-elf/4.9.2/../../../../../H-x86_64-pc-linux-gnu/nios2-elf/lib/mno-hw-mul/libc.a(lib_a-s_fpclassify.o)
                                        0x201 (size before relaxing)
 .debug_str     0x0000000000001fa3       0x45 /media/christoph/8A841458841448D9/space/altera_lite/15.1/nios2eds/bin/gnu/H-x86_64-pc-linux-gnu/bin/../lib/gcc/nios2-elf/4.9.2/../../../../../H-x86_64-pc-linux-gnu/nios2-elf/lib/mno-hw-mul/libc.a(lib_a-sbrkr.o)
                                        0x59e (size before relaxing)
 .debug_str     0x0000000000001fe8       0x9b /media/christoph/8A841458841448D9/space/altera_lite/15.1/nios2eds/bin/gnu/H-x86_64-pc-linux-gnu/bin/../lib/gcc/nios2-elf/4.9.2/../../../../../H-x86_64-pc-linux-gnu/nios2-elf/lib/mno-hw-mul/libc.a(lib_a-stdio.o)
                                        0x603 (size before relaxing)
 .debug_str     0x0000000000002083       0x3d /media/christoph/8A841458841448D9/space/altera_lite/15.1/nios2eds/bin/gnu/H-x86_64-pc-linux-gnu/bin/../lib/gcc/nios2-elf/4.9.2/../../../../../H-x86_64-pc-linux-gnu/nios2-elf/lib/mno-hw-mul/libc.a(lib_a-strcmp.o)
                                        0x1d0 (size before relaxing)
 .debug_str     0x00000000000020c0       0x3d /media/christoph/8A841458841448D9/space/altera_lite/15.1/nios2eds/bin/gnu/H-x86_64-pc-linux-gnu/bin/../lib/gcc/nios2-elf/4.9.2/../../../../../H-x86_64-pc-linux-gnu/nios2-elf/lib/mno-hw-mul/libc.a(lib_a-strlen.o)
                                        0x1ea (size before relaxing)
 .debug_str     0x00000000000020fd       0x4c /media/christoph/8A841458841448D9/space/altera_lite/15.1/nios2eds/bin/gnu/H-x86_64-pc-linux-gnu/bin/../lib/gcc/nios2-elf/4.9.2/../../../../../H-x86_64-pc-linux-gnu/nios2-elf/lib/mno-hw-mul/libc.a(lib_a-vfiprintf.o)
                                        0x795 (size before relaxing)
 .debug_str     0x0000000000002149       0x3c /media/christoph/8A841458841448D9/space/altera_lite/15.1/nios2eds/bin/gnu/H-x86_64-pc-linux-gnu/bin/../lib/gcc/nios2-elf/4.9.2/../../../../../H-x86_64-pc-linux-gnu/nios2-elf/lib/mno-hw-mul/libc.a(lib_a-writer.o)
                                        0x5a2 (size before relaxing)
 .debug_str     0x0000000000002185       0x3c /media/christoph/8A841458841448D9/space/altera_lite/15.1/nios2eds/bin/gnu/H-x86_64-pc-linux-gnu/bin/../lib/gcc/nios2-elf/4.9.2/../../../../../H-x86_64-pc-linux-gnu/nios2-elf/lib/mno-hw-mul/libc.a(closer.o)
                                        0x592 (size before relaxing)
 .debug_str     0x00000000000021c1        0xf /media/christoph/8A841458841448D9/space/altera_lite/15.1/nios2eds/bin/gnu/H-x86_64-pc-linux-gnu/bin/../lib/gcc/nios2-elf/4.9.2/../../../../../H-x86_64-pc-linux-gnu/nios2-elf/lib/mno-hw-mul/libc.a(lib_a-callocr.o)
                                        0x5e1 (size before relaxing)
 .debug_str     0x00000000000021d0       0x4d /media/christoph/8A841458841448D9/space/altera_lite/15.1/nios2eds/bin/gnu/H-x86_64-pc-linux-gnu/bin/../lib/gcc/nios2-elf/4.9.2/../../../../../H-x86_64-pc-linux-gnu/nios2-elf/lib/mno-hw-mul/libc.a(lib_a-fclose.o)
                                        0x5f5 (size before relaxing)
 .debug_str     0x000000000000221d       0x5a /media/christoph/8A841458841448D9/space/altera_lite/15.1/nios2eds/bin/gnu/H-x86_64-pc-linux-gnu/bin/../lib/gcc/nios2-elf/4.9.2/../../../../../H-x86_64-pc-linux-gnu/nios2-elf/lib/mno-hw-mul/libc.a(lib_a-fputwc.o)
                                        0x608 (size before relaxing)
 .debug_str     0x0000000000002277       0x48 /media/christoph/8A841458841448D9/space/altera_lite/15.1/nios2eds/bin/gnu/H-x86_64-pc-linux-gnu/bin/../lib/gcc/nios2-elf/4.9.2/../../../../../H-x86_64-pc-linux-gnu/nios2-elf/lib/mno-hw-mul/libc.a(lib_a-fstatr.o)
                                        0x67e (size before relaxing)
 .debug_str     0x00000000000022bf       0x6e /media/christoph/8A841458841448D9/space/altera_lite/15.1/nios2eds/bin/gnu/H-x86_64-pc-linux-gnu/bin/../lib/gcc/nios2-elf/4.9.2/../../../../../H-x86_64-pc-linux-gnu/nios2-elf/lib/mno-hw-mul/libc.a(lib_a-fvwrite.o)
                                        0x63a (size before relaxing)
 .debug_str     0x000000000000232d       0x3f /media/christoph/8A841458841448D9/space/altera_lite/15.1/nios2eds/bin/gnu/H-x86_64-pc-linux-gnu/bin/../lib/gcc/nios2-elf/4.9.2/../../../../../H-x86_64-pc-linux-gnu/nios2-elf/lib/mno-hw-mul/libc.a(lib_a-int_errno.o)
                                        0x1d0 (size before relaxing)
 .debug_str     0x000000000000236c       0x44 /media/christoph/8A841458841448D9/space/altera_lite/15.1/nios2eds/bin/gnu/H-x86_64-pc-linux-gnu/bin/../lib/gcc/nios2-elf/4.9.2/../../../../../H-x86_64-pc-linux-gnu/nios2-elf/lib/mno-hw-mul/libc.a(lib_a-isattyr.o)
                                        0x595 (size before relaxing)
 .debug_str     0x00000000000023b0       0x42 /media/christoph/8A841458841448D9/space/altera_lite/15.1/nios2eds/bin/gnu/H-x86_64-pc-linux-gnu/bin/../lib/gcc/nios2-elf/4.9.2/../../../../../H-x86_64-pc-linux-gnu/nios2-elf/lib/mno-hw-mul/libc.a(lib_a-lseekr.o)
                                        0x59f (size before relaxing)
 .debug_str     0x00000000000023f2       0x47 /media/christoph/8A841458841448D9/space/altera_lite/15.1/nios2eds/bin/gnu/H-x86_64-pc-linux-gnu/bin/../lib/gcc/nios2-elf/4.9.2/../../../../../H-x86_64-pc-linux-gnu/nios2-elf/lib/mno-hw-mul/libc.a(lib_a-memmove.o)
                                        0x20a (size before relaxing)
 .debug_str     0x0000000000002439       0x3b /media/christoph/8A841458841448D9/space/altera_lite/15.1/nios2eds/bin/gnu/H-x86_64-pc-linux-gnu/bin/../lib/gcc/nios2-elf/4.9.2/../../../../../H-x86_64-pc-linux-gnu/nios2-elf/lib/mno-hw-mul/libc.a(lib_a-readr.o)
                                        0x59f (size before relaxing)
 .debug_str     0x0000000000002474       0x49 /media/christoph/8A841458841448D9/space/altera_lite/15.1/nios2eds/bin/gnu/H-x86_64-pc-linux-gnu/bin/../lib/gcc/nios2-elf/4.9.2/../../../../../H-x86_64-pc-linux-gnu/nios2-elf/lib/mno-hw-mul/libc.a(lib_a-reallocr.o)
                                        0x689 (size before relaxing)
 .debug_str     0x00000000000024bd       0x42 /media/christoph/8A841458841448D9/space/altera_lite/15.1/nios2eds/bin/gnu/H-x86_64-pc-linux-gnu/bin/../lib/gcc/nios2-elf/4.9.2/../../../../../H-x86_64-pc-linux-gnu/nios2-elf/lib/mno-hw-mul/libc.a(lib_a-wbuf.o)
                                        0x5cc (size before relaxing)
 .debug_str     0x00000000000024ff       0x56 /media/christoph/8A841458841448D9/space/altera_lite/15.1/nios2eds/bin/gnu/H-x86_64-pc-linux-gnu/bin/../lib/gcc/nios2-elf/4.9.2/../../../../../H-x86_64-pc-linux-gnu/nios2-elf/lib/mno-hw-mul/libc.a(lib_a-wcrtomb.o)
                                        0x5df (size before relaxing)
 .debug_str     0x0000000000002555       0x5f /media/christoph/8A841458841448D9/space/altera_lite/15.1/nios2eds/bin/gnu/H-x86_64-pc-linux-gnu/bin/../lib/gcc/nios2-elf/4.9.2/../../../../../H-x86_64-pc-linux-gnu/nios2-elf/lib/mno-hw-mul/libc.a(lib_a-wctomb_r.o)
                                        0x5e8 (size before relaxing)
 .debug_str     0x00000000000025b4       0xd6 /media/christoph/8A841458841448D9/space/altera_lite/15.1/nios2eds/bin/gnu/H-x86_64-pc-linux-gnu/bin/../lib/gcc/nios2-elf/4.9.2/mno-hw-mul/libgcc.a(_udivdi3.o)
                                        0x28f (size before relaxing)
 .debug_str     0x000000000000268a        0xa /media/christoph/8A841458841448D9/space/altera_lite/15.1/nios2eds/bin/gnu/H-x86_64-pc-linux-gnu/bin/../lib/gcc/nios2-elf/4.9.2/mno-hw-mul/libgcc.a(_umoddi3.o)
                                        0x28f (size before relaxing)
 .debug_str     0x0000000000002694       0x39 /media/christoph/8A841458841448D9/space/altera_lite/15.1/nios2eds/bin/gnu/H-x86_64-pc-linux-gnu/bin/../lib/gcc/nios2-elf/4.9.2/mno-hw-mul/libgcc.a(adddf3.o)
                                        0x263 (size before relaxing)
 .debug_str     0x00000000000026cd       0x37 /media/christoph/8A841458841448D9/space/altera_lite/15.1/nios2eds/bin/gnu/H-x86_64-pc-linux-gnu/bin/../lib/gcc/nios2-elf/4.9.2/mno-hw-mul/libgcc.a(eqdf2.o)
                                        0x1fe (size before relaxing)
 .debug_str     0x0000000000002704       0x43 /media/christoph/8A841458841448D9/space/altera_lite/15.1/nios2eds/bin/gnu/H-x86_64-pc-linux-gnu/bin/../lib/gcc/nios2-elf/4.9.2/mno-hw-mul/libgcc.a(floatunsidf.o)
                                        0x210 (size before relaxing)
 .debug_str     0x0000000000002747       0xbf ../Autonomous_Car_OS_bsp//libucosii_bsp.a(alt_close.o)
                                        0x22f (size before relaxing)
 .debug_str     0x0000000000002806       0x61 ../Autonomous_Car_OS_bsp//libucosii_bsp.a(alt_dev.o)
                                        0x39d (size before relaxing)
 .debug_str     0x0000000000002867       0x14 ../Autonomous_Car_OS_bsp//libucosii_bsp.a(alt_errno.o)
                                        0x139 (size before relaxing)
 .debug_str     0x000000000000287b       0x14 ../Autonomous_Car_OS_bsp//libucosii_bsp.a(alt_fstat.o)
                                        0x310 (size before relaxing)
 .debug_str     0x000000000000288f       0xe8 ../Autonomous_Car_OS_bsp//libucosii_bsp.a(alt_iic.o)
                                        0x232 (size before relaxing)
 .debug_str     0x0000000000002977       0x4c ../Autonomous_Car_OS_bsp//libucosii_bsp.a(alt_iic_isr_register.o)
                                        0x1dc (size before relaxing)
 .debug_str     0x00000000000029c3       0x3a ../Autonomous_Car_OS_bsp//libucosii_bsp.a(alt_irq_handler.o)
                                        0x1b3 (size before relaxing)
 .debug_str     0x00000000000029fd       0x17 ../Autonomous_Car_OS_bsp//libucosii_bsp.a(alt_irq_vars.o)
                                        0x13a (size before relaxing)
 .debug_str     0x0000000000002a14       0x15 ../Autonomous_Car_OS_bsp//libucosii_bsp.a(alt_isatty.o)
                                        0x318 (size before relaxing)
 .debug_str     0x0000000000002a29       0x14 ../Autonomous_Car_OS_bsp//libucosii_bsp.a(alt_lseek.o)
                                        0x235 (size before relaxing)
 .debug_str     0x0000000000002a3d       0x5d ../Autonomous_Car_OS_bsp//libucosii_bsp.a(alt_main.o)
                                        0x254 (size before relaxing)
 .debug_str     0x0000000000002a9a       0x13 ../Autonomous_Car_OS_bsp//libucosii_bsp.a(alt_read.o)
                                        0x31b (size before relaxing)
 .debug_str     0x0000000000002aad       0x28 ../Autonomous_Car_OS_bsp//libucosii_bsp.a(alt_release_fd.o)
                                        0x219 (size before relaxing)
 .debug_str     0x0000000000002ad5       0x61 ../Autonomous_Car_OS_bsp//libucosii_bsp.a(alt_sbrk.o)
                                        0x1c8 (size before relaxing)
 .debug_str     0x0000000000002b36       0x14 ../Autonomous_Car_OS_bsp//libucosii_bsp.a(alt_write.o)
                                        0x31c (size before relaxing)
 .debug_str     0x0000000000002b4a      0x246 ../Autonomous_Car_OS_bsp//libucosii_bsp.a(alt_env_lock.o)
                                        0x7bc (size before relaxing)
 .debug_str     0x0000000000002d90       0x24 ../Autonomous_Car_OS_bsp//libucosii_bsp.a(alt_malloc_lock.o)
                                        0x81e (size before relaxing)
 .debug_str     0x0000000000002db4      0x536 ../Autonomous_Car_OS_bsp//libucosii_bsp.a(os_core.o)
                                        0x94a (size before relaxing)
 .debug_str     0x00000000000032ea      0x2e5 ../Autonomous_Car_OS_bsp//libucosii_bsp.a(os_dbg.o)
                                        0x8b9 (size before relaxing)
 .debug_str     0x00000000000035cf      0x136 ../Autonomous_Car_OS_bsp//libucosii_bsp.a(os_flag.o)
                                        0x5e6 (size before relaxing)
 .debug_str     0x0000000000003705       0xcf ../Autonomous_Car_OS_bsp//libucosii_bsp.a(os_mem.o)
                                        0x2ef (size before relaxing)
 .debug_str     0x00000000000037d4       0xc0 ../Autonomous_Car_OS_bsp//libucosii_bsp.a(os_q.o)
                                        0x569 (size before relaxing)
 .debug_str     0x0000000000003894       0x77 ../Autonomous_Car_OS_bsp//libucosii_bsp.a(os_sem.o)
                                        0x4f2 (size before relaxing)
 .debug_str     0x000000000000390b      0x118 ../Autonomous_Car_OS_bsp//libucosii_bsp.a(os_task.o)
                                        0x5f5 (size before relaxing)
 .debug_str     0x0000000000003a23       0x6d ../Autonomous_Car_OS_bsp//libucosii_bsp.a(os_time.o)
                                        0x495 (size before relaxing)
 .debug_str     0x0000000000003a90      0x3cc ../Autonomous_Car_OS_bsp//libucosii_bsp.a(alt_sys_init.o)
                                        0x6fa (size before relaxing)
 .debug_str     0x0000000000003e5c      0x219 ../Autonomous_Car_OS_bsp//libucosii_bsp.a(altera_avalon_epcs_flash_controller.o)
                                        0x54f (size before relaxing)
 .debug_str     0x0000000000004075       0xac ../Autonomous_Car_OS_bsp//libucosii_bsp.a(altera_avalon_jtag_uart_fd.o)
                                        0x488 (size before relaxing)
 .debug_str     0x0000000000004121       0xf6 ../Autonomous_Car_OS_bsp//libucosii_bsp.a(altera_avalon_jtag_uart_init.o)
                                        0x44f (size before relaxing)
 .debug_str     0x0000000000004217       0x4a ../Autonomous_Car_OS_bsp//libucosii_bsp.a(altera_avalon_jtag_uart_ioctl.o)
                                        0x377 (size before relaxing)
 .debug_str     0x0000000000004261       0x63 ../Autonomous_Car_OS_bsp//libucosii_bsp.a(altera_avalon_jtag_uart_read.o)
                                        0x3ea (size before relaxing)
 .debug_str     0x00000000000042c4       0x4a ../Autonomous_Car_OS_bsp//libucosii_bsp.a(altera_avalon_jtag_uart_write.o)
                                        0x3eb (size before relaxing)
 .debug_str     0x000000000000430e       0x66 ../Autonomous_Car_OS_bsp//libucosii_bsp.a(altera_avalon_timer_sc.o)
                                        0x23f (size before relaxing)
 .debug_str     0x0000000000004374       0x77 ../Autonomous_Car_OS_bsp//libucosii_bsp.a(altera_avalon_uart_fd.o)
                                        0x3f4 (size before relaxing)
 .debug_str     0x00000000000043eb       0xa0 ../Autonomous_Car_OS_bsp//libucosii_bsp.a(altera_avalon_uart_init.o)
                                        0x3e9 (size before relaxing)
 .debug_str     0x000000000000448b       0x4f ../Autonomous_Car_OS_bsp//libucosii_bsp.a(altera_avalon_uart_read.o)
                                        0x3bd (size before relaxing)
 .debug_str     0x00000000000044da       0x49 ../Autonomous_Car_OS_bsp//libucosii_bsp.a(altera_avalon_uart_write.o)
                                        0x3b1 (size before relaxing)
 .debug_str     0x0000000000004523      0x16a ../Autonomous_Car_OS_bsp//libucosii_bsp.a(epcs_commands.o)
                                        0x2d3 (size before relaxing)
 .debug_str     0x000000000000468d       0x5f ../Autonomous_Car_OS_bsp//libucosii_bsp.a(alt_alarm_start.o)
                                        0x272 (size before relaxing)
 .debug_str     0x00000000000046ec       0x34 ../Autonomous_Car_OS_bsp//libucosii_bsp.a(alt_dev_llist_insert.o)
                                        0x1c0 (size before relaxing)
 .debug_str     0x0000000000004720       0x48 ../Autonomous_Car_OS_bsp//libucosii_bsp.a(alt_do_ctors.o)
                                         0xd0 (size before relaxing)
 .debug_str     0x0000000000004768       0x4c ../Autonomous_Car_OS_bsp//libucosii_bsp.a(alt_do_dtors.o)
                                         0xcf (size before relaxing)
 .debug_str     0x00000000000047b4       0x3f ../Autonomous_Car_OS_bsp//libucosii_bsp.a(alt_flash_dev.o)
                                        0x327 (size before relaxing)
 .debug_str     0x00000000000047f3       0x56 ../Autonomous_Car_OS_bsp//libucosii_bsp.a(alt_io_redirect.o)
                                        0x33a (size before relaxing)
 .debug_str     0x0000000000004849       0x29 ../Autonomous_Car_OS_bsp//libucosii_bsp.a(alt_open.o)
                                        0x267 (size before relaxing)
 .debug_str     0x0000000000004872       0x4a ../Autonomous_Car_OS_bsp//libucosii_bsp.a(alt_tick.o)
                                        0x253 (size before relaxing)
 .debug_str     0x00000000000048bc       0x3b ../Autonomous_Car_OS_bsp//libucosii_bsp.a(altera_nios2_qsys_irq.o)
                                        0x150 (size before relaxing)
 .debug_str     0x00000000000048f7       0xd5 ../Autonomous_Car_OS_bsp//libucosii_bsp.a(os_cpu_c.o)
                                        0x831 (size before relaxing)
 .debug_str     0x00000000000049cc       0xa5 ../Autonomous_Car_OS_bsp//libucosii_bsp.a(altera_avalon_spi.o)
                                        0x1d4 (size before relaxing)
 .debug_str     0x0000000000004a71       0x24 ../Autonomous_Car_OS_bsp//libucosii_bsp.a(alt_find_dev.o)
                                        0x210 (size before relaxing)
 .debug_str     0x0000000000004a95       0x26 ../Autonomous_Car_OS_bsp//libucosii_bsp.a(alt_find_file.o)
                                        0x21e (size before relaxing)
 .debug_str     0x0000000000004abb       0x30 ../Autonomous_Car_OS_bsp//libucosii_bsp.a(alt_get_fd.o)
                                        0x2bc (size before relaxing)
 .debug_str     0x0000000000004aeb       0x81 /media/christoph/8A841458841448D9/space/altera_lite/15.1/nios2eds/bin/gnu/H-x86_64-pc-linux-gnu/bin/../lib/gcc/nios2-elf/4.9.2/../../../../../H-x86_64-pc-linux-gnu/nios2-elf/lib/mno-hw-mul/libc.a(lib_a-atexit.o)
                                        0x214 (size before relaxing)
 .debug_str     0x0000000000004b6c       0x4c /media/christoph/8A841458841448D9/space/altera_lite/15.1/nios2eds/bin/gnu/H-x86_64-pc-linux-gnu/bin/../lib/gcc/nios2-elf/4.9.2/../../../../../H-x86_64-pc-linux-gnu/nios2-elf/lib/mno-hw-mul/libc.a(lib_a-exit.o)
                                        0x5b1 (size before relaxing)
 .debug_str     0x0000000000004bb8       0x3d /media/christoph/8A841458841448D9/space/altera_lite/15.1/nios2eds/bin/gnu/H-x86_64-pc-linux-gnu/bin/../lib/gcc/nios2-elf/4.9.2/../../../../../H-x86_64-pc-linux-gnu/nios2-elf/lib/mno-hw-mul/libc.a(lib_a-memcmp.o)
                                        0x1d7 (size before relaxing)
 .debug_str     0x0000000000004bf5       0x3f /media/christoph/8A841458841448D9/space/altera_lite/15.1/nios2eds/bin/gnu/H-x86_64-pc-linux-gnu/bin/../lib/gcc/nios2-elf/4.9.2/../../../../../H-x86_64-pc-linux-gnu/nios2-elf/lib/mno-hw-mul/libc.a(lib_a-__atexit.o)
                                        0x5f0 (size before relaxing)
 .debug_str     0x0000000000004c34       0x60 /media/christoph/8A841458841448D9/space/altera_lite/15.1/nios2eds/bin/gnu/H-x86_64-pc-linux-gnu/bin/../lib/gcc/nios2-elf/4.9.2/../../../../../H-x86_64-pc-linux-gnu/nios2-elf/lib/mno-hw-mul/libc.a(lib_a-__call_atexit.o)
                                        0x5d5 (size before relaxing)
 .debug_str     0x0000000000004c94       0x2a ../Autonomous_Car_OS_bsp//libucosii_bsp.a(alt_exit.o)
                                        0x187 (size before relaxing)

.debug_loc      0x0000000000000000    0x16c5c
 *(.debug_loc)
 .debug_loc     0x0000000000000000       0x28 /media/christoph/8A841458841448D9/space/altera_lite/15.1/nios2eds/bin/gnu/H-x86_64-pc-linux-gnu/bin/../lib/gcc/nios2-elf/4.9.2/mno-hw-mul/libgcc.a(_fixunsdfsi.o)
 .debug_loc     0x0000000000000028       0x93 /media/christoph/8A841458841448D9/space/altera_lite/15.1/nios2eds/bin/gnu/H-x86_64-pc-linux-gnu/bin/../lib/gcc/nios2-elf/4.9.2/mno-hw-mul/libgcc.a(lib2-mul.o)
 .debug_loc     0x00000000000000bb     0x1dbd /media/christoph/8A841458841448D9/space/altera_lite/15.1/nios2eds/bin/gnu/H-x86_64-pc-linux-gnu/bin/../lib/gcc/nios2-elf/4.9.2/mno-hw-mul/libgcc.a(divdf3.o)
 .debug_loc     0x0000000000001e78      0x109 /media/christoph/8A841458841448D9/space/altera_lite/15.1/nios2eds/bin/gnu/H-x86_64-pc-linux-gnu/bin/../lib/gcc/nios2-elf/4.9.2/mno-hw-mul/libgcc.a(gedf2.o)
 .debug_loc     0x0000000000001f81       0xfc /media/christoph/8A841458841448D9/space/altera_lite/15.1/nios2eds/bin/gnu/H-x86_64-pc-linux-gnu/bin/../lib/gcc/nios2-elf/4.9.2/mno-hw-mul/libgcc.a(ledf2.o)
 .debug_loc     0x000000000000207d     0x11a5 /media/christoph/8A841458841448D9/space/altera_lite/15.1/nios2eds/bin/gnu/H-x86_64-pc-linux-gnu/bin/../lib/gcc/nios2-elf/4.9.2/mno-hw-mul/libgcc.a(muldf3.o)
 .debug_loc     0x0000000000003222     0x1660 /media/christoph/8A841458841448D9/space/altera_lite/15.1/nios2eds/bin/gnu/H-x86_64-pc-linux-gnu/bin/../lib/gcc/nios2-elf/4.9.2/mno-hw-mul/libgcc.a(subdf3.o)
 .debug_loc     0x0000000000004882      0x136 /media/christoph/8A841458841448D9/space/altera_lite/15.1/nios2eds/bin/gnu/H-x86_64-pc-linux-gnu/bin/../lib/gcc/nios2-elf/4.9.2/mno-hw-mul/libgcc.a(fixdfsi.o)
 .debug_loc     0x00000000000049b8      0x17f /media/christoph/8A841458841448D9/space/altera_lite/15.1/nios2eds/bin/gnu/H-x86_64-pc-linux-gnu/bin/../lib/gcc/nios2-elf/4.9.2/mno-hw-mul/libgcc.a(floatsidf.o)
 .debug_loc     0x0000000000004b37       0x2c /media/christoph/8A841458841448D9/space/altera_lite/15.1/nios2eds/bin/gnu/H-x86_64-pc-linux-gnu/bin/../lib/gcc/nios2-elf/4.9.2/mno-hw-mul/libgcc.a(_clzsi2.o)
 .debug_loc     0x0000000000004b63      0x273 /media/christoph/8A841458841448D9/space/altera_lite/15.1/nios2eds/bin/gnu/H-x86_64-pc-linux-gnu/bin/../lib/gcc/nios2-elf/4.9.2/mno-hw-mul/libgcc.a(lib2-divmod.o)
 .debug_loc     0x0000000000004dd6       0xd3 /media/christoph/8A841458841448D9/space/altera_lite/15.1/nios2eds/bin/gnu/H-x86_64-pc-linux-gnu/bin/../lib/gcc/nios2-elf/4.9.2/../../../../../H-x86_64-pc-linux-gnu/nios2-elf/lib/mno-hw-mul/libc.a(lib_a-printf.o)
 .debug_loc     0x0000000000004ea9       0x9c /media/christoph/8A841458841448D9/space/altera_lite/15.1/nios2eds/bin/gnu/H-x86_64-pc-linux-gnu/bin/../lib/gcc/nios2-elf/4.9.2/../../../../../H-x86_64-pc-linux-gnu/nios2-elf/lib/mno-hw-mul/libc.a(lib_a-strncmp.o)
 .debug_loc     0x0000000000004f45      0x1fb /media/christoph/8A841458841448D9/space/altera_lite/15.1/nios2eds/bin/gnu/H-x86_64-pc-linux-gnu/bin/../lib/gcc/nios2-elf/4.9.2/../../../../../H-x86_64-pc-linux-gnu/nios2-elf/lib/mno-hw-mul/libc.a(lib_a-strncpy.o)
 .debug_loc     0x0000000000005140     0x2b43 /media/christoph/8A841458841448D9/space/altera_lite/15.1/nios2eds/bin/gnu/H-x86_64-pc-linux-gnu/bin/../lib/gcc/nios2-elf/4.9.2/../../../../../H-x86_64-pc-linux-gnu/nios2-elf/lib/mno-hw-mul/libc.a(lib_a-vfprintf.o)
 .debug_loc     0x0000000000007c83       0xa2 /media/christoph/8A841458841448D9/space/altera_lite/15.1/nios2eds/bin/gnu/H-x86_64-pc-linux-gnu/bin/../lib/gcc/nios2-elf/4.9.2/../../../../../H-x86_64-pc-linux-gnu/nios2-elf/lib/mno-hw-mul/libc.a(lib_a-wsetup.o)
 .debug_loc     0x0000000000007d25     0x295d /media/christoph/8A841458841448D9/space/altera_lite/15.1/nios2eds/bin/gnu/H-x86_64-pc-linux-gnu/bin/../lib/gcc/nios2-elf/4.9.2/../../../../../H-x86_64-pc-linux-gnu/nios2-elf/lib/mno-hw-mul/libc.a(lib_a-dtoa.o)
 .debug_loc     0x000000000000a682      0x36d /media/christoph/8A841458841448D9/space/altera_lite/15.1/nios2eds/bin/gnu/H-x86_64-pc-linux-gnu/bin/../lib/gcc/nios2-elf/4.9.2/../../../../../H-x86_64-pc-linux-gnu/nios2-elf/lib/mno-hw-mul/libc.a(lib_a-fflush.o)
 .debug_loc     0x000000000000a9ef      0x213 /media/christoph/8A841458841448D9/space/altera_lite/15.1/nios2eds/bin/gnu/H-x86_64-pc-linux-gnu/bin/../lib/gcc/nios2-elf/4.9.2/../../../../../H-x86_64-pc-linux-gnu/nios2-elf/lib/mno-hw-mul/libc.a(lib_a-findfp.o)
 .debug_loc     0x000000000000ac02      0x4cf /media/christoph/8A841458841448D9/space/altera_lite/15.1/nios2eds/bin/gnu/H-x86_64-pc-linux-gnu/bin/../lib/gcc/nios2-elf/4.9.2/../../../../../H-x86_64-pc-linux-gnu/nios2-elf/lib/mno-hw-mul/libc.a(lib_a-freer.o)
 .debug_loc     0x000000000000b0d1      0x25b /media/christoph/8A841458841448D9/space/altera_lite/15.1/nios2eds/bin/gnu/H-x86_64-pc-linux-gnu/bin/../lib/gcc/nios2-elf/4.9.2/../../../../../H-x86_64-pc-linux-gnu/nios2-elf/lib/mno-hw-mul/libc.a(lib_a-fwalk.o)
 .debug_loc     0x000000000000b32c      0x11b /media/christoph/8A841458841448D9/space/altera_lite/15.1/nios2eds/bin/gnu/H-x86_64-pc-linux-gnu/bin/../lib/gcc/nios2-elf/4.9.2/../../../../../H-x86_64-pc-linux-gnu/nios2-elf/lib/mno-hw-mul/libc.a(lib_a-locale.o)
 .debug_loc     0x000000000000b447      0x132 /media/christoph/8A841458841448D9/space/altera_lite/15.1/nios2eds/bin/gnu/H-x86_64-pc-linux-gnu/bin/../lib/gcc/nios2-elf/4.9.2/../../../../../H-x86_64-pc-linux-gnu/nios2-elf/lib/mno-hw-mul/libc.a(lib_a-makebuf.o)
 .debug_loc     0x000000000000b579      0xbad /media/christoph/8A841458841448D9/space/altera_lite/15.1/nios2eds/bin/gnu/H-x86_64-pc-linux-gnu/bin/../lib/gcc/nios2-elf/4.9.2/../../../../../H-x86_64-pc-linux-gnu/nios2-elf/lib/mno-hw-mul/libc.a(lib_a-mallocr.o)
 .debug_loc     0x000000000000c126      0x19f /media/christoph/8A841458841448D9/space/altera_lite/15.1/nios2eds/bin/gnu/H-x86_64-pc-linux-gnu/bin/../lib/gcc/nios2-elf/4.9.2/../../../../../H-x86_64-pc-linux-gnu/nios2-elf/lib/mno-hw-mul/libc.a(lib_a-memchr.o)
 .debug_loc     0x000000000000c2c5      0x2a2 /media/christoph/8A841458841448D9/space/altera_lite/15.1/nios2eds/bin/gnu/H-x86_64-pc-linux-gnu/bin/../lib/gcc/nios2-elf/4.9.2/../../../../../H-x86_64-pc-linux-gnu/nios2-elf/lib/mno-hw-mul/libc.a(lib_a-memcpy.o)
 .debug_loc     0x000000000000c567      0x190 /media/christoph/8A841458841448D9/space/altera_lite/15.1/nios2eds/bin/gnu/H-x86_64-pc-linux-gnu/bin/../lib/gcc/nios2-elf/4.9.2/../../../../../H-x86_64-pc-linux-gnu/nios2-elf/lib/mno-hw-mul/libc.a(lib_a-memset.o)
 .debug_loc     0x000000000000c6f7     0x1b29 /media/christoph/8A841458841448D9/space/altera_lite/15.1/nios2eds/bin/gnu/H-x86_64-pc-linux-gnu/bin/../lib/gcc/nios2-elf/4.9.2/../../../../../H-x86_64-pc-linux-gnu/nios2-elf/lib/mno-hw-mul/libc.a(lib_a-mprec.o)
 .debug_loc     0x000000000000e220       0x2f /media/christoph/8A841458841448D9/space/altera_lite/15.1/nios2eds/bin/gnu/H-x86_64-pc-linux-gnu/bin/../lib/gcc/nios2-elf/4.9.2/../../../../../H-x86_64-pc-linux-gnu/nios2-elf/lib/mno-hw-mul/libc.a(lib_a-s_fpclassify.o)
 .debug_loc     0x000000000000e24f       0x58 /media/christoph/8A841458841448D9/space/altera_lite/15.1/nios2eds/bin/gnu/H-x86_64-pc-linux-gnu/bin/../lib/gcc/nios2-elf/4.9.2/../../../../../H-x86_64-pc-linux-gnu/nios2-elf/lib/mno-hw-mul/libc.a(lib_a-sbrkr.o)
 .debug_loc     0x000000000000e2a7      0x319 /media/christoph/8A841458841448D9/space/altera_lite/15.1/nios2eds/bin/gnu/H-x86_64-pc-linux-gnu/bin/../lib/gcc/nios2-elf/4.9.2/../../../../../H-x86_64-pc-linux-gnu/nios2-elf/lib/mno-hw-mul/libc.a(lib_a-stdio.o)
 .debug_loc     0x000000000000e5c0       0xb0 /media/christoph/8A841458841448D9/space/altera_lite/15.1/nios2eds/bin/gnu/H-x86_64-pc-linux-gnu/bin/../lib/gcc/nios2-elf/4.9.2/../../../../../H-x86_64-pc-linux-gnu/nios2-elf/lib/mno-hw-mul/libc.a(lib_a-strcmp.o)
 .debug_loc     0x000000000000e670       0x47 /media/christoph/8A841458841448D9/space/altera_lite/15.1/nios2eds/bin/gnu/H-x86_64-pc-linux-gnu/bin/../lib/gcc/nios2-elf/4.9.2/../../../../../H-x86_64-pc-linux-gnu/nios2-elf/lib/mno-hw-mul/libc.a(lib_a-strlen.o)
 .debug_loc     0x000000000000e6b7     0x1fd1 /media/christoph/8A841458841448D9/space/altera_lite/15.1/nios2eds/bin/gnu/H-x86_64-pc-linux-gnu/bin/../lib/gcc/nios2-elf/4.9.2/../../../../../H-x86_64-pc-linux-gnu/nios2-elf/lib/mno-hw-mul/libc.a(lib_a-vfiprintf.o)
 .debug_loc     0x0000000000010688       0xb0 /media/christoph/8A841458841448D9/space/altera_lite/15.1/nios2eds/bin/gnu/H-x86_64-pc-linux-gnu/bin/../lib/gcc/nios2-elf/4.9.2/../../../../../H-x86_64-pc-linux-gnu/nios2-elf/lib/mno-hw-mul/libc.a(lib_a-writer.o)
 .debug_loc     0x0000000000010738       0x58 /media/christoph/8A841458841448D9/space/altera_lite/15.1/nios2eds/bin/gnu/H-x86_64-pc-linux-gnu/bin/../lib/gcc/nios2-elf/4.9.2/../../../../../H-x86_64-pc-linux-gnu/nios2-elf/lib/mno-hw-mul/libc.a(closer.o)
 .debug_loc     0x0000000000010790      0x266 /media/christoph/8A841458841448D9/space/altera_lite/15.1/nios2eds/bin/gnu/H-x86_64-pc-linux-gnu/bin/../lib/gcc/nios2-elf/4.9.2/../../../../../H-x86_64-pc-linux-gnu/nios2-elf/lib/mno-hw-mul/libc.a(lib_a-callocr.o)
 .debug_loc     0x00000000000109f6      0x199 /media/christoph/8A841458841448D9/space/altera_lite/15.1/nios2eds/bin/gnu/H-x86_64-pc-linux-gnu/bin/../lib/gcc/nios2-elf/4.9.2/../../../../../H-x86_64-pc-linux-gnu/nios2-elf/lib/mno-hw-mul/libc.a(lib_a-fclose.o)
 .debug_loc     0x0000000000010b8f      0x241 /media/christoph/8A841458841448D9/space/altera_lite/15.1/nios2eds/bin/gnu/H-x86_64-pc-linux-gnu/bin/../lib/gcc/nios2-elf/4.9.2/../../../../../H-x86_64-pc-linux-gnu/nios2-elf/lib/mno-hw-mul/libc.a(lib_a-fputwc.o)
 .debug_loc     0x0000000000010dd0       0x84 /media/christoph/8A841458841448D9/space/altera_lite/15.1/nios2eds/bin/gnu/H-x86_64-pc-linux-gnu/bin/../lib/gcc/nios2-elf/4.9.2/../../../../../H-x86_64-pc-linux-gnu/nios2-elf/lib/mno-hw-mul/libc.a(lib_a-fstatr.o)
 .debug_loc     0x0000000000010e54      0x5d6 /media/christoph/8A841458841448D9/space/altera_lite/15.1/nios2eds/bin/gnu/H-x86_64-pc-linux-gnu/bin/../lib/gcc/nios2-elf/4.9.2/../../../../../H-x86_64-pc-linux-gnu/nios2-elf/lib/mno-hw-mul/libc.a(lib_a-fvwrite.o)
 .debug_loc     0x000000000001142a       0x58 /media/christoph/8A841458841448D9/space/altera_lite/15.1/nios2eds/bin/gnu/H-x86_64-pc-linux-gnu/bin/../lib/gcc/nios2-elf/4.9.2/../../../../../H-x86_64-pc-linux-gnu/nios2-elf/lib/mno-hw-mul/libc.a(lib_a-isattyr.o)
 .debug_loc     0x0000000000011482       0xb0 /media/christoph/8A841458841448D9/space/altera_lite/15.1/nios2eds/bin/gnu/H-x86_64-pc-linux-gnu/bin/../lib/gcc/nios2-elf/4.9.2/../../../../../H-x86_64-pc-linux-gnu/nios2-elf/lib/mno-hw-mul/libc.a(lib_a-lseekr.o)
 .debug_loc     0x0000000000011532      0x34f /media/christoph/8A841458841448D9/space/altera_lite/15.1/nios2eds/bin/gnu/H-x86_64-pc-linux-gnu/bin/../lib/gcc/nios2-elf/4.9.2/../../../../../H-x86_64-pc-linux-gnu/nios2-elf/lib/mno-hw-mul/libc.a(lib_a-memmove.o)
 .debug_loc     0x0000000000011881       0xb0 /media/christoph/8A841458841448D9/space/altera_lite/15.1/nios2eds/bin/gnu/H-x86_64-pc-linux-gnu/bin/../lib/gcc/nios2-elf/4.9.2/../../../../../H-x86_64-pc-linux-gnu/nios2-elf/lib/mno-hw-mul/libc.a(lib_a-readr.o)
 .debug_loc     0x0000000000011931      0xd88 /media/christoph/8A841458841448D9/space/altera_lite/15.1/nios2eds/bin/gnu/H-x86_64-pc-linux-gnu/bin/../lib/gcc/nios2-elf/4.9.2/../../../../../H-x86_64-pc-linux-gnu/nios2-elf/lib/mno-hw-mul/libc.a(lib_a-reallocr.o)
 .debug_loc     0x00000000000126b9      0x1b2 /media/christoph/8A841458841448D9/space/altera_lite/15.1/nios2eds/bin/gnu/H-x86_64-pc-linux-gnu/bin/../lib/gcc/nios2-elf/4.9.2/../../../../../H-x86_64-pc-linux-gnu/nios2-elf/lib/mno-hw-mul/libc.a(lib_a-wbuf.o)
 .debug_loc     0x000000000001286b      0x24e /media/christoph/8A841458841448D9/space/altera_lite/15.1/nios2eds/bin/gnu/H-x86_64-pc-linux-gnu/bin/../lib/gcc/nios2-elf/4.9.2/../../../../../H-x86_64-pc-linux-gnu/nios2-elf/lib/mno-hw-mul/libc.a(lib_a-wcrtomb.o)
 .debug_loc     0x0000000000012ab9       0x8f /media/christoph/8A841458841448D9/space/altera_lite/15.1/nios2eds/bin/gnu/H-x86_64-pc-linux-gnu/bin/../lib/gcc/nios2-elf/4.9.2/../../../../../H-x86_64-pc-linux-gnu/nios2-elf/lib/mno-hw-mul/libc.a(lib_a-wctomb_r.o)
 .debug_loc     0x0000000000012b48     0x11e6 /media/christoph/8A841458841448D9/space/altera_lite/15.1/nios2eds/bin/gnu/H-x86_64-pc-linux-gnu/bin/../lib/gcc/nios2-elf/4.9.2/mno-hw-mul/libgcc.a(_udivdi3.o)
 .debug_loc     0x0000000000013d2e     0x11a1 /media/christoph/8A841458841448D9/space/altera_lite/15.1/nios2eds/bin/gnu/H-x86_64-pc-linux-gnu/bin/../lib/gcc/nios2-elf/4.9.2/mno-hw-mul/libgcc.a(_umoddi3.o)
 .debug_loc     0x0000000000014ecf     0x16ec /media/christoph/8A841458841448D9/space/altera_lite/15.1/nios2eds/bin/gnu/H-x86_64-pc-linux-gnu/bin/../lib/gcc/nios2-elf/4.9.2/mno-hw-mul/libgcc.a(adddf3.o)
 .debug_loc     0x00000000000165bb       0x52 /media/christoph/8A841458841448D9/space/altera_lite/15.1/nios2eds/bin/gnu/H-x86_64-pc-linux-gnu/bin/../lib/gcc/nios2-elf/4.9.2/mno-hw-mul/libgcc.a(eqdf2.o)
 .debug_loc     0x000000000001660d      0x1b4 /media/christoph/8A841458841448D9/space/altera_lite/15.1/nios2eds/bin/gnu/H-x86_64-pc-linux-gnu/bin/../lib/gcc/nios2-elf/4.9.2/mno-hw-mul/libgcc.a(floatunsidf.o)
 .debug_loc     0x00000000000167c1       0x2c /media/christoph/8A841458841448D9/space/altera_lite/15.1/nios2eds/bin/gnu/H-x86_64-pc-linux-gnu/bin/../lib/gcc/nios2-elf/4.9.2/../../../../../H-x86_64-pc-linux-gnu/nios2-elf/lib/mno-hw-mul/libc.a(lib_a-atexit.o)
 .debug_loc     0x00000000000167ed       0x1e /media/christoph/8A841458841448D9/space/altera_lite/15.1/nios2eds/bin/gnu/H-x86_64-pc-linux-gnu/bin/../lib/gcc/nios2-elf/4.9.2/../../../../../H-x86_64-pc-linux-gnu/nios2-elf/lib/mno-hw-mul/libc.a(lib_a-exit.o)
 .debug_loc     0x000000000001680b      0x126 /media/christoph/8A841458841448D9/space/altera_lite/15.1/nios2eds/bin/gnu/H-x86_64-pc-linux-gnu/bin/../lib/gcc/nios2-elf/4.9.2/../../../../../H-x86_64-pc-linux-gnu/nios2-elf/lib/mno-hw-mul/libc.a(lib_a-memcmp.o)
 .debug_loc     0x0000000000016931      0x185 /media/christoph/8A841458841448D9/space/altera_lite/15.1/nios2eds/bin/gnu/H-x86_64-pc-linux-gnu/bin/../lib/gcc/nios2-elf/4.9.2/../../../../../H-x86_64-pc-linux-gnu/nios2-elf/lib/mno-hw-mul/libc.a(lib_a-__atexit.o)
 .debug_loc     0x0000000000016ab6      0x1a6 /media/christoph/8A841458841448D9/space/altera_lite/15.1/nios2eds/bin/gnu/H-x86_64-pc-linux-gnu/bin/../lib/gcc/nios2-elf/4.9.2/../../../../../H-x86_64-pc-linux-gnu/nios2-elf/lib/mno-hw-mul/libc.a(lib_a-__call_atexit.o)

.debug_macinfo
 *(.debug_macinfo)

.debug_weaknames
 *(.debug_weaknames)

.debug_funcnames
 *(.debug_funcnames)

.debug_typenames
 *(.debug_typenames)

.debug_varnames
 *(.debug_varnames)

.debug_alt_sim_info
                0x0000000000000000       0x10
 *(.debug_alt_sim_info)
 .debug_alt_sim_info
                0x0000000000000000       0x10 ../Autonomous_Car_OS_bsp//obj/HAL/src/crt0.o
                0x0000000002000000                __alt_data_end = 0x2000000
                0x0000000002000000                PROVIDE (__alt_stack_pointer, __alt_data_end)
                0x00000000000263b4                PROVIDE (__alt_stack_limit, __alt_stack_base)
                0x00000000000263b4                PROVIDE (__alt_heap_start, end)
                0x0000000002000000                PROVIDE (__alt_heap_limit, 0x2000000)
OUTPUT(Autonomous_Car_OS.elf elf32-littlenios2)

.debug_ranges   0x0000000000000000     0x17d8
 .debug_ranges  0x0000000000000000      0x178 /media/christoph/8A841458841448D9/space/altera_lite/15.1/nios2eds/bin/gnu/H-x86_64-pc-linux-gnu/bin/../lib/gcc/nios2-elf/4.9.2/mno-hw-mul/libgcc.a(divdf3.o)
 .debug_ranges  0x0000000000000178       0x90 /media/christoph/8A841458841448D9/space/altera_lite/15.1/nios2eds/bin/gnu/H-x86_64-pc-linux-gnu/bin/../lib/gcc/nios2-elf/4.9.2/mno-hw-mul/libgcc.a(gedf2.o)
 .debug_ranges  0x0000000000000208       0x88 /media/christoph/8A841458841448D9/space/altera_lite/15.1/nios2eds/bin/gnu/H-x86_64-pc-linux-gnu/bin/../lib/gcc/nios2-elf/4.9.2/mno-hw-mul/libgcc.a(ledf2.o)
 .debug_ranges  0x0000000000000290      0x200 /media/christoph/8A841458841448D9/space/altera_lite/15.1/nios2eds/bin/gnu/H-x86_64-pc-linux-gnu/bin/../lib/gcc/nios2-elf/4.9.2/mno-hw-mul/libgcc.a(muldf3.o)
 .debug_ranges  0x0000000000000490      0x258 /media/christoph/8A841458841448D9/space/altera_lite/15.1/nios2eds/bin/gnu/H-x86_64-pc-linux-gnu/bin/../lib/gcc/nios2-elf/4.9.2/mno-hw-mul/libgcc.a(subdf3.o)
 .debug_ranges  0x00000000000006e8       0x38 /media/christoph/8A841458841448D9/space/altera_lite/15.1/nios2eds/bin/gnu/H-x86_64-pc-linux-gnu/bin/../lib/gcc/nios2-elf/4.9.2/mno-hw-mul/libgcc.a(fixdfsi.o)
 .debug_ranges  0x0000000000000720       0x30 /media/christoph/8A841458841448D9/space/altera_lite/15.1/nios2eds/bin/gnu/H-x86_64-pc-linux-gnu/bin/../lib/gcc/nios2-elf/4.9.2/mno-hw-mul/libgcc.a(floatsidf.o)
 .debug_ranges  0x0000000000000750       0x18 /media/christoph/8A841458841448D9/space/altera_lite/15.1/nios2eds/bin/gnu/H-x86_64-pc-linux-gnu/bin/../lib/gcc/nios2-elf/4.9.2/mno-hw-mul/libgcc.a(_clzsi2.o)
 .debug_ranges  0x0000000000000768       0x18 /media/christoph/8A841458841448D9/space/altera_lite/15.1/nios2eds/bin/gnu/H-x86_64-pc-linux-gnu/bin/../lib/gcc/nios2-elf/4.9.2/../../../../../H-x86_64-pc-linux-gnu/nios2-elf/lib/mno-hw-mul/libc.a(lib_a-printf.o)
 .debug_ranges  0x0000000000000780       0x10 /media/christoph/8A841458841448D9/space/altera_lite/15.1/nios2eds/bin/gnu/H-x86_64-pc-linux-gnu/bin/../lib/gcc/nios2-elf/4.9.2/../../../../../H-x86_64-pc-linux-gnu/nios2-elf/lib/mno-hw-mul/libc.a(lib_a-strncmp.o)
 .debug_ranges  0x0000000000000790       0x10 /media/christoph/8A841458841448D9/space/altera_lite/15.1/nios2eds/bin/gnu/H-x86_64-pc-linux-gnu/bin/../lib/gcc/nios2-elf/4.9.2/../../../../../H-x86_64-pc-linux-gnu/nios2-elf/lib/mno-hw-mul/libc.a(lib_a-strncpy.o)
 .debug_ranges  0x00000000000007a0      0x150 /media/christoph/8A841458841448D9/space/altera_lite/15.1/nios2eds/bin/gnu/H-x86_64-pc-linux-gnu/bin/../lib/gcc/nios2-elf/4.9.2/../../../../../H-x86_64-pc-linux-gnu/nios2-elf/lib/mno-hw-mul/libc.a(lib_a-vfprintf.o)
 .debug_ranges  0x00000000000008f0       0x40 /media/christoph/8A841458841448D9/space/altera_lite/15.1/nios2eds/bin/gnu/H-x86_64-pc-linux-gnu/bin/../lib/gcc/nios2-elf/4.9.2/../../../../../H-x86_64-pc-linux-gnu/nios2-elf/lib/mno-hw-mul/libc.a(lib_a-wsetup.o)
 .debug_ranges  0x0000000000000930       0x18 /media/christoph/8A841458841448D9/space/altera_lite/15.1/nios2eds/bin/gnu/H-x86_64-pc-linux-gnu/bin/../lib/gcc/nios2-elf/4.9.2/../../../../../H-x86_64-pc-linux-gnu/nios2-elf/lib/mno-hw-mul/libc.a(lib_a-dtoa.o)
 .debug_ranges  0x0000000000000948       0x58 /media/christoph/8A841458841448D9/space/altera_lite/15.1/nios2eds/bin/gnu/H-x86_64-pc-linux-gnu/bin/../lib/gcc/nios2-elf/4.9.2/../../../../../H-x86_64-pc-linux-gnu/nios2-elf/lib/mno-hw-mul/libc.a(lib_a-fflush.o)
 .debug_ranges  0x00000000000009a0       0xe8 /media/christoph/8A841458841448D9/space/altera_lite/15.1/nios2eds/bin/gnu/H-x86_64-pc-linux-gnu/bin/../lib/gcc/nios2-elf/4.9.2/../../../../../H-x86_64-pc-linux-gnu/nios2-elf/lib/mno-hw-mul/libc.a(lib_a-findfp.o)
 .debug_ranges  0x0000000000000a88       0x18 /media/christoph/8A841458841448D9/space/altera_lite/15.1/nios2eds/bin/gnu/H-x86_64-pc-linux-gnu/bin/../lib/gcc/nios2-elf/4.9.2/../../../../../H-x86_64-pc-linux-gnu/nios2-elf/lib/mno-hw-mul/libc.a(lib_a-freer.o)
 .debug_ranges  0x0000000000000aa0       0x18 /media/christoph/8A841458841448D9/space/altera_lite/15.1/nios2eds/bin/gnu/H-x86_64-pc-linux-gnu/bin/../lib/gcc/nios2-elf/4.9.2/../../../../../H-x86_64-pc-linux-gnu/nios2-elf/lib/mno-hw-mul/libc.a(lib_a-fwalk.o)
 .debug_ranges  0x0000000000000ab8       0x60 /media/christoph/8A841458841448D9/space/altera_lite/15.1/nios2eds/bin/gnu/H-x86_64-pc-linux-gnu/bin/../lib/gcc/nios2-elf/4.9.2/../../../../../H-x86_64-pc-linux-gnu/nios2-elf/lib/mno-hw-mul/libc.a(lib_a-locale.o)
 .debug_ranges  0x0000000000000b18       0x10 /media/christoph/8A841458841448D9/space/altera_lite/15.1/nios2eds/bin/gnu/H-x86_64-pc-linux-gnu/bin/../lib/gcc/nios2-elf/4.9.2/../../../../../H-x86_64-pc-linux-gnu/nios2-elf/lib/mno-hw-mul/libc.a(lib_a-makebuf.o)
 .debug_ranges  0x0000000000000b28       0x48 /media/christoph/8A841458841448D9/space/altera_lite/15.1/nios2eds/bin/gnu/H-x86_64-pc-linux-gnu/bin/../lib/gcc/nios2-elf/4.9.2/../../../../../H-x86_64-pc-linux-gnu/nios2-elf/lib/mno-hw-mul/libc.a(lib_a-mallocr.o)
 .debug_ranges  0x0000000000000b70       0x10 /media/christoph/8A841458841448D9/space/altera_lite/15.1/nios2eds/bin/gnu/H-x86_64-pc-linux-gnu/bin/../lib/gcc/nios2-elf/4.9.2/../../../../../H-x86_64-pc-linux-gnu/nios2-elf/lib/mno-hw-mul/libc.a(lib_a-memchr.o)
 .debug_ranges  0x0000000000000b80       0x10 /media/christoph/8A841458841448D9/space/altera_lite/15.1/nios2eds/bin/gnu/H-x86_64-pc-linux-gnu/bin/../lib/gcc/nios2-elf/4.9.2/../../../../../H-x86_64-pc-linux-gnu/nios2-elf/lib/mno-hw-mul/libc.a(lib_a-memcpy.o)
 .debug_ranges  0x0000000000000b90       0x10 /media/christoph/8A841458841448D9/space/altera_lite/15.1/nios2eds/bin/gnu/H-x86_64-pc-linux-gnu/bin/../lib/gcc/nios2-elf/4.9.2/../../../../../H-x86_64-pc-linux-gnu/nios2-elf/lib/mno-hw-mul/libc.a(lib_a-memset.o)
 .debug_ranges  0x0000000000000ba0       0xb8 /media/christoph/8A841458841448D9/space/altera_lite/15.1/nios2eds/bin/gnu/H-x86_64-pc-linux-gnu/bin/../lib/gcc/nios2-elf/4.9.2/../../../../../H-x86_64-pc-linux-gnu/nios2-elf/lib/mno-hw-mul/libc.a(lib_a-mprec.o)
 .debug_ranges  0x0000000000000c58       0x10 /media/christoph/8A841458841448D9/space/altera_lite/15.1/nios2eds/bin/gnu/H-x86_64-pc-linux-gnu/bin/../lib/gcc/nios2-elf/4.9.2/../../../../../H-x86_64-pc-linux-gnu/nios2-elf/lib/mno-hw-mul/libc.a(lib_a-s_fpclassify.o)
 .debug_ranges  0x0000000000000c68       0x10 /media/christoph/8A841458841448D9/space/altera_lite/15.1/nios2eds/bin/gnu/H-x86_64-pc-linux-gnu/bin/../lib/gcc/nios2-elf/4.9.2/../../../../../H-x86_64-pc-linux-gnu/nios2-elf/lib/mno-hw-mul/libc.a(lib_a-sbrkr.o)
 .debug_ranges  0x0000000000000c78       0x30 /media/christoph/8A841458841448D9/space/altera_lite/15.1/nios2eds/bin/gnu/H-x86_64-pc-linux-gnu/bin/../lib/gcc/nios2-elf/4.9.2/../../../../../H-x86_64-pc-linux-gnu/nios2-elf/lib/mno-hw-mul/libc.a(lib_a-stdio.o)
 .debug_ranges  0x0000000000000ca8       0x10 /media/christoph/8A841458841448D9/space/altera_lite/15.1/nios2eds/bin/gnu/H-x86_64-pc-linux-gnu/bin/../lib/gcc/nios2-elf/4.9.2/../../../../../H-x86_64-pc-linux-gnu/nios2-elf/lib/mno-hw-mul/libc.a(lib_a-strcmp.o)
 .debug_ranges  0x0000000000000cb8       0x10 /media/christoph/8A841458841448D9/space/altera_lite/15.1/nios2eds/bin/gnu/H-x86_64-pc-linux-gnu/bin/../lib/gcc/nios2-elf/4.9.2/../../../../../H-x86_64-pc-linux-gnu/nios2-elf/lib/mno-hw-mul/libc.a(lib_a-strlen.o)
 .debug_ranges  0x0000000000000cc8      0x1d0 /media/christoph/8A841458841448D9/space/altera_lite/15.1/nios2eds/bin/gnu/H-x86_64-pc-linux-gnu/bin/../lib/gcc/nios2-elf/4.9.2/../../../../../H-x86_64-pc-linux-gnu/nios2-elf/lib/mno-hw-mul/libc.a(lib_a-vfiprintf.o)
 .debug_ranges  0x0000000000000e98       0x10 /media/christoph/8A841458841448D9/space/altera_lite/15.1/nios2eds/bin/gnu/H-x86_64-pc-linux-gnu/bin/../lib/gcc/nios2-elf/4.9.2/../../../../../H-x86_64-pc-linux-gnu/nios2-elf/lib/mno-hw-mul/libc.a(lib_a-writer.o)
 .debug_ranges  0x0000000000000ea8       0x10 /media/christoph/8A841458841448D9/space/altera_lite/15.1/nios2eds/bin/gnu/H-x86_64-pc-linux-gnu/bin/../lib/gcc/nios2-elf/4.9.2/../../../../../H-x86_64-pc-linux-gnu/nios2-elf/lib/mno-hw-mul/libc.a(closer.o)
 .debug_ranges  0x0000000000000eb8       0x58 /media/christoph/8A841458841448D9/space/altera_lite/15.1/nios2eds/bin/gnu/H-x86_64-pc-linux-gnu/bin/../lib/gcc/nios2-elf/4.9.2/../../../../../H-x86_64-pc-linux-gnu/nios2-elf/lib/mno-hw-mul/libc.a(lib_a-callocr.o)
 .debug_ranges  0x0000000000000f10       0x48 /media/christoph/8A841458841448D9/space/altera_lite/15.1/nios2eds/bin/gnu/H-x86_64-pc-linux-gnu/bin/../lib/gcc/nios2-elf/4.9.2/../../../../../H-x86_64-pc-linux-gnu/nios2-elf/lib/mno-hw-mul/libc.a(lib_a-fclose.o)
 .debug_ranges  0x0000000000000f58       0x30 /media/christoph/8A841458841448D9/space/altera_lite/15.1/nios2eds/bin/gnu/H-x86_64-pc-linux-gnu/bin/../lib/gcc/nios2-elf/4.9.2/../../../../../H-x86_64-pc-linux-gnu/nios2-elf/lib/mno-hw-mul/libc.a(lib_a-fputwc.o)
 .debug_ranges  0x0000000000000f88       0x10 /media/christoph/8A841458841448D9/space/altera_lite/15.1/nios2eds/bin/gnu/H-x86_64-pc-linux-gnu/bin/../lib/gcc/nios2-elf/4.9.2/../../../../../H-x86_64-pc-linux-gnu/nios2-elf/lib/mno-hw-mul/libc.a(lib_a-fstatr.o)
 .debug_ranges  0x0000000000000f98       0x30 /media/christoph/8A841458841448D9/space/altera_lite/15.1/nios2eds/bin/gnu/H-x86_64-pc-linux-gnu/bin/../lib/gcc/nios2-elf/4.9.2/../../../../../H-x86_64-pc-linux-gnu/nios2-elf/lib/mno-hw-mul/libc.a(lib_a-fvwrite.o)
 .debug_ranges  0x0000000000000fc8       0x10 /media/christoph/8A841458841448D9/space/altera_lite/15.1/nios2eds/bin/gnu/H-x86_64-pc-linux-gnu/bin/../lib/gcc/nios2-elf/4.9.2/../../../../../H-x86_64-pc-linux-gnu/nios2-elf/lib/mno-hw-mul/libc.a(lib_a-isattyr.o)
 .debug_ranges  0x0000000000000fd8       0x10 /media/christoph/8A841458841448D9/space/altera_lite/15.1/nios2eds/bin/gnu/H-x86_64-pc-linux-gnu/bin/../lib/gcc/nios2-elf/4.9.2/../../../../../H-x86_64-pc-linux-gnu/nios2-elf/lib/mno-hw-mul/libc.a(lib_a-lseekr.o)
 .debug_ranges  0x0000000000000fe8       0x10 /media/christoph/8A841458841448D9/space/altera_lite/15.1/nios2eds/bin/gnu/H-x86_64-pc-linux-gnu/bin/../lib/gcc/nios2-elf/4.9.2/../../../../../H-x86_64-pc-linux-gnu/nios2-elf/lib/mno-hw-mul/libc.a(lib_a-memmove.o)
 .debug_ranges  0x0000000000000ff8       0x10 /media/christoph/8A841458841448D9/space/altera_lite/15.1/nios2eds/bin/gnu/H-x86_64-pc-linux-gnu/bin/../lib/gcc/nios2-elf/4.9.2/../../../../../H-x86_64-pc-linux-gnu/nios2-elf/lib/mno-hw-mul/libc.a(lib_a-readr.o)
 .debug_ranges  0x0000000000001008      0x148 /media/christoph/8A841458841448D9/space/altera_lite/15.1/nios2eds/bin/gnu/H-x86_64-pc-linux-gnu/bin/../lib/gcc/nios2-elf/4.9.2/../../../../../H-x86_64-pc-linux-gnu/nios2-elf/lib/mno-hw-mul/libc.a(lib_a-reallocr.o)
 .debug_ranges  0x0000000000001150       0x30 /media/christoph/8A841458841448D9/space/altera_lite/15.1/nios2eds/bin/gnu/H-x86_64-pc-linux-gnu/bin/../lib/gcc/nios2-elf/4.9.2/../../../../../H-x86_64-pc-linux-gnu/nios2-elf/lib/mno-hw-mul/libc.a(lib_a-wbuf.o)
 .debug_ranges  0x0000000000001180       0x18 /media/christoph/8A841458841448D9/space/altera_lite/15.1/nios2eds/bin/gnu/H-x86_64-pc-linux-gnu/bin/../lib/gcc/nios2-elf/4.9.2/../../../../../H-x86_64-pc-linux-gnu/nios2-elf/lib/mno-hw-mul/libc.a(lib_a-wcrtomb.o)
 .debug_ranges  0x0000000000001198       0x18 /media/christoph/8A841458841448D9/space/altera_lite/15.1/nios2eds/bin/gnu/H-x86_64-pc-linux-gnu/bin/../lib/gcc/nios2-elf/4.9.2/../../../../../H-x86_64-pc-linux-gnu/nios2-elf/lib/mno-hw-mul/libc.a(lib_a-wctomb_r.o)
 .debug_ranges  0x00000000000011b0      0x170 /media/christoph/8A841458841448D9/space/altera_lite/15.1/nios2eds/bin/gnu/H-x86_64-pc-linux-gnu/bin/../lib/gcc/nios2-elf/4.9.2/mno-hw-mul/libgcc.a(_udivdi3.o)
 .debug_ranges  0x0000000000001320      0x150 /media/christoph/8A841458841448D9/space/altera_lite/15.1/nios2eds/bin/gnu/H-x86_64-pc-linux-gnu/bin/../lib/gcc/nios2-elf/4.9.2/mno-hw-mul/libgcc.a(_umoddi3.o)
 .debug_ranges  0x0000000000001470      0x238 /media/christoph/8A841458841448D9/space/altera_lite/15.1/nios2eds/bin/gnu/H-x86_64-pc-linux-gnu/bin/../lib/gcc/nios2-elf/4.9.2/mno-hw-mul/libgcc.a(adddf3.o)
 .debug_ranges  0x00000000000016a8       0x48 /media/christoph/8A841458841448D9/space/altera_lite/15.1/nios2eds/bin/gnu/H-x86_64-pc-linux-gnu/bin/../lib/gcc/nios2-elf/4.9.2/mno-hw-mul/libgcc.a(eqdf2.o)
 .debug_ranges  0x00000000000016f0       0x18 /media/christoph/8A841458841448D9/space/altera_lite/15.1/nios2eds/bin/gnu/H-x86_64-pc-linux-gnu/bin/../lib/gcc/nios2-elf/4.9.2/mno-hw-mul/libgcc.a(floatunsidf.o)
 .debug_ranges  0x0000000000001708       0x28 ../Autonomous_Car_OS_bsp//libucosii_bsp.a(alt_irq_entry.o)
 .debug_ranges  0x0000000000001730       0x10 ../Autonomous_Car_OS_bsp//libucosii_bsp.a(alt_irq_handler.o)
 .debug_ranges  0x0000000000001740       0x30 ../Autonomous_Car_OS_bsp//libucosii_bsp.a(alt_exception_entry.o)
 .debug_ranges  0x0000000000001770       0x10 /media/christoph/8A841458841448D9/space/altera_lite/15.1/nios2eds/bin/gnu/H-x86_64-pc-linux-gnu/bin/../lib/gcc/nios2-elf/4.9.2/../../../../../H-x86_64-pc-linux-gnu/nios2-elf/lib/mno-hw-mul/libc.a(lib_a-atexit.o)
 .debug_ranges  0x0000000000001780       0x10 /media/christoph/8A841458841448D9/space/altera_lite/15.1/nios2eds/bin/gnu/H-x86_64-pc-linux-gnu/bin/../lib/gcc/nios2-elf/4.9.2/../../../../../H-x86_64-pc-linux-gnu/nios2-elf/lib/mno-hw-mul/libc.a(lib_a-exit.o)
 .debug_ranges  0x0000000000001790       0x10 /media/christoph/8A841458841448D9/space/altera_lite/15.1/nios2eds/bin/gnu/H-x86_64-pc-linux-gnu/bin/../lib/gcc/nios2-elf/4.9.2/../../../../../H-x86_64-pc-linux-gnu/nios2-elf/lib/mno-hw-mul/libc.a(lib_a-memcmp.o)
 .debug_ranges  0x00000000000017a0       0x10 /media/christoph/8A841458841448D9/space/altera_lite/15.1/nios2eds/bin/gnu/H-x86_64-pc-linux-gnu/bin/../lib/gcc/nios2-elf/4.9.2/../../../../../H-x86_64-pc-linux-gnu/nios2-elf/lib/mno-hw-mul/libc.a(lib_a-__atexit.o)
 .debug_ranges  0x00000000000017b0       0x28 /media/christoph/8A841458841448D9/space/altera_lite/15.1/nios2eds/bin/gnu/H-x86_64-pc-linux-gnu/bin/../lib/gcc/nios2-elf/4.9.2/../../../../../H-x86_64-pc-linux-gnu/nios2-elf/lib/mno-hw-mul/libc.a(lib_a-__call_atexit.o)
