
Autonomous_Car_OS.elf:     file format elf32-littlenios2
Autonomous_Car_OS.elf
architecture: nios2:r1, flags 0x00000112:
EXEC_P, HAS_SYMS, D_PAGED
start address 0x000001bc

Program Header:
    LOAD off    0x00001020 vaddr 0x00000020 paddr 0x00000020 align 2**12
         filesz 0x0001cfa8 memsz 0x00026394 flags rwx
    LOAD off    0x0001e000 vaddr 0x02009000 paddr 0x02009000 align 2**12
         filesz 0x00000000 memsz 0x00000000 flags r-x

Sections:
Idx Name          Size      VMA       LMA       File off  Algn
  0 .entry        00000000  02009000  02009000  0001e000  2**5
                  CONTENTS, ALLOC, LOAD, READONLY, CODE
  1 .exceptions   0000019c  00000020  00000020  00001020  2**2
                  CONTENTS, ALLOC, LOAD, READONLY, CODE
  2 .text         0001a8b0  000001bc  000001bc  000011bc  2**2
                  CONTENTS, ALLOC, LOAD, READONLY, CODE
  3 .rodata       00000504  0001aa6c  0001aa6c  0001ba6c  2**2
                  CONTENTS, ALLOC, LOAD, READONLY, DATA
  4 .rwdata       00002058  0001af70  0001af70  0001bf70  2**2
                  CONTENTS, ALLOC, LOAD, DATA, SMALL_DATA
  5 .bss          000093ec  0001cfc8  0001cfc8  0001dfc8  2**2
                  ALLOC, SMALL_DATA
  6 .sdram        00000000  000263b4  000263b4  0001e000  2**0
                  CONTENTS
  7 .onchip_memory2_0 00000000  02004000  02004000  0001e000  2**0
                  CONTENTS
  8 .epcs_flash_controller_0 00000000  02009020  02009020  0001e000  2**0
                  CONTENTS
  9 .comment      00000023  00000000  00000000  0001e000  2**0
                  CONTENTS, READONLY
 10 .debug_aranges 00001178  00000000  00000000  0001e028  2**3
                  CONTENTS, READONLY, DEBUGGING
 11 .debug_info   0002f9c1  00000000  00000000  0001f1a0  2**0
                  CONTENTS, READONLY, DEBUGGING
 12 .debug_abbrev 0000b794  00000000  00000000  0004eb61  2**0
                  CONTENTS, READONLY, DEBUGGING
 13 .debug_line   0000eb3f  00000000  00000000  0005a2f5  2**0
                  CONTENTS, READONLY, DEBUGGING
 14 .debug_frame  000039bc  00000000  00000000  00068e34  2**2
                  CONTENTS, READONLY, DEBUGGING
 15 .debug_str    00004cbe  00000000  00000000  0006c7f0  2**0
                  CONTENTS, READONLY, DEBUGGING
 16 .debug_loc    00016c5c  00000000  00000000  000714ae  2**0
                  CONTENTS, READONLY, DEBUGGING
 17 .debug_alt_sim_info 00000010  00000000  00000000  0008810c  2**2
                  CONTENTS, READONLY, DEBUGGING
 18 .debug_ranges 000017d8  00000000  00000000  00088120  2**3
                  CONTENTS, READONLY, DEBUGGING
 19 .thread_model 00000006  00000000  00000000  0008eb6f  2**0
                  CONTENTS, READONLY
 20 .cpu          0000000c  00000000  00000000  0008eb75  2**0
                  CONTENTS, READONLY
 21 .qsys         00000001  00000000  00000000  0008eb81  2**0
                  CONTENTS, READONLY
 22 .simulation_enabled 00000001  00000000  00000000  0008eb82  2**0
                  CONTENTS, READONLY
 23 .stderr_dev   0000000b  00000000  00000000  0008eb83  2**0
                  CONTENTS, READONLY
 24 .stdin_dev    0000000b  00000000  00000000  0008eb8e  2**0
                  CONTENTS, READONLY
 25 .stdout_dev   0000000b  00000000  00000000  0008eb99  2**0
                  CONTENTS, READONLY
 26 .sopc_system_name 00000008  00000000  00000000  0008eba4  2**0
                  CONTENTS, READONLY
 27 .quartus_project_dir 0000002f  00000000  00000000  0008ebac  2**0
                  CONTENTS, READONLY
 28 .sopcinfo     000e0f1e  00000000  00000000  0008ebdb  2**0
                  CONTENTS, READONLY
SYMBOL TABLE:
02009000 l    d  .entry	00000000 .entry
00000020 l    d  .exceptions	00000000 .exceptions
000001bc l    d  .text	00000000 .text
0001aa6c l    d  .rodata	00000000 .rodata
0001af70 l    d  .rwdata	00000000 .rwdata
0001cfc8 l    d  .bss	00000000 .bss
000263b4 l    d  .sdram	00000000 .sdram
02004000 l    d  .onchip_memory2_0	00000000 .onchip_memory2_0
02009020 l    d  .epcs_flash_controller_0	00000000 .epcs_flash_controller_0
00000000 l    d  .comment	00000000 .comment
00000000 l    d  .debug_aranges	00000000 .debug_aranges
00000000 l    d  .debug_info	00000000 .debug_info
00000000 l    d  .debug_abbrev	00000000 .debug_abbrev
00000000 l    d  .debug_line	00000000 .debug_line
00000000 l    d  .debug_frame	00000000 .debug_frame
00000000 l    d  .debug_str	00000000 .debug_str
00000000 l    d  .debug_loc	00000000 .debug_loc
00000000 l    d  .debug_alt_sim_info	00000000 .debug_alt_sim_info
00000000 l    d  .debug_ranges	00000000 .debug_ranges
00000000 l    df *ABS*	00000000 ../Autonomous_Car_OS_bsp//obj/HAL/src/crt0.o
000001f0 l       .text	00000000 alt_after_alt_main
00000000 l    df *ABS*	00000000 alt_exception_entry.o
00000094 l       .exceptions	00000000 alt_exception_unknown
00000000 l    df *ABS*	00000000 alt_irq_handler.c
00000000 l    df *ABS*	00000000 communication.c
00000000 l    df *ABS*	00000000 gps.c
00000000 l    df *ABS*	00000000 main.c
00000000 l    df *ABS*	00000000 motor.c
00000000 l    df *ABS*	00000000 uart.c
00000000 l    df *ABS*	00000000 ultrasound.c
00000000 l    df *ABS*	00000000 libgcc2.c
00000000 l    df *ABS*	00000000 lib2-mul.c
00000000 l    df *ABS*	00000000 divdf3.c
00000000 l    df *ABS*	00000000 gedf2.c
00000000 l    df *ABS*	00000000 ledf2.c
00000000 l    df *ABS*	00000000 muldf3.c
00000000 l    df *ABS*	00000000 subdf3.c
00000000 l    df *ABS*	00000000 fixdfsi.c
00000000 l    df *ABS*	00000000 floatsidf.c
00000000 l    df *ABS*	00000000 libgcc2.c
00000000 l    df *ABS*	00000000 lib2-divmod.c
000030fc l     F .text	0000006c udivmodsi4
00000000 l    df *ABS*	00000000 libgcc2.c
00000000 l    df *ABS*	00000000 printf.c
00000000 l    df *ABS*	00000000 strncmp.c
00000000 l    df *ABS*	00000000 strncpy.c
00000000 l    df *ABS*	00000000 vfprintf.c
0001ac06 l     O .rodata	00000010 zeroes.4255
000054b8 l     F .text	000000bc __sbprintf
0001ac16 l     O .rodata	00000010 blanks.4254
00000000 l    df *ABS*	00000000 wsetup.c
00000000 l    df *ABS*	00000000 dtoa.c
000056c8 l     F .text	00000228 quorem
00000000 l    df *ABS*	00000000 fflush.c
00000000 l    df *ABS*	00000000 findfp.c
000072ac l     F .text	00000008 __fp_lock
000072b4 l     F .text	00000008 __fp_unlock
000072c8 l     F .text	0000019c __sinit.part.1
00000000 l    df *ABS*	00000000 mallocr.c
00000000 l    df *ABS*	00000000 fwalk.c
00000000 l    df *ABS*	00000000 impure.c
0001af70 l     O .rwdata	00000424 impure_data
00000000 l    df *ABS*	00000000 locale.c
0001b3b4 l     O .rwdata	00000020 lc_ctype_charset
0001b394 l     O .rwdata	00000020 lc_message_charset
0001b3d4 l     O .rwdata	00000038 lconv
00000000 l    df *ABS*	00000000 makebuf.c
00000000 l    df *ABS*	00000000 mallocr.c
00000000 l    df *ABS*	00000000 memchr.c
00000000 l    df *ABS*	00000000 memcpy.c
00000000 l    df *ABS*	00000000 memset.c
00000000 l    df *ABS*	00000000 mprec.c
0001ac48 l     O .rodata	0000000c p05.2710
00000000 l    df *ABS*	00000000 s_fpclassify.c
00000000 l    df *ABS*	00000000 sbrkr.c
00000000 l    df *ABS*	00000000 stdio.c
00000000 l    df *ABS*	00000000 strcmp.c
00000000 l    df *ABS*	00000000 strlen.c
00000000 l    df *ABS*	00000000 vfprintf.c
00009d18 l     F .text	000000fc __sprint_r.part.0
0001ad6c l     O .rodata	00000010 zeroes.4200
0001ad7c l     O .rodata	00000010 blanks.4199
0000b140 l     F .text	000000bc __sbprintf
00000000 l    df *ABS*	00000000 writer.c
00000000 l    df *ABS*	00000000 closer.c
00000000 l    df *ABS*	00000000 mallocr.c
00000000 l    df *ABS*	00000000 fclose.c
00000000 l    df *ABS*	00000000 fputwc.c
00000000 l    df *ABS*	00000000 fstatr.c
00000000 l    df *ABS*	00000000 fvwrite.c
00000000 l    df *ABS*	00000000 int_errno.c
00000000 l    df *ABS*	00000000 isattyr.c
00000000 l    df *ABS*	00000000 lseekr.c
00000000 l    df *ABS*	00000000 memmove.c
00000000 l    df *ABS*	00000000 readr.c
00000000 l    df *ABS*	00000000 mallocr.c
00000000 l    df *ABS*	00000000 wbuf.c
00000000 l    df *ABS*	00000000 wcrtomb.c
00000000 l    df *ABS*	00000000 wctomb_r.c
00000000 l    df *ABS*	00000000 libgcc2.c
00000000 l    df *ABS*	00000000 libgcc2.c
00000000 l    df *ABS*	00000000 adddf3.c
00000000 l    df *ABS*	00000000 eqdf2.c
00000000 l    df *ABS*	00000000 floatunsidf.c
00000000 l    df *ABS*	00000000 alt_close.c
0000dcb8 l     F .text	00000050 alt_get_errno
00000000 l    df *ABS*	00000000 alt_dev.c
0000dde0 l     F .text	0000002c alt_dev_null_write
00000000 l    df *ABS*	00000000 alt_errno.c
00000000 l    df *ABS*	00000000 alt_fstat.c
0000de0c l     F .text	00000050 alt_get_errno
00000000 l    df *ABS*	00000000 alt_iic.c
00000000 l    df *ABS*	00000000 alt_iic_isr_register.c
00000000 l    df *ABS*	00000000 alt_irq_vars.c
00000000 l    df *ABS*	00000000 alt_isatty.c
0000e1e4 l     F .text	00000050 alt_get_errno
00000000 l    df *ABS*	00000000 alt_lseek.c
0000e2e0 l     F .text	00000050 alt_get_errno
00000000 l    df *ABS*	00000000 alt_main.c
00000000 l    df *ABS*	00000000 alt_read.c
0000e4e0 l     F .text	00000050 alt_get_errno
00000000 l    df *ABS*	00000000 alt_release_fd.c
00000000 l    df *ABS*	00000000 alt_sbrk.c
0001cf38 l     O .rwdata	00000004 heap_end
00000000 l    df *ABS*	00000000 alt_write.c
0000e764 l     F .text	00000050 alt_get_errno
00000000 l    df *ABS*	00000000 alt_env_lock.c
0001cf3c l     O .rwdata	00000004 lockid
0001d000 l     O .bss	00000004 locks
00000000 l    df *ABS*	00000000 alt_malloc_lock.c
0001cf40 l     O .rwdata	00000004 lockid
0001d008 l     O .bss	00000004 locks
00000000 l    df *ABS*	00000000 os_core.c
000101a0 l     F .text	00000044 OS_InitMisc
000101e4 l     F .text	00000068 OS_InitRdyList
00010344 l     F .text	000000e0 OS_InitTCBList
000100c4 l     F .text	000000dc OS_InitEventList
0001024c l     F .text	0000007c OS_InitTaskIdle
000102c8 l     F .text	0000007c OS_InitTaskStat
000105a4 l     F .text	00000070 OS_SchedNew
00000000 l    df *ABS*	00000000 os_dbg.c
00000000 l    df *ABS*	00000000 os_flag.c
00012398 l     F .text	00000110 OS_FlagTaskRdy
000120f0 l     F .text	000001c4 OS_FlagBlock
00000000 l    df *ABS*	00000000 os_mem.c
00000000 l    df *ABS*	00000000 os_q.c
00000000 l    df *ABS*	00000000 os_sem.c
00000000 l    df *ABS*	00000000 os_task.c
00000000 l    df *ABS*	00000000 os_time.c
00000000 l    df *ABS*	00000000 alt_sys_init.c
00016930 l     F .text	00000038 alt_dev_reg
0001b9bc l     O .rwdata	000000cc epcs_flash_controller_0
0001ba88 l     O .rwdata	0000106c jtag_uart_0
0001caf4 l     O .rwdata	000000d0 New_UltraSound0
0001cbc4 l     O .rwdata	000000d0 New_UltraSound1
0001cc94 l     O .rwdata	000000d0 New_UltraSound2
0001cd64 l     O .rwdata	000000d0 New_UltraSound3
0001ce34 l     O .rwdata	000000d0 uart_0
00000000 l    df *ABS*	00000000 altera_avalon_epcs_flash_controller.c
00016ab4 l     F .text	00000038 alt_flash_device_register
00016b40 l     F .text	000003f8 alt_epcs_flash_query
00016f38 l     F .text	000000e8 alt_epcs_flash_memcmp
0001730c l     F .text	00000094 alt_epcs_test_address
00000000 l    df *ABS*	00000000 altera_avalon_jtag_uart_fd.c
00000000 l    df *ABS*	00000000 altera_avalon_jtag_uart_init.c
0001785c l     F .text	000002a4 altera_avalon_jtag_uart_irq
00017b00 l     F .text	00000110 altera_avalon_jtag_uart_timeout
00000000 l    df *ABS*	00000000 altera_avalon_jtag_uart_ioctl.c
00000000 l    df *ABS*	00000000 altera_avalon_jtag_uart_read.c
00000000 l    df *ABS*	00000000 altera_avalon_jtag_uart_write.c
00000000 l    df *ABS*	00000000 altera_avalon_timer_sc.c
000182d8 l     F .text	00000074 alt_avalon_timer_sc_irq
00000000 l    df *ABS*	00000000 altera_avalon_uart_fd.c
00000000 l    df *ABS*	00000000 altera_avalon_uart_init.c
00018640 l     F .text	00000098 altera_avalon_uart_irq
000186d8 l     F .text	00000138 altera_avalon_uart_rxirq
00018810 l     F .text	000001a4 altera_avalon_uart_txirq
00000000 l    df *ABS*	00000000 altera_avalon_uart_read.c
00018a08 l     F .text	00000050 alt_get_errno
00000000 l    df *ABS*	00000000 altera_avalon_uart_write.c
00018cc0 l     F .text	00000050 alt_get_errno
00000000 l    df *ABS*	00000000 epcs_commands.c
00018fa4 l     F .text	00000038 epcs_test_wip
00018fdc l     F .text	00000038 epcs_await_wip_released
00000000 l    df *ABS*	00000000 alt_alarm_start.c
00000000 l    df *ABS*	00000000 alt_dev_llist_insert.c
000196b4 l     F .text	00000050 alt_get_errno
00000000 l    df *ABS*	00000000 alt_do_ctors.c
00000000 l    df *ABS*	00000000 alt_do_dtors.c
00000000 l    df *ABS*	00000000 alt_flash_dev.c
00000000 l    df *ABS*	00000000 alt_io_redirect.c
00019918 l     F .text	000000e0 alt_open_fd
00000000 l    df *ABS*	00000000 alt_open.c
00019a70 l     F .text	00000050 alt_get_errno
00019ac0 l     F .text	000000f4 alt_file_locked
00000000 l    df *ABS*	00000000 alt_tick.c
00000000 l    df *ABS*	00000000 altera_nios2_qsys_irq.c
00000000 l    df *ABS*	00000000 os_cpu_a.o
00000040 l       *ABS*	00000000 OSCtxSw_SWITCH_PC
00000000 l    df *ABS*	00000000 os_cpu_c.c
00000014 l       *ABS*	00000000 OSTCBNext_OFFSET
00000032 l       *ABS*	00000000 OSTCBPrio_OFFSET
00000000 l       *ABS*	00000000 OSTCBStkPtr_OFFSET
00000000 l    df *ABS*	00000000 altera_avalon_spi.c
00000000 l    df *ABS*	00000000 alt_find_dev.c
00000000 l    df *ABS*	00000000 alt_find_file.c
00000000 l    df *ABS*	00000000 alt_get_fd.c
00000000 l    df *ABS*	00000000 atexit.c
00000000 l    df *ABS*	00000000 exit.c
00000000 l    df *ABS*	00000000 memcmp.c
00000000 l    df *ABS*	00000000 __atexit.c
00000000 l    df *ABS*	00000000 __call_atexit.c
00000000 l    df *ABS*	00000000 alt_exit.c
00009860 g     F .text	00000074 _mprec_log10
0001cf8e g     O .rwdata	00000002 OSTaskNameSize
00017280 g     F .text	0000008c alt_epcs_flash_get_info
0000994c g     F .text	0000008c __any_on
0000bb8c g     F .text	00000054 _isatty_r
0001ac54 g     O .rodata	00000028 __mprec_tinytens
0000e40c g     F .text	000000d4 alt_main
00023090 g     O .bss	00000100 alt_irq
0000bbe0 g     F .text	0000005c _lseek_r
00012bfc g     F .text	000000dc OS_MemInit
000168cc g     F .text	00000064 OSTimeSet
0000db90 g     F .text	00000084 .hidden __eqdf2
0000ee1c g     F .text	00000610 OSEventPendMulti
000263b4 g       *ABS*	00000000 __alt_heap_start
0001a0fc g     F .text	00000020 OSTaskCreateHook
0001d090 g     O .bss	00002000 task1_stk
00003254 g     F .text	0000003c printf
0001cf66 g     O .rwdata	00000002 OSMboxEn
0000f480 g     F .text	0000007c OSIntEnter
0000c4b0 g     F .text	0000009c _wcrtomb_r
0001cfc8 g     O .bss	00000004 isr_signal
00009b78 g     F .text	0000005c __sseek
0000760c g     F .text	00000010 __sinit
0000c35c g     F .text	00000138 __swbuf_r
0001cf76 g     O .rwdata	00000002 OSQEn
00007bf8 g     F .text	0000007c _setlocale_r
00007464 g     F .text	00000078 __sfmoreglue
0000eaf0 g     F .text	000000d0 __malloc_unlock
0001a158 g     F .text	0000001c OSTaskStatHook
0001d010 g     O .bss	00000001 OSLockNesting
0001cfb4 g     O .rwdata	00000002 OSDataSize
0001d011 g     O .bss	00000001 OSRunning
000010d0 g     F .text	00000044 ultrasound_init
0000bc3c g     F .text	0000015c memmove
0001a190 g     F .text	0000001c OSInitHookBegin
0001cfac g     O .rwdata	00000002 OSTmrSize
000075f4 g     F .text	00000018 _cleanup
0000897c g     F .text	000000a8 _Balloc
0001d014 g     O .bss	00000004 OSIdleCtr
00001c44 g     F .text	000000e0 .hidden __gtdf2
00019f7c g       .text	00000000 OSStartTsk
00000000  w      *UND*	00000000 __errno
000108cc g     F .text	000002d4 OS_TCBInit
00019014 g     F .text	000000f8 epcs_sector_erase
02009000 g     F .entry	00000000 __reset
0001cfb2 g     O .rwdata	00000002 OSTmrWheelTblSize
0001cf52 g     O .rwdata	00000002 OSEventSize
0001d018 g     O .bss	00000001 OSPrioHighRdy
0000b668 g     F .text	00000058 _fstat_r
0001a11c g     F .text	00000020 OSTaskDelHook
0001cfe8 g     O .bss	00000004 errno
00009af4 g     F .text	00000008 __seofread
00019f5c g       .text	00000000 OSStartHighRdy
000150ec g     F .text	000001ec OSTaskCreateExt
00011c3c g     F .text	00000068 OSFlagPendGetFlagsRdy
0001cf92 g     O .rwdata	00000002 OSTaskStatStkSize
00010d2c g     F .text	00000308 OSFlagAccept
000132dc g     F .text	000000b8 OSQFlush
00012cd8 g     F .text	00000140 OSQAccept
0001cff8 g     O .bss	00000004 alt_argv
00024f04 g       *ABS*	00000000 _gp
00014f30 g     F .text	000001bc OSTaskCreate
000149f0 g     F .text	00000540 OSTaskChangePrio
0001d00c g     O .bss	00000004 alt_heapsem
00010ba0 g     F .text	0000018c OSDebugInit
000152d8 g     F .text	000003e0 OSTaskDel
0001b83c g     O .rwdata	00000180 alt_fd_list
00023190 g     O .bss	00000370 OSFlagTbl
0000feb0 g     F .text	000000b4 OS_EventTaskRemove
00019250 g     F .text	00000068 epcs_write_status_register
0001a408 g     F .text	00000090 alt_find_dev
00008720 g     F .text	00000138 memcpy
0001cf7c g     O .rwdata	00000002 OSRdyTblSize
000072bc g     F .text	0000000c _cleanup_r
00002fc8 g     F .text	000000d0 .hidden __floatsidf
000199f8 g     F .text	00000078 alt_io_redirect
00001d24 g     F .text	000000e0 .hidden __ltdf2
0001aa6c g       *ABS*	00000000 __DTOR_END__
0000ebc0 g     F .text	00000120 OSEventNameGet
0001cf60 g     O .rwdata	00000002 OSFlagMax
00017414 g     F .text	00000100 alt_epcs_flash_write_block
000099d8 g     F .text	00000074 __fpclassifyd
000097bc g     F .text	000000a4 __ratio
0000f4fc g     F .text	000000f4 OSIntExit
0000b11c g     F .text	00000024 __vfiprintf_internal
0001cf9a g     O .rwdata	00000002 OSTCBSize
0001d019 g     O .bss	00000001 OSPrioCur
00017d64 g     F .text	000002b4 altera_avalon_jtag_uart_read
00000000  w      *UND*	00000000 malloc
00003228 g     F .text	0000002c _printf_r
02004000 g       *ABS*	00000000 __alt_mem_onchip_memory2_0
00003218 g     F .text	00000008 .hidden __udivsi3
0000e234 g     F .text	000000ac isatty
0001cf80 g     O .rwdata	00000002 OSStkWidth
0001aca4 g     O .rodata	000000c8 __mprec_tens
0001cf74 g     O .rwdata	00000002 OSPtrSize
00007c74 g     F .text	0000000c __locale_charset
0001cf54 g     O .rwdata	00000002 OSEventTblSize
00001228 g     F .text	00000074 .hidden __fixunsdfsi
00019ed0 g       .text	00000000 OSCtxSw
0001cfe4 g     O .bss	00000004 __malloc_top_pad
0001d01c g     O .bss	00000004 OSTCBList
0001cfec g     O .bss	00000004 alt_fd_list_lock
0001cf0c g     O .rwdata	00000004 __mb_cur_max
00007ca4 g     F .text	0000000c _localeconv_r
0000b6c0 g     F .text	000004cc __sfvwrite_r
00008db0 g     F .text	0000003c __i2b
00023500 g     O .bss	00000c30 OSMemTbl
0001d020 g     O .bss	00000001 OSTickStepState
00009a4c g     F .text	00000054 _sbrk_r
000001f4 g     F .text	00000034 communication_init
0001cf78 g     O .rwdata	00000002 OSQMax
00024130 g     O .bss	00000800 OSTaskStatStk
0001282c g     F .text	000000f8 OSMemNameGet
0001cf58 g     O .rwdata	00000002 OSFlagEn
0000bd98 g     F .text	0000005c _read_r
0001cf9e g     O .rwdata	00000002 OSTimeTickHookEn
000137fc g     F .text	00000168 OSQPost
000124a8 g     F .text	000000a0 OS_FlagUnlink
0001cf2c g     O .rwdata	00000004 alt_max_fd
00010474 g     F .text	00000064 OS_MemCopy
000104d8 g     F .text	000000cc OS_Sched
0000b384 g     F .text	000000f0 _fclose_r
0001273c g     F .text	000000f0 OSMemGet
000159b8 g     F .text	000001c0 OSTaskNameSet
0000727c g     F .text	00000030 fflush
0001cfe0 g     O .bss	00000004 __malloc_max_sbrked_mem
0001d024 g     O .bss	00000004 OSCtxSwCtr
0001a174 g     F .text	0000001c OSTimeTickHook
0001cf62 g     O .rwdata	00000002 OSFlagNameSize
0000ff64 g     F .text	000000fc OS_EventTaskRemoveMulti
0000d2f4 g     F .text	0000089c .hidden __adddf3
0000fd64 g     F .text	0000014c OS_EventTaskWaitMulti
000173a0 g     F .text	00000074 alt_epcs_flash_erase_block
00009564 g     F .text	0000011c __b2d
0001cf7a g     O .rwdata	00000002 OSQSize
0000ccd8 g     F .text	0000061c .hidden __umoddi3
0000e330 g     F .text	000000dc lseek
00014300 g     F .text	00000268 OSSemPend
0001cf04 g     O .rwdata	00000004 _global_impure_ptr
00019518 g     F .text	0000005c epcs_exit_4_bytes_mode
000002cc g     F .text	000002bc GPS
0000bdf4 g     F .text	00000568 _realloc_r
0001cf64 g     O .rwdata	00000002 OSLowestPrio
000263b4 g       *ABS*	00000000 __bss_end
0000e0f4 g     F .text	000000f0 alt_iic_isr_register
0001a1e4 g     F .text	00000020 OSTCBInitHook
0001cfaa g     O .rwdata	00000002 OSTmrCfgTicksPerSec
00019dac g     F .text	00000104 alt_tick
0000c698 g     F .text	00000640 .hidden __udivdi3
00000b94 g     F .text	000000bc motor_setting
0000b488 g     F .text	00000184 _fputwc_r
0001cf4c g     O .rwdata	00000002 OSEventEn
0001ac7c g     O .rodata	00000028 __mprec_bigtens
00008b94 g     F .text	00000104 __s2b
0001cfa6 g     O .rwdata	00000002 OSTmrCfgNameSize
0000dc14 g     F .text	000000a4 .hidden __floatunsidf
0000930c g     F .text	00000060 __mcmp
000184e4 g     F .text	0000015c altera_avalon_uart_init
0000762c g     F .text	00000018 __fp_lock_all
0000e0a8 g     F .text	0000004c alt_ic_irq_enabled
00000960 g     F .text	00000044 nUART_ISR
000122b4 g     F .text	000000e4 OS_FlagInit
00019d14 g     F .text	00000098 alt_alarm_stop
00000268 g     F .text	00000030 receiveFromBoard
0001cf88 g     O .rwdata	00000002 OSTaskIdleStkSize
0001cff0 g     O .bss	00000004 alt_irq_active
00013ee8 g     F .text	000000b0 OSSemAccept
00012a3c g     F .text	000000d8 OSMemPut
00012548 g     F .text	000001f4 OSMemCreate
0001d028 g     O .bss	00000004 OSIdleCtrMax
000000ec g     F .exceptions	000000d0 alt_irq_handler
0001b814 g     O .rwdata	00000028 alt_dev_null
0001cf9c g     O .rwdata	00000002 OSTicksPerSec
00019ed0 g       .text	00000000 OSIntCtxSw
00008c98 g     F .text	00000068 __hi0bits
00002f40 g     F .text	00000088 .hidden __fixdfsi
0001d02c g     O .bss	00000004 OSTCBFreeList
00014568 g     F .text	0000016c OSSemPendAbort
0001cf24 g     O .rwdata	00000008 alt_dev_list
0000e7b4 g     F .text	00000100 write
00000c50 g     F .text	00000150 setSpeedPerc
0001cfa0 g     O .rwdata	00000002 OSVersionNbr
0000de5c g     F .text	000000b8 fstat
00001d24 g     F .text	000000e0 .hidden __ledf2
000006b4 g     F .text	000000bc char_to_int
0001cf48 g     O .rwdata	00000004 OSEndiannessTest
0000907c g     F .text	00000140 __pow5mult
00009e2c g     F .text	000012f0 ___vfiprintf_internal_r
0001cfd8 g     O .bss	00000004 __nlocale_changed
00003220 g     F .text	00000008 .hidden __umodsi3
00000588 g     F .text	0000012c dataValid
000193d4 g     F .text	00000068 epcs_read_electronic_signature
0001cf5a g     O .rwdata	00000002 OSFlagGrpSize
000263b4 g       *ABS*	00000000 end
00001034 g     F .text	0000009c uart_send_string
00018d10 g     F .text	00000238 altera_avalon_uart_write
00017710 g     F .text	0000014c altera_avalon_jtag_uart_init
00010738 g     F .text	000000cc OS_TaskStat
0001aa6c g       *ABS*	00000000 __CTOR_LIST__
02000000 g       *ABS*	00000000 __alt_stack_pointer
0001834c g     F .text	00000088 alt_avalon_timer_sc_init
00018434 g     F .text	00000060 altera_avalon_uart_write_fd
00003098 g     F .text	00000064 .hidden __clzsi2
00000fd4 g     F .text	00000060 uart_receive_byte
00018494 g     F .text	00000050 altera_avalon_uart_close_fd
00018018 g     F .text	000002c0 altera_avalon_jtag_uart_write
00000f1c g     F .text	0000004c uart_init
0000761c g     F .text	00000004 __sfp_lock_acquire
00008638 g     F .text	000000e8 memchr
00010424 g     F .text	00000050 OS_MemClr
0000343c g     F .text	00002058 ___vfprintf_internal_r
00019fa0 g     F .text	0000015c OSTaskStkInit
00000770 g     F .text	00000198 task1
00007780 g     F .text	000002f0 _free_r
00007c80 g     F .text	00000010 __locale_mb_cur_max
0000fac0 g     F .text	00000198 OS_EventTaskRdy
0001a89c g     F .text	00000194 __call_exitprocs
0001d030 g     O .bss	00000001 OSCPUUsage
0001cfd4 g     O .bss	00000004 __mlocale_changed
0001cf10 g     O .rwdata	00000004 __malloc_sbrk_base
000001bc g     F .text	00000038 _start
00000908 g     F .text	0000002c task2
0001d060 g     O .bss	00000004 _alt_tick_rate
00000298 g     F .text	00000034 gps_init
00013394 g     F .text	000002fc OSQPend
000162e4 g     F .text	00000148 OSTimeDly
000091bc g     F .text	00000150 __lshift
0001a204 g     F .text	00000204 alt_avalon_spi_command
0001d064 g     O .bss	00000004 _alt_nticks
0000e530 g     F .text	00000104 read
0001699c g     F .text	00000118 alt_sys_init
0001a788 g     F .text	00000114 __register_exitproc
0001d031 g     O .bss	00000001 OSTaskCtr
00003290 g     F .text	000000c0 strncmp
0001642c g     F .text	0000024c OSTimeDlyHMSM
00008dec g     F .text	00000290 __multiply
00017c10 g     F .text	00000068 altera_avalon_jtag_uart_close
0000129c g     F .text	00000028 .hidden __mulsi3
00003350 g     F .text	000000ec strncpy
0001d068 g     O .bss	00000028 __malloc_current_mallinfo
0001cf4e g     O .rwdata	00000002 OSEventMax
00009680 g     F .text	0000013c __d2b
000146d4 g     F .text	00000110 OSSemPost
00018f48 g     F .text	0000005c epcs_read_status_register
0000f678 g     F .text	000000d8 OSSchedUnlock
000175ac g     F .text	00000060 altera_avalon_jtag_uart_read_fd
0001a5ac g     F .text	00000114 alt_get_fd
0001d034 g     O .bss	00000004 OSMemFreeList
0000f7bc g     F .text	000000ac OSStatInit
0001202c g     F .text	000000c4 OSFlagQuery
0001cf84 g     O .rwdata	00000002 OSTaskCreateExtEn
0000b258 g     F .text	00000054 _close_r
0001943c g     F .text	00000080 epcs_read_device_id
0001a70c g     F .text	0000007c memcmp
0000faa4 g     F .text	0000001c OS_Dummy
0001766c g     F .text	00000050 altera_avalon_jtag_uart_close_fd
000263b4 g       *ABS*	00000000 __alt_stack_base
000176bc g     F .text	00000054 altera_avalon_jtag_uart_ioctl_fd
02009000 g       *ABS*	00000000 __alt_mem_epcs_flash_controller_0
00001114 g     F .text	00000114 ultrasound_read
00005574 g     F .text	00000154 __swsetup_r
00024930 g     O .bss	000001e0 OSQTbl
000012c4 g     F .text	00000980 .hidden __divdf3
000074dc g     F .text	00000118 __sfp
000098d4 g     F .text	00000078 __copybits
0001b40c g     O .rwdata	00000408 __malloc_av_
00007628 g     F .text	00000004 __sinit_lock_release
0001d038 g     O .bss	00000004 OSTCBHighRdy
00001e04 g     F .text	0000086c .hidden __muldf3
00009aa0 g     F .text	00000054 __sread
0001d03c g     O .bss	00000004 OSQFreeList
0001a498 g     F .text	00000114 alt_find_file
00019704 g     F .text	000000a4 alt_dev_llist_insert
0000e9d0 g     F .text	00000120 __malloc_lock
0000e6b4 g     F .text	000000b0 sbrk
0000ece0 g     F .text	0000013c OSEventNameSet
00007220 g     F .text	0000005c _fflush_r
0000b2ac g     F .text	000000d8 _calloc_r
0001d040 g     O .bss	00000001 OSRdyGrp
0001cfb8 g     O .rwdata	00000008 alt_flash_dev_list
0001cfc8 g       *ABS*	00000000 __bss_start
00008858 g     F .text	00000124 memset
000009a4 g     F .text	00000134 main
0001cffc g     O .bss	00000004 alt_envp
0001cfdc g     O .bss	00000004 __malloc_max_total_mem
0001760c g     F .text	00000060 altera_avalon_jtag_uart_write_fd
0000c494 g     F .text	0000001c __swbuf
0001adac g     O .rodata	00000100 OSUnMapTbl
0001cf7e g     O .rwdata	00000002 OSSemEn
00011ca4 g     F .text	00000388 OSFlagPost
00009bd4 g     F .text	00000008 __sclose
02000000 g       *ABS*	00000000 __alt_heap_limit
0000b474 g     F .text	00000014 fclose
0000fc58 g     F .text	0000010c OS_EventTaskWait
0001f090 g     O .bss	00002000 task2_stk
00010804 g     F .text	000000c8 OS_TaskStatStkChk
000156b8 g     F .text	00000158 OSTaskDelReq
000058f0 g     F .text	00001728 _dtoa_r
00007e90 g     F .text	000007a8 _malloc_r
0000c60c g     F .text	00000030 __ascii_wctomb
0001cf30 g     O .rwdata	00000004 alt_errno
0000f750 g     F .text	0000006c OSStart
00021090 g     O .bss	00002000 task3_stk
0000e974 g     F .text	0000005c __env_unlock
00007a70 g     F .text	000000c4 _fwalk
00015b78 g     F .text	000001f8 OSTaskResume
00012b14 g     F .text	000000e8 OSMemQuery
0001cf90 g     O .rwdata	00000002 OSTaskStatEn
0001cf6a g     O .rwdata	00000002 OSMemMax
00013964 g     F .text	00000170 OSQPostFront
00003168 g     F .text	00000054 .hidden __divsi3
0001d041 g     O .bss	00000003 OSRdyTbl
0001cf44 g     O .rwdata	00000002 OSDebugEn
0000765c g     F .text	00000124 _malloc_trim_r
0001aa6c g       *ABS*	00000000 __CTOR_END__
0001cf5c g     O .rwdata	00000002 OSFlagNodeSize
0001cfa4 g     O .rwdata	00000002 OSTmrCfgMax
00017020 g     F .text	00000260 alt_epcs_flash_write
00009bdc g     F .text	000000a4 strcmp
00012e18 g     F .text	000001fc OSQCreate
00015810 g     F .text	000001a8 OSTaskNameGet
00013ad4 g     F .text	0000020c OSQPostOpt
0000f868 g     F .text	0000021c OSTimeTick
0001cf8c g     O .rwdata	00000002 OSTaskMax
0001aa6c g       *ABS*	00000000 __DTOR_LIST__
00013f98 g     F .text	00000100 OSSemCreate
0001cfb0 g     O .rwdata	00000002 OSTmrWheelSize
0000db90 g     F .text	00000084 .hidden __nedf2
0001cf86 g     O .rwdata	00000002 OSTaskDelEn
000147e4 g     F .text	00000110 OSSemQuery
00013014 g     F .text	000002c8 OSQDel
00013690 g     F .text	0000016c OSQPendAbort
00016968 g     F .text	00000034 alt_irq_init
0000e634 g     F .text	00000080 alt_release_fd
0001aac4 g     O .rodata	00000100 .hidden __clz_tab
0001cfd0 g     O .bss	00000004 _PathLocale
0001a6c0 g     F .text	00000014 atexit
0000b1fc g     F .text	0000005c _write_r
0000f5f0 g     F .text	00000088 OSSchedLock
00007cb0 g     F .text	0000001c setlocale
00011034 g     F .text	00000128 OSFlagCreate
0001cf08 g     O .rwdata	00000004 _impure_ptr
0001cff4 g     O .bss	00000004 alt_argc
00007018 g     F .text	00000208 __sflush_r
00019804 g     F .text	0000005c _do_dtors
00007c9c g     F .text	00000008 __locale_cjk_lang
0001cf56 g     O .rwdata	00000002 OSEventMultiEn
0001115c g     F .text	00000270 OSFlagDel
0001d044 g     O .bss	00000004 OSEventFreeList
00000020 g       .exceptions	00000000 alt_irq_entry
00009504 g     F .text	00000060 __ulp
0001164c g     F .text	000005f0 OSFlagPend
0001cfa2 g     O .rwdata	00000002 OSTmrEn
00007644 g     F .text	00000018 __fp_unlock_all
00000ad8 g     F .text	000000bc servo_setting
0001cf1c g     O .rwdata	00000008 alt_fs_list
00000f68 g     F .text	0000006c uart_send_byte
00000228 g     F .text	00000040 sendToBoard
00010614 g     F .text	00000074 OS_StrCopy
0001cf6c g     O .rwdata	00000002 OSMemNameSize
0001a1ac g     F .text	0000001c OSInitHookEnd
0001cf98 g     O .rwdata	00000002 OSTCBPrioTblMax
00007ccc g     F .text	0000000c localeconv
0001910c g     F .text	000000f4 epcs_read_buffer
0001cf94 g     O .rwdata	00000002 OSTaskStatStkChkEn
00016aec g     F .text	00000054 alt_epcs_flash_init
0000df14 g     F .text	00000050 alt_ic_isr_register
0001cf68 g     O .rwdata	00000002 OSMemEn
0001cf72 g     O .rwdata	00000002 OSMutexEn
0001cfc8 g       *ABS*	00000000 _edata
000183d4 g     F .text	00000060 altera_avalon_uart_read_fd
000263b4 g       *ABS*	00000000 _end
00019860 g     F .text	00000068 alt_flash_open_dev
0001d048 g     O .bss	00000001 OSIntNesting
0001cfcc g     O .bss	00000004 isr_signal2
00017c78 g     F .text	000000ec altera_avalon_jtag_uart_ioctl
00016678 g     F .text	000001f0 OSTimeDlyResume
000114fc g     F .text	00000150 OSFlagNameSet
00000eb4 g     F .text	00000068 setSteering
00015d70 g     F .text	000001c8 OSTaskStkChk
0000e004 g     F .text	000000a4 alt_ic_irq_disable
000194bc g     F .text	0000005c epcs_enter_4_bytes_mode
0001cf6e g     O .rwdata	00000002 OSMemSize
00009afc g     F .text	0000007c __swrite
0001cf14 g     O .rwdata	00000004 __malloc_trim_threshold
00019eb0 g     F .text	00000020 altera_nios2_qsys_irq_init
00007c90 g     F .text	0000000c __locale_msgcharset
0001d04c g     O .bss	00000004 OSTCBCur
0001a6d4 g     F .text	00000038 exit
0001cf70 g     O .rwdata	00000002 OSMemTblSize
00007b34 g     F .text	000000c4 _fwalk_reent
0000936c g     F .text	00000198 __mdiff
000198c8 g     F .text	00000050 alt_flash_close_dev
000031bc g     F .text	0000005c .hidden __modsi3
02000000 g       *ABS*	00000000 __alt_data_end
00000020 g     F .exceptions	00000000 alt_exception
00007620 g     F .text	00000004 __sfp_lock_release
0000f42c g     F .text	00000054 OSInit
00000000 g       *ABS*	00000000 __alt_mem_sdram
0001614c g     F .text	0000012c OSTaskQuery
00013e3c g     F .text	000000ac OS_QInit
00010688 g     F .text	00000054 OS_StrLen
00012924 g     F .text	00000118 OSMemNameSet
0001cf8a g     O .rwdata	00000002 OSTaskProfileEn
0001d050 g     O .bss	00000004 OSTime
000189b4 g     F .text	00000054 altera_avalon_uart_close
00000da0 g     F .text	00000114 setSteeringPerc
00024b10 g     O .bss	00000800 OSTaskIdleStk
0001aa30 g     F .text	0000003c _exit
00019574 g     F .text	00000140 alt_alarm_start
000113cc g     F .text	00000130 OSFlagNameGet
00016868 g     F .text	00000064 OSTimeGet
00007cd8 g     F .text	000001b8 __smakebuf_r
00009c80 g     F .text	00000098 strlen
00019200 g     F .text	00000050 epcs_write_enable
0001a13c g     F .text	0000001c OSTaskSwHook
00019bb4 g     F .text	00000160 open
00025310 g     O .bss	00000b40 OSEventTbl
00001c44 g     F .text	000000e0 .hidden __gedf2
00025e50 g     O .bss	00000510 OSTCBTbl
000148f4 g     F .text	000000fc OSSemSet
0001cf18 g     O .rwdata	00000004 __wctomb
00009e14 g     F .text	00000018 __sprint_r
0001cf34 g     O .rwdata	00000004 alt_priority_mask
00014098 g     F .text	00000268 OSSemDel
0001d054 g     O .bss	00000004 OSFlagFreeList
00000934 g     F .text	0000002c task3
0000df64 g     F .text	000000a0 alt_ic_irq_enable
0001cf50 g     O .rwdata	00000002 OSEventNameSize
00005494 g     F .text	00000024 __vfprintf_internal
0001d058 g     O .bss	00000001 OSStatRdy
00026360 g     O .bss	00000054 OSTCBPrioTbl
00018a58 g     F .text	00000268 altera_avalon_uart_read
0000c63c g     F .text	0000005c _wctomb_r
0000e8b4 g     F .text	000000c0 __env_lock
0001cf96 g     O .rwdata	00000002 OSTaskSwHookEn
00002670 g     F .text	000008d0 .hidden __subdf3
00017514 g     F .text	00000098 alt_epcs_flash_read
00008d00 g     F .text	000000b0 __lo0bits
0001cfc0 g     O .rwdata	00000008 alt_alarm_list
0001cf5e g     O .rwdata	00000002 OSFlagWidth
000197a8 g     F .text	0000005c _do_ctors
0000c54c g     F .text	000000c0 wcrtomb
0000dd08 g     F .text	000000d8 close
0001d004 g     O .bss	00000004 alt_envsem
0001d05c g     O .bss	00000004 OSIdleCtrRun
0000fa84 g     F .text	00000020 OSVersion
0001cfa8 g     O .rwdata	00000002 OSTmrCfgWheelSize
00016278 g     F .text	0000006c OS_TaskStkClr
0001cf82 g     O .rwdata	00000002 OSTaskCreateEn
00010060 g     F .text	00000064 OS_EventWaitListInit
0000b60c g     F .text	0000005c fputwc
0001a1c8 g     F .text	0000001c OSTaskIdleHook
00000000  w      *UND*	00000000 free
00007624 g     F .text	00000004 __sinit_lock_acquire
000192b8 g     F .text	0000011c epcs_write_buffer
00008a4c g     F .text	00000148 __multadd
00015f38 g     F .text	00000214 OSTaskSuspend
00008a24 g     F .text	00000028 _Bfree
000106dc g     F .text	0000005c OS_TaskIdle
0001cfae g     O .rwdata	00000002 OSTmrTblSize
00013ce0 g     F .text	0000015c OSQQuery



Disassembly of section .exceptions:

00000020 <alt_exception>:

#else /* ALT_EXCEPTION_STACK disabled */
        /* 
         * Reserve space on normal stack for registers about to be pushed.
         */
        addi  sp, sp, -76
  20:	deffed04 	addi	sp,sp,-76
         * documentation for details).
         *
         * Leave a gap in the stack frame at 4(sp) for the muldiv handler to
         * store zero into.
         */
        stw   ra,  0(sp)
  24:	dfc00015 	stw	ra,0(sp)
        stw   r1,   8(sp)
  28:	d8400215 	stw	at,8(sp)
        stw   r2,  12(sp)
  2c:	d8800315 	stw	r2,12(sp)
        stw   r3,  16(sp)
  30:	d8c00415 	stw	r3,16(sp)
        stw   r4,  20(sp)
  34:	d9000515 	stw	r4,20(sp)
        stw   r5,  24(sp)
  38:	d9400615 	stw	r5,24(sp)
        stw   r6,  28(sp)
  3c:	d9800715 	stw	r6,28(sp)
        stw   r7,  32(sp)
  40:	d9c00815 	stw	r7,32(sp)
        rdctl r5, estatus   /* Read early to avoid usage stall */
  44:	000b307a 	rdctl	r5,estatus
        stw   r8,  36(sp)
  48:	da000915 	stw	r8,36(sp)
        stw   r9,  40(sp)
  4c:	da400a15 	stw	r9,40(sp)
        stw   r10, 44(sp)
  50:	da800b15 	stw	r10,44(sp)
        stw   r11, 48(sp)
  54:	dac00c15 	stw	r11,48(sp)
        stw   r12, 52(sp)
  58:	db000d15 	stw	r12,52(sp)
        stw   r13, 56(sp)
  5c:	db400e15 	stw	r13,56(sp)
        stw   r14, 60(sp)
  60:	db800f15 	stw	r14,60(sp)
        stw   r15, 64(sp)
  64:	dbc01015 	stw	r15,64(sp)
        /*
         * ea-4 contains the address of the instruction being executed
         * when the exception occured. For interrupt exceptions, we will
         * will be re-issue the isntruction. Store it in 72(sp)
         */
        stw   r5,  68(sp)  /* estatus */
  68:	d9401115 	stw	r5,68(sp)
        addi  r15, ea, -4  /* instruction that caused exception */
  6c:	ebffff04 	addi	r15,ea,-4
        stw   r15,  72(sp)
  70:	dbc01215 	stw	r15,72(sp)
#else
        /*
         * Test to see if the exception was a software exception or caused 
         * by an external interrupt, and vector accordingly.
         */
        rdctl r4, ipending
  74:	0009313a 	rdctl	r4,ipending
        andi  r2, r5, 1
  78:	2880004c 	andi	r2,r5,1
        beq   r2, zero, .Lnot_irq
  7c:	10000326 	beq	r2,zero,8c <OSCtxSw_SWITCH_PC+0x4c>
        beq   r4, zero, .Lnot_irq
  80:	20000226 	beq	r4,zero,8c <OSCtxSw_SWITCH_PC+0x4c>
        /*
         * Now that all necessary registers have been preserved, call 
         * alt_irq_handler() to process the interrupts.
         */

        call alt_irq_handler
  84:	00000ec0 	call	ec <alt_irq_handler>

        .section .exceptions.irqreturn, "xa"

        br    .Lexception_exit
  88:	00000306 	br	98 <alt_exception_unknown+0x4>
         * upon completion, so we write ea (address of instruction *after*
         * the one where the exception occured) into 72(sp). The actual
         * instruction that caused the exception is written in r2, which these
         * handlers will utilize.
         */
        stw   ea,  72(sp)  /* Don't re-issue */
  8c:	df401215 	stw	ea,72(sp)
        ldw   r2, -4(ea)   /* Instruction that caused exception */
  90:	e8bfff17 	ldw	r2,-4(ea)

00000094 <alt_exception_unknown>:
#ifdef NIOS2_HAS_DEBUG_STUB
       /*
        *  Either tell the user now (if there is a debugger attached) or go into
        *  the debug monitor which will loop until a debugger is attached.
        */
        break
  94:	003da03a 	break	0
        /* 
         * Restore the saved registers, so that all general purpose registers 
         * have been restored to their state at the time the interrupt occured.
         */

        ldw   r5,  68(sp)
  98:	d9401117 	ldw	r5,68(sp)
        ldw   ea,  72(sp)  /* This becomes the PC once eret is executed */
  9c:	df401217 	ldw	ea,72(sp)
        ldw   ra,   0(sp)
  a0:	dfc00017 	ldw	ra,0(sp)

        wrctl estatus, r5
  a4:	2801707a 	wrctl	estatus,r5

        ldw   r1,   8(sp)
  a8:	d8400217 	ldw	at,8(sp)
        ldw   r2,  12(sp)
  ac:	d8800317 	ldw	r2,12(sp)
        ldw   r3,  16(sp)
  b0:	d8c00417 	ldw	r3,16(sp)
        ldw   r4,  20(sp)
  b4:	d9000517 	ldw	r4,20(sp)
        ldw   r5,  24(sp)
  b8:	d9400617 	ldw	r5,24(sp)
        ldw   r6,  28(sp)
  bc:	d9800717 	ldw	r6,28(sp)
        ldw   r7,  32(sp)
  c0:	d9c00817 	ldw	r7,32(sp)

#if defined(ALT_EXCEPTION_STACK) && defined(ALT_STACK_CHECK)
        ldw   et, %gprel(alt_exception_old_stack_limit)(gp)
#endif

        ldw   r8,  36(sp)
  c4:	da000917 	ldw	r8,36(sp)
        ldw   r9,  40(sp)
  c8:	da400a17 	ldw	r9,40(sp)
        ldw   r10, 44(sp)
  cc:	da800b17 	ldw	r10,44(sp)
        ldw   r11, 48(sp)
  d0:	dac00c17 	ldw	r11,48(sp)
        ldw   r12, 52(sp)
  d4:	db000d17 	ldw	r12,52(sp)
        ldw   r13, 56(sp)
  d8:	db400e17 	ldw	r13,56(sp)
        ldw   r14, 60(sp)
  dc:	db800f17 	ldw	r14,60(sp)
        ldw   r15, 64(sp)
  e0:	dbc01017 	ldw	r15,64(sp)
        stw   et, %gprel(alt_stack_limit_value)(gp)
        stw   zero, %gprel(alt_exception_old_stack_limit)(gp)
#endif /* ALT_STACK_CHECK */
        ldw   sp,  76(sp)
#else /* ALT_EXCEPTION_STACK disabled */
        addi  sp, sp, 76
  e4:	dec01304 	addi	sp,sp,76

        /*
         * Return to the interrupted instruction.
         */

        eret
  e8:	ef80083a 	eret

000000ec <alt_irq_handler>:
 * instruction is present if the macro ALT_CI_INTERRUPT_VECTOR defined.
 */

void alt_irq_handler (void) __attribute__ ((section (".exceptions")));
void alt_irq_handler (void)
{
  ec:	defff904 	addi	sp,sp,-28
  f0:	dfc00615 	stw	ra,24(sp)
  f4:	df000515 	stw	fp,20(sp)
  f8:	df000504 	addi	fp,sp,20
  
  /*
   * Notify the operating system that we are at interrupt level.
   */ 
  
  ALT_OS_INT_ENTER();
  fc:	000f4800 	call	f480 <OSIntEnter>
#ifndef NIOS2_EIC_PRESENT
static ALT_INLINE alt_u32 ALT_ALWAYS_INLINE alt_irq_pending (void)
{
  alt_u32 active;

  NIOS2_READ_IPENDING (active);
 100:	0005313a 	rdctl	r2,ipending
 104:	e0bffe15 	stw	r2,-8(fp)

  return active;
 108:	e0bffe17 	ldw	r2,-8(fp)
   * Consider the case where the high priority interupt is asserted during
   * the interrupt entry sequence for a lower priority interrupt to see why
   * this is the case.
   */

  active = alt_irq_pending ();
 10c:	e0bffb15 	stw	r2,-20(fp)

  do
  {
    i = 0;
 110:	e03ffd15 	stw	zero,-12(fp)
    mask = 1;
 114:	00800044 	movi	r2,1
 118:	e0bffc15 	stw	r2,-16(fp)
     * called to clear the interrupt condition.
     */

    do
    {
      if (active & mask)
 11c:	e0fffb17 	ldw	r3,-20(fp)
 120:	e0bffc17 	ldw	r2,-16(fp)
 124:	1884703a 	and	r2,r3,r2
 128:	10001426 	beq	r2,zero,17c <alt_irq_handler+0x90>
      { 
#ifdef ALT_ENHANCED_INTERRUPT_API_PRESENT
        alt_irq[i].handler(alt_irq[i].context); 
 12c:	008000b4 	movhi	r2,2
 130:	108c2404 	addi	r2,r2,12432
 134:	e0fffd17 	ldw	r3,-12(fp)
 138:	180690fa 	slli	r3,r3,3
 13c:	10c5883a 	add	r2,r2,r3
 140:	10c00017 	ldw	r3,0(r2)
 144:	008000b4 	movhi	r2,2
 148:	108c2404 	addi	r2,r2,12432
 14c:	e13ffd17 	ldw	r4,-12(fp)
 150:	200890fa 	slli	r4,r4,3
 154:	21000104 	addi	r4,r4,4
 158:	1105883a 	add	r2,r2,r4
 15c:	10800017 	ldw	r2,0(r2)
 160:	1009883a 	mov	r4,r2
 164:	183ee83a 	callr	r3
#else
        alt_irq[i].handler(alt_irq[i].context, i); 
#endif
        break;
 168:	0001883a 	nop
#ifndef NIOS2_EIC_PRESENT
static ALT_INLINE alt_u32 ALT_ALWAYS_INLINE alt_irq_pending (void)
{
  alt_u32 active;

  NIOS2_READ_IPENDING (active);
 16c:	0005313a 	rdctl	r2,ipending
 170:	e0bfff15 	stw	r2,-4(fp)

  return active;
 174:	e0bfff17 	ldw	r2,-4(fp)
 178:	00000706 	br	198 <alt_irq_handler+0xac>
      }
      mask <<= 1;
 17c:	e0bffc17 	ldw	r2,-16(fp)
 180:	1085883a 	add	r2,r2,r2
 184:	e0bffc15 	stw	r2,-16(fp)
      i++;
 188:	e0bffd17 	ldw	r2,-12(fp)
 18c:	10800044 	addi	r2,r2,1
 190:	e0bffd15 	stw	r2,-12(fp)

    } while (1);
 194:	003fe106 	br	11c <alt_irq_handler+0x30>

    active = alt_irq_pending ();
 198:	e0bffb15 	stw	r2,-20(fp)
    
  } while (active);
 19c:	e0bffb17 	ldw	r2,-20(fp)
 1a0:	103fdb1e 	bne	r2,zero,110 <alt_irq_handler+0x24>

  /*
   * Notify the operating system that interrupt processing is complete.
   */ 

  ALT_OS_INT_EXIT();
 1a4:	000f4fc0 	call	f4fc <OSIntExit>
}
 1a8:	e037883a 	mov	sp,fp
 1ac:	dfc00117 	ldw	ra,4(sp)
 1b0:	df000017 	ldw	fp,0(sp)
 1b4:	dec00204 	addi	sp,sp,8
 1b8:	f800283a 	ret

Disassembly of section .text:

000001bc <_start>:

    /*
     * Now that the caches are initialized, set up the stack pointer and global pointer.
     * The values provided by the linker are assumed to be correctly aligned.
     */
    movhi sp, %hi(__alt_stack_pointer)
     1bc:	06c08034 	movhi	sp,512
    ori sp, sp, %lo(__alt_stack_pointer)
     1c0:	dec00014 	ori	sp,sp,0
    movhi gp, %hi(_gp)
     1c4:	068000b4 	movhi	gp,2
    ori gp, gp, %lo(_gp)
     1c8:	d693c114 	ori	gp,gp,20228
 */
#ifndef ALT_SIM_OPTIMIZE
    /* Log that the BSS is about to be cleared. */
    ALT_LOG_PUTS(alt_log_msg_bss)

    movhi r2, %hi(__bss_start)
     1cc:	00800074 	movhi	r2,1
    ori r2, r2, %lo(__bss_start)
     1d0:	10b3f214 	ori	r2,r2,53192

    movhi r3, %hi(__bss_end)
     1d4:	00c000b4 	movhi	r3,2
    ori r3, r3, %lo(__bss_end)
     1d8:	18d8ed14 	ori	r3,r3,25524

    beq r2, r3, 1f
     1dc:	10c00326 	beq	r2,r3,1ec <_start+0x30>

0:
    stw zero, (r2)
     1e0:	10000015 	stw	zero,0(r2)
    addi r2, r2, 4
     1e4:	10800104 	addi	r2,r2,4
    bltu r2, r3, 0b
     1e8:	10fffd36 	bltu	r2,r3,1e0 <_start+0x24>

    /* Log that alt_main is about to be called. */
    ALT_LOG_PUTS(alt_log_msg_alt_main)

    /* Call the C entry point. It should never return. */
    call alt_main
     1ec:	000e40c0 	call	e40c <alt_main>

000001f0 <alt_after_alt_main>:

    /* Wait in infinite loop in case alt_main does return. */
alt_after_alt_main:
    br alt_after_alt_main
     1f0:	003fff06 	br	1f0 <alt_after_alt_main>

000001f4 <communication_init>:

  Remarks:
    communication is realized via UART3
  ***************************************************************************/
void communication_init()
{
     1f4:	defffe04 	addi	sp,sp,-8
     1f8:	dfc00115 	stw	ra,4(sp)
     1fc:	df000015 	stw	fp,0(sp)
     200:	d839883a 	mov	fp,sp
	uart_init(NEW_ULTRASOUND3_BASE, ALTERA_AVALON_UART_CONTROL_RRDY_MSK);
     204:	01008074 	movhi	r4,513
     208:	21287004 	addi	r4,r4,-24128
     20c:	01402004 	movi	r5,128
     210:	0000f1c0 	call	f1c <uart_init>
}
     214:	e037883a 	mov	sp,fp
     218:	dfc00117 	ldw	ra,4(sp)
     21c:	df000017 	ldw	fp,0(sp)
     220:	dec00204 	addi	sp,sp,8
     224:	f800283a 	ret

00000228 <sendToBoard>:

  Remarks:
    communication is realized via UART3
  ***************************************************************************/
void sendToBoard(unsigned char data)
{
     228:	defffd04 	addi	sp,sp,-12
     22c:	dfc00215 	stw	ra,8(sp)
     230:	df000115 	stw	fp,4(sp)
     234:	df000104 	addi	fp,sp,4
     238:	2005883a 	mov	r2,r4
     23c:	e0bfff05 	stb	r2,-4(fp)
	uart_send_byte(NEW_ULTRASOUND3_BASE, data);
     240:	e0bfff03 	ldbu	r2,-4(fp)
     244:	01008074 	movhi	r4,513
     248:	21287004 	addi	r4,r4,-24128
     24c:	100b883a 	mov	r5,r2
     250:	0000f680 	call	f68 <uart_send_byte>
}
     254:	e037883a 	mov	sp,fp
     258:	dfc00117 	ldw	ra,4(sp)
     25c:	df000017 	ldw	fp,0(sp)
     260:	dec00204 	addi	sp,sp,8
     264:	f800283a 	ret

00000268 <receiveFromBoard>:

  Remarks:
    communication is realized via UART3
  ***************************************************************************/
unsigned char receiveFromBoard()
{
     268:	defffe04 	addi	sp,sp,-8
     26c:	dfc00115 	stw	ra,4(sp)
     270:	df000015 	stw	fp,0(sp)
     274:	d839883a 	mov	fp,sp
	return uart_receive_byte(NEW_ULTRASOUND3_BASE);
     278:	01008074 	movhi	r4,513
     27c:	21287004 	addi	r4,r4,-24128
     280:	0000fd40 	call	fd4 <uart_receive_byte>
}
     284:	e037883a 	mov	sp,fp
     288:	dfc00117 	ldw	ra,4(sp)
     28c:	df000017 	ldw	fp,0(sp)
     290:	dec00204 	addi	sp,sp,8
     294:	f800283a 	ret

00000298 <gps_init>:

int dataValid(char *String);
int char_to_int(char a);

void gps_init()
{
     298:	defffe04 	addi	sp,sp,-8
     29c:	dfc00115 	stw	ra,4(sp)
     2a0:	df000015 	stw	fp,0(sp)
     2a4:	d839883a 	mov	fp,sp
	uart_init(NEW_ULTRASOUND2_BASE, ALTERA_AVALON_UART_CONTROL_RRDY_MSK);
     2a8:	01008074 	movhi	r4,513
     2ac:	21287804 	addi	r4,r4,-24096
     2b0:	01402004 	movi	r5,128
     2b4:	0000f1c0 	call	f1c <uart_init>
}
     2b8:	e037883a 	mov	sp,fp
     2bc:	dfc00117 	ldw	ra,4(sp)
     2c0:	df000017 	ldw	fp,0(sp)
     2c4:	dec00204 	addi	sp,sp,8
     2c8:	f800283a 	ret

000002cc <GPS>:

Remarks:
	None
***************************************************************************/
void GPS(char *String)
{
     2cc:	deffed04 	addi	sp,sp,-76
     2d0:	dfc01215 	stw	ra,72(sp)
     2d4:	df001115 	stw	fp,68(sp)
     2d8:	df001104 	addi	fp,sp,68
     2dc:	e13fff15 	stw	r4,-4(fp)
	char Command[5];
	int i = 0;
     2e0:	e03fef15 	stw	zero,-68(fp)
	while(String[i] != 0x2C && i < 6) { i++; }; // We find first occurrence of comma (',') in the String.
     2e4:	00000306 	br	2f4 <GPS+0x28>
     2e8:	e0bfef17 	ldw	r2,-68(fp)
     2ec:	10800044 	addi	r2,r2,1
     2f0:	e0bfef15 	stw	r2,-68(fp)
     2f4:	e0bfef17 	ldw	r2,-68(fp)
     2f8:	e0ffff17 	ldw	r3,-4(fp)
     2fc:	1885883a 	add	r2,r3,r2
     300:	10800003 	ldbu	r2,0(r2)
     304:	10803fcc 	andi	r2,r2,255
     308:	1080201c 	xori	r2,r2,128
     30c:	10bfe004 	addi	r2,r2,-128
     310:	10800b20 	cmpeqi	r2,r2,44
     314:	1000031e 	bne	r2,zero,324 <GPS+0x58>
     318:	e0bfef17 	ldw	r2,-68(fp)
     31c:	10800190 	cmplti	r2,r2,6
     320:	103ff11e 	bne	r2,zero,2e8 <GPS+0x1c>

	strncpy(Command, String, i); // We copy characters (from first to comma) from String to Command.
     324:	e0bfef17 	ldw	r2,-68(fp)
     328:	e0fff304 	addi	r3,fp,-52
     32c:	1809883a 	mov	r4,r3
     330:	e17fff17 	ldw	r5,-4(fp)
     334:	100d883a 	mov	r6,r2
     338:	00033500 	call	3350 <strncpy>

	int b = strncmp(String,"$GPGGA",i); // We compare if command, we got is equal to GPGGA. Returns 0, when strings are identical.
     33c:	e0bfef17 	ldw	r2,-68(fp)
     340:	e13fff17 	ldw	r4,-4(fp)
     344:	014000b4 	movhi	r5,2
     348:	296a9b04 	addi	r5,r5,-21908
     34c:	100d883a 	mov	r6,r2
     350:	00032900 	call	3290 <strncmp>
     354:	e0bff015 	stw	r2,-64(fp)
	if (b == 0)
     358:	e0bff017 	ldw	r2,-64(fp)
     35c:	1000851e 	bne	r2,zero,574 <GPS+0x2a8>
	{
		int valid = dataValid(String); // We check if checksum at the end of the string is correct. Returns 1 if it is correct.
     360:	e13fff17 	ldw	r4,-4(fp)
     364:	00005880 	call	588 <dataValid>
     368:	e0bff115 	stw	r2,-60(fp)

		if (valid)
     36c:	e0bff117 	ldw	r2,-60(fp)
     370:	10008026 	beq	r2,zero,574 <GPS+0x2a8>
			//printf("%s\n",String);
			char Lat[20];
			char Long[20];

			// We parse latitude (between second and third comma) from the data and send it to the MX6 board through UART channel 3.
			i++;
     374:	e0bfef17 	ldw	r2,-68(fp)
     378:	10800044 	addi	r2,r2,1
     37c:	e0bfef15 	stw	r2,-68(fp)
			while(String[i] != 0x2C && i < 20) { i++; };
     380:	00000306 	br	390 <GPS+0xc4>
     384:	e0bfef17 	ldw	r2,-68(fp)
     388:	10800044 	addi	r2,r2,1
     38c:	e0bfef15 	stw	r2,-68(fp)
     390:	e0bfef17 	ldw	r2,-68(fp)
     394:	e0ffff17 	ldw	r3,-4(fp)
     398:	1885883a 	add	r2,r3,r2
     39c:	10800003 	ldbu	r2,0(r2)
     3a0:	10803fcc 	andi	r2,r2,255
     3a4:	1080201c 	xori	r2,r2,128
     3a8:	10bfe004 	addi	r2,r2,-128
     3ac:	10800b20 	cmpeqi	r2,r2,44
     3b0:	1000031e 	bne	r2,zero,3c0 <GPS+0xf4>
     3b4:	e0bfef17 	ldw	r2,-68(fp)
     3b8:	10800510 	cmplti	r2,r2,20
     3bc:	103ff11e 	bne	r2,zero,384 <GPS+0xb8>
			i++;
     3c0:	e0bfef17 	ldw	r2,-68(fp)
     3c4:	10800044 	addi	r2,r2,1
     3c8:	e0bfef15 	stw	r2,-68(fp)
			int temp = i;
     3cc:	e0bfef17 	ldw	r2,-68(fp)
     3d0:	e0bff215 	stw	r2,-56(fp)
			while(String[i] != 0x2C && i < 30) { i++; };
     3d4:	00000306 	br	3e4 <GPS+0x118>
     3d8:	e0bfef17 	ldw	r2,-68(fp)
     3dc:	10800044 	addi	r2,r2,1
     3e0:	e0bfef15 	stw	r2,-68(fp)
     3e4:	e0bfef17 	ldw	r2,-68(fp)
     3e8:	e0ffff17 	ldw	r3,-4(fp)
     3ec:	1885883a 	add	r2,r3,r2
     3f0:	10800003 	ldbu	r2,0(r2)
     3f4:	10803fcc 	andi	r2,r2,255
     3f8:	1080201c 	xori	r2,r2,128
     3fc:	10bfe004 	addi	r2,r2,-128
     400:	10800b20 	cmpeqi	r2,r2,44
     404:	1000031e 	bne	r2,zero,414 <GPS+0x148>
     408:	e0bfef17 	ldw	r2,-68(fp)
     40c:	10800790 	cmplti	r2,r2,30
     410:	103ff11e 	bne	r2,zero,3d8 <GPS+0x10c>
			strncpy(Lat, &String[temp], i - temp);
     414:	e0bff217 	ldw	r2,-56(fp)
     418:	e0ffff17 	ldw	r3,-4(fp)
     41c:	188b883a 	add	r5,r3,r2
     420:	e0ffef17 	ldw	r3,-68(fp)
     424:	e0bff217 	ldw	r2,-56(fp)
     428:	1885c83a 	sub	r2,r3,r2
     42c:	1007883a 	mov	r3,r2
     430:	e0bff444 	addi	r2,fp,-47
     434:	1009883a 	mov	r4,r2
     438:	180d883a 	mov	r6,r3
     43c:	00033500 	call	3350 <strncpy>
			Lat[i-temp] = 0x00;
     440:	e0ffef17 	ldw	r3,-68(fp)
     444:	e0bff217 	ldw	r2,-56(fp)
     448:	1885c83a 	sub	r2,r3,r2
     44c:	e0fff444 	addi	r3,fp,-47
     450:	1885883a 	add	r2,r3,r2
     454:	10000005 	stb	zero,0(r2)

			// We parse longitude (between fourth and fifth comma) from the data and send it to the MX6 board through UART channel 3.
			i++;
     458:	e0bfef17 	ldw	r2,-68(fp)
     45c:	10800044 	addi	r2,r2,1
     460:	e0bfef15 	stw	r2,-68(fp)
			while(String[i] != 0x2C && i < 35) { i++; };
     464:	00000306 	br	474 <GPS+0x1a8>
     468:	e0bfef17 	ldw	r2,-68(fp)
     46c:	10800044 	addi	r2,r2,1
     470:	e0bfef15 	stw	r2,-68(fp)
     474:	e0bfef17 	ldw	r2,-68(fp)
     478:	e0ffff17 	ldw	r3,-4(fp)
     47c:	1885883a 	add	r2,r3,r2
     480:	10800003 	ldbu	r2,0(r2)
     484:	10803fcc 	andi	r2,r2,255
     488:	1080201c 	xori	r2,r2,128
     48c:	10bfe004 	addi	r2,r2,-128
     490:	10800b20 	cmpeqi	r2,r2,44
     494:	1000031e 	bne	r2,zero,4a4 <GPS+0x1d8>
     498:	e0bfef17 	ldw	r2,-68(fp)
     49c:	108008d0 	cmplti	r2,r2,35
     4a0:	103ff11e 	bne	r2,zero,468 <GPS+0x19c>
			i++;
     4a4:	e0bfef17 	ldw	r2,-68(fp)
     4a8:	10800044 	addi	r2,r2,1
     4ac:	e0bfef15 	stw	r2,-68(fp)
			temp = i;
     4b0:	e0bfef17 	ldw	r2,-68(fp)
     4b4:	e0bff215 	stw	r2,-56(fp)
			while(String[i] != 0x2C && i < 40) { i++; };
     4b8:	00000306 	br	4c8 <GPS+0x1fc>
     4bc:	e0bfef17 	ldw	r2,-68(fp)
     4c0:	10800044 	addi	r2,r2,1
     4c4:	e0bfef15 	stw	r2,-68(fp)
     4c8:	e0bfef17 	ldw	r2,-68(fp)
     4cc:	e0ffff17 	ldw	r3,-4(fp)
     4d0:	1885883a 	add	r2,r3,r2
     4d4:	10800003 	ldbu	r2,0(r2)
     4d8:	10803fcc 	andi	r2,r2,255
     4dc:	1080201c 	xori	r2,r2,128
     4e0:	10bfe004 	addi	r2,r2,-128
     4e4:	10800b20 	cmpeqi	r2,r2,44
     4e8:	1000031e 	bne	r2,zero,4f8 <GPS+0x22c>
     4ec:	e0bfef17 	ldw	r2,-68(fp)
     4f0:	10800a10 	cmplti	r2,r2,40
     4f4:	103ff11e 	bne	r2,zero,4bc <GPS+0x1f0>
			strncpy(Long, &String[temp], i - temp);
     4f8:	e0bff217 	ldw	r2,-56(fp)
     4fc:	e0ffff17 	ldw	r3,-4(fp)
     500:	188b883a 	add	r5,r3,r2
     504:	e0ffef17 	ldw	r3,-68(fp)
     508:	e0bff217 	ldw	r2,-56(fp)
     50c:	1885c83a 	sub	r2,r3,r2
     510:	1007883a 	mov	r3,r2
     514:	e0bff944 	addi	r2,fp,-27
     518:	1009883a 	mov	r4,r2
     51c:	180d883a 	mov	r6,r3
     520:	00033500 	call	3350 <strncpy>
			Long[i-temp] = 0x00;
     524:	e0ffef17 	ldw	r3,-68(fp)
     528:	e0bff217 	ldw	r2,-56(fp)
     52c:	1885c83a 	sub	r2,r3,r2
     530:	e0fff944 	addi	r3,fp,-27
     534:	1885883a 	add	r2,r3,r2
     538:	10000005 	stb	zero,0(r2)


			uart_send_string("48.76");
     53c:	010000b4 	movhi	r4,2
     540:	212a9d04 	addi	r4,r4,-21900
     544:	00010340 	call	1034 <uart_send_string>
			for(i=0;i<50000;i++);
     548:	e03fef15 	stw	zero,-68(fp)
     54c:	00000306 	br	55c <GPS+0x290>
     550:	e0bfef17 	ldw	r2,-68(fp)
     554:	10800044 	addi	r2,r2,1
     558:	e0bfef15 	stw	r2,-68(fp)
     55c:	e0bfef17 	ldw	r2,-68(fp)
     560:	00f0d3d4 	movui	r3,49999
     564:	18bffa0e 	bge	r3,r2,550 <GPS+0x284>
			uart_send_string("11.26");
     568:	010000b4 	movhi	r4,2
     56c:	212a9f04 	addi	r4,r4,-21892
     570:	00010340 	call	1034 <uart_send_string>
	}
	else
	{
		//printf("Wrong command!\n");
	}
}
     574:	e037883a 	mov	sp,fp
     578:	dfc00117 	ldw	ra,4(sp)
     57c:	df000017 	ldw	fp,0(sp)
     580:	dec00204 	addi	sp,sp,8
     584:	f800283a 	ret

00000588 <dataValid>:

Remarks:
	None
***************************************************************************/
int dataValid(char *String)
{
     588:	defffb04 	addi	sp,sp,-20
     58c:	dfc00415 	stw	ra,16(sp)
     590:	df000315 	stw	fp,12(sp)
     594:	df000304 	addi	fp,sp,12
     598:	e13fff15 	stw	r4,-4(fp)
	int i = 1;
     59c:	00800044 	movi	r2,1
     5a0:	e0bffd15 	stw	r2,-12(fp)
	char calcChecksum = 0x00;
     5a4:	e03ffe05 	stb	zero,-8(fp)

	// Calculates checksum (XOR of all bytes between $ and *). Maximum characters in NMEA standard is 80!
	while (String[i] != 0x2A && i < 80)
     5a8:	00000a06 	br	5d4 <dataValid+0x4c>
	{
		calcChecksum = calcChecksum ^ String[i];
     5ac:	e0bffd17 	ldw	r2,-12(fp)
     5b0:	e0ffff17 	ldw	r3,-4(fp)
     5b4:	1885883a 	add	r2,r3,r2
     5b8:	10c00003 	ldbu	r3,0(r2)
     5bc:	e0bffe03 	ldbu	r2,-8(fp)
     5c0:	1884f03a 	xor	r2,r3,r2
     5c4:	e0bffe05 	stb	r2,-8(fp)
		i++;
     5c8:	e0bffd17 	ldw	r2,-12(fp)
     5cc:	10800044 	addi	r2,r2,1
     5d0:	e0bffd15 	stw	r2,-12(fp)
{
	int i = 1;
	char calcChecksum = 0x00;

	// Calculates checksum (XOR of all bytes between $ and *). Maximum characters in NMEA standard is 80!
	while (String[i] != 0x2A && i < 80)
     5d4:	e0bffd17 	ldw	r2,-12(fp)
     5d8:	e0ffff17 	ldw	r3,-4(fp)
     5dc:	1885883a 	add	r2,r3,r2
     5e0:	10800003 	ldbu	r2,0(r2)
     5e4:	10803fcc 	andi	r2,r2,255
     5e8:	1080201c 	xori	r2,r2,128
     5ec:	10bfe004 	addi	r2,r2,-128
     5f0:	10800aa0 	cmpeqi	r2,r2,42
     5f4:	1000031e 	bne	r2,zero,604 <dataValid+0x7c>
     5f8:	e0bffd17 	ldw	r2,-12(fp)
     5fc:	10801410 	cmplti	r2,r2,80
     600:	103fea1e 	bne	r2,zero,5ac <dataValid+0x24>
	{
		calcChecksum = calcChecksum ^ String[i];
		i++;
	}
	if (i > 80) return 0;
     604:	e0bffd17 	ldw	r2,-12(fp)
     608:	10801450 	cmplti	r2,r2,81
     60c:	1000021e 	bne	r2,zero,618 <dataValid+0x90>
     610:	0005883a 	mov	r2,zero
     614:	00002206 	br	6a0 <dataValid+0x118>

	char retChecksum = char_to_int(String[i+1]); // Converts first character of received checksum (one after *) to integer.
     618:	e0bffd17 	ldw	r2,-12(fp)
     61c:	10800044 	addi	r2,r2,1
     620:	e0ffff17 	ldw	r3,-4(fp)
     624:	1885883a 	add	r2,r3,r2
     628:	10800003 	ldbu	r2,0(r2)
     62c:	10803fcc 	andi	r2,r2,255
     630:	1080201c 	xori	r2,r2,128
     634:	10bfe004 	addi	r2,r2,-128
     638:	1009883a 	mov	r4,r2
     63c:	00006b40 	call	6b4 <char_to_int>
     640:	e0bffe45 	stb	r2,-7(fp)
	char temp = char_to_int(String[i+2]); // Converts second character of received checksum (two after *) to integer.
     644:	e0bffd17 	ldw	r2,-12(fp)
     648:	10800084 	addi	r2,r2,2
     64c:	e0ffff17 	ldw	r3,-4(fp)
     650:	1885883a 	add	r2,r3,r2
     654:	10800003 	ldbu	r2,0(r2)
     658:	10803fcc 	andi	r2,r2,255
     65c:	1080201c 	xori	r2,r2,128
     660:	10bfe004 	addi	r2,r2,-128
     664:	1009883a 	mov	r4,r2
     668:	00006b40 	call	6b4 <char_to_int>
     66c:	e0bffe85 	stb	r2,-6(fp)
	retChecksum =(retChecksum << 4) | temp; // Combines both numbers into one.
     670:	e0bffe47 	ldb	r2,-7(fp)
     674:	1004913a 	slli	r2,r2,4
     678:	1007883a 	mov	r3,r2
     67c:	e0bffe83 	ldbu	r2,-6(fp)
     680:	1884b03a 	or	r2,r3,r2
     684:	e0bffe45 	stb	r2,-7(fp)
	if (calcChecksum == retChecksum) // Compares received and calculated checksum.
     688:	e0fffe07 	ldb	r3,-8(fp)
     68c:	e0bffe47 	ldb	r2,-7(fp)
     690:	1880021e 	bne	r3,r2,69c <dataValid+0x114>
	{
		return 1;
     694:	00800044 	movi	r2,1
     698:	00000106 	br	6a0 <dataValid+0x118>
	}
	else
	{
		return 0;
     69c:	0005883a 	mov	r2,zero
	}
}
     6a0:	e037883a 	mov	sp,fp
     6a4:	dfc00117 	ldw	ra,4(sp)
     6a8:	df000017 	ldw	fp,0(sp)
     6ac:	dec00204 	addi	sp,sp,8
     6b0:	f800283a 	ret

000006b4 <char_to_int>:

Remarks:
	None
***************************************************************************/
int char_to_int(char a)
{
     6b4:	defffa04 	addi	sp,sp,-24
     6b8:	dfc00515 	stw	ra,20(sp)
     6bc:	df000415 	stw	fp,16(sp)
     6c0:	df000404 	addi	fp,sp,16
     6c4:	2005883a 	mov	r2,r4
     6c8:	e0bfff05 	stb	r2,-4(fp)
    int first = a / 16 - 3; // Gets the first number of the character
     6cc:	e0bfff07 	ldb	r2,-4(fp)
     6d0:	1000010e 	bge	r2,zero,6d8 <char_to_int+0x24>
     6d4:	108003c4 	addi	r2,r2,15
     6d8:	1005d13a 	srai	r2,r2,4
     6dc:	10803fcc 	andi	r2,r2,255
     6e0:	1080201c 	xori	r2,r2,128
     6e4:	10bfe004 	addi	r2,r2,-128
     6e8:	10bfff44 	addi	r2,r2,-3
     6ec:	e0bffd15 	stw	r2,-12(fp)
    int second = a % 16; // Gets the second number of the character
     6f0:	e0ffff07 	ldb	r3,-4(fp)
     6f4:	00a00034 	movhi	r2,32768
     6f8:	108003c4 	addi	r2,r2,15
     6fc:	1884703a 	and	r2,r3,r2
     700:	1000040e 	bge	r2,zero,714 <char_to_int+0x60>
     704:	10bfffc4 	addi	r2,r2,-1
     708:	00fffc04 	movi	r3,-16
     70c:	10c4b03a 	or	r2,r2,r3
     710:	10800044 	addi	r2,r2,1
     714:	10803fcc 	andi	r2,r2,255
     718:	1080201c 	xori	r2,r2,128
     71c:	10bfe004 	addi	r2,r2,-128
     720:	e0bffe15 	stw	r2,-8(fp)
    int result = first*10 + second; // Combines numbers
     724:	e13ffd17 	ldw	r4,-12(fp)
     728:	01400284 	movi	r5,10
     72c:	000129c0 	call	129c <__mulsi3>
     730:	1007883a 	mov	r3,r2
     734:	e0bffe17 	ldw	r2,-8(fp)
     738:	1885883a 	add	r2,r3,r2
     73c:	e0bffc15 	stw	r2,-16(fp)
    if(result > 9) result--; // Corrects result for the characters between A and F.
     740:	e0bffc17 	ldw	r2,-16(fp)
     744:	10800290 	cmplti	r2,r2,10
     748:	1000031e 	bne	r2,zero,758 <char_to_int+0xa4>
     74c:	e0bffc17 	ldw	r2,-16(fp)
     750:	10bfffc4 	addi	r2,r2,-1
     754:	e0bffc15 	stw	r2,-16(fp)
    return result;
     758:	e0bffc17 	ldw	r2,-16(fp)
}
     75c:	e037883a 	mov	sp,fp
     760:	dfc00117 	ldw	ra,4(sp)
     764:	df000017 	ldw	fp,0(sp)
     768:	dec00204 	addi	sp,sp,8
     76c:	f800283a 	ret

00000770 <task1>:
OS_EVENT *isr_signal; //timer ISR signal to task 1
OS_EVENT *isr_signal2; //timer ISR signal to task 1

/* Prints "Hello World" and sleeps for three seconds */
void task1(void* pdata)
{
     770:	defff904 	addi	sp,sp,-28
     774:	dfc00615 	stw	ra,24(sp)
     778:	df000515 	stw	fp,20(sp)
     77c:	df000504 	addi	fp,sp,20
     780:	e13fff15 	stw	r4,-4(fp)
	NIOS2_WRITE_STATUS(0);
     784:	0001703a 	wrctl	status,zero
	int sr;
	unsigned char identifier;
	unsigned char data;
	INT8U return_code = OS_NO_ERR;
     788:	e03ffe05 	stb	zero,-8(fp)
	unsigned char res_l, res_h;

	while (1)
	{
	    //wait for UART interrupt to permit execution
	    OSSemPend(isr_signal, 0, &return_code);
     78c:	d0e03117 	ldw	r3,-32572(gp)
     790:	e0bffe04 	addi	r2,fp,-8
     794:	1809883a 	mov	r4,r3
     798:	000b883a 	mov	r5,zero
     79c:	100d883a 	mov	r6,r2
     7a0:	00143000 	call	14300 <OSSemPend>

		sr = IORD_ALTERA_AVALON_UART_STATUS(NEW_ULTRASOUND3_BASE);
     7a4:	00808074 	movhi	r2,513
     7a8:	10a87204 	addi	r2,r2,-24120
     7ac:	10800037 	ldwio	r2,0(r2)
     7b0:	e0bffb15 	stw	r2,-20(fp)

		if(sr & ALTERA_AVALON_UART_STATUS_RRDY_MSK)
     7b4:	e0bffb17 	ldw	r2,-20(fp)
     7b8:	1080200c 	andi	r2,r2,128
     7bc:	10003026 	beq	r2,zero,880 <task1+0x110>
		{
			data = uart_receive_byte(NEW_ULTRASOUND3_BASE);
     7c0:	01008074 	movhi	r4,513
     7c4:	21287004 	addi	r4,r4,-24128
     7c8:	0000fd40 	call	fd4 <uart_receive_byte>
     7cc:	e0bffc05 	stb	r2,-16(fp)
			identifier = uart_receive_byte(NEW_ULTRASOUND3_BASE);
     7d0:	01008074 	movhi	r4,513
     7d4:	21287004 	addi	r4,r4,-24128
     7d8:	0000fd40 	call	fd4 <uart_receive_byte>
     7dc:	e0bffc45 	stb	r2,-15(fp)

			switch (identifier)
     7e0:	e0bffc43 	ldbu	r2,-15(fp)
     7e4:	10c00060 	cmpeqi	r3,r2,1
     7e8:	1800031e 	bne	r3,zero,7f8 <task1+0x88>
     7ec:	108000a0 	cmpeqi	r2,r2,2
     7f0:	10000e1e 	bne	r2,zero,82c <task1+0xbc>
     7f4:	00001a06 	br	860 <task1+0xf0>
			{
				case 1: setSpeedPerc(data-100); uart_send_string("Sp"); break;
     7f8:	e0bffc03 	ldbu	r2,-16(fp)
     7fc:	10bfe704 	addi	r2,r2,-100
     800:	1009883a 	mov	r4,r2
     804:	0002fc80 	call	2fc8 <__floatsidf>
     808:	100b883a 	mov	r5,r2
     80c:	180d883a 	mov	r6,r3
     810:	2809883a 	mov	r4,r5
     814:	300b883a 	mov	r5,r6
     818:	0000c500 	call	c50 <setSpeedPerc>
     81c:	010000b4 	movhi	r4,2
     820:	212aa104 	addi	r4,r4,-21884
     824:	00010340 	call	1034 <uart_send_string>
     828:	00001106 	br	870 <task1+0x100>

				case 2: setSteeringPerc(data-100); uart_send_string("St"); break;
     82c:	e0bffc03 	ldbu	r2,-16(fp)
     830:	10bfe704 	addi	r2,r2,-100
     834:	1009883a 	mov	r4,r2
     838:	0002fc80 	call	2fc8 <__floatsidf>
     83c:	100b883a 	mov	r5,r2
     840:	180d883a 	mov	r6,r3
     844:	2809883a 	mov	r4,r5
     848:	300b883a 	mov	r5,r6
     84c:	0000da00 	call	da0 <setSteeringPerc>
     850:	010000b4 	movhi	r4,2
     854:	212aa204 	addi	r4,r4,-21880
     858:	00010340 	call	1034 <uart_send_string>
     85c:	00000406 	br	870 <task1+0x100>

				default: uart_send_string("Er"); break;
     860:	010000b4 	movhi	r4,2
     864:	212aa304 	addi	r4,r4,-21876
     868:	00010340 	call	1034 <uart_send_string>
     86c:	0001883a 	nop
			}

			IOWR_ALTERA_AVALON_UART_STATUS(NEW_ULTRASOUND3_BASE, 0);
     870:	0007883a 	mov	r3,zero
     874:	00808074 	movhi	r2,513
     878:	10a87204 	addi	r2,r2,-24120
     87c:	10c00035 	stwio	r3,0(r2)
		}

		uart_send_byte(NEW_ULTRASOUND0_BASE, 0xe8);
     880:	01008074 	movhi	r4,513
     884:	21288804 	addi	r4,r4,-24032
     888:	01403a04 	movi	r5,232
     88c:	0000f680 	call	f68 <uart_send_byte>
		//for (i = 0; i < 300; i++);
		uart_send_byte(NEW_ULTRASOUND0_BASE, 0x02);
     890:	01008074 	movhi	r4,513
     894:	21288804 	addi	r4,r4,-24032
     898:	01400084 	movi	r5,2
     89c:	0000f680 	call	f68 <uart_send_byte>
		//for (i = 0; i < 300; i++)
			;
		if (0)
			uart_send_byte(NEW_ULTRASOUND0_BASE, 0xb8);
		else
			uart_send_byte(NEW_ULTRASOUND0_BASE, 0xb0);
     8a0:	01008074 	movhi	r4,513
     8a4:	21288804 	addi	r4,r4,-24032
     8a8:	01402c04 	movi	r5,176
     8ac:	0000f680 	call	f68 <uart_send_byte>
		//for (i = 0; i < 300; i++);
		res_h = uart_receive_byte(NEW_ULTRASOUND0_BASE);
     8b0:	01008074 	movhi	r4,513
     8b4:	21288804 	addi	r4,r4,-24032
     8b8:	0000fd40 	call	fd4 <uart_receive_byte>
     8bc:	e0bffc85 	stb	r2,-14(fp)
		// for (i = 0; i < 100; i++);
		res_l = uart_receive_byte(NEW_ULTRASOUND0_BASE);
     8c0:	01008074 	movhi	r4,513
     8c4:	21288804 	addi	r4,r4,-24032
     8c8:	0000fd40 	call	fd4 <uart_receive_byte>
     8cc:	e0bffcc5 	stb	r2,-13(fp)
		uiDistance1 = (((unsigned int) res_h) << 8) + res_l;
     8d0:	e0bffc83 	ldbu	r2,-14(fp)
     8d4:	1006923a 	slli	r3,r2,8
     8d8:	e0bffcc3 	ldbu	r2,-13(fp)
     8dc:	1885883a 	add	r2,r3,r2
     8e0:	e0bffd15 	stw	r2,-12(fp)

		printf("Dist: %d\n", uiDistance1);
     8e4:	010000b4 	movhi	r4,2
     8e8:	212aa404 	addi	r4,r4,-21872
     8ec:	e17ffd17 	ldw	r5,-12(fp)
     8f0:	00032540 	call	3254 <printf>

		// Enable interrupt
		IOWR_ALTERA_AVALON_UART_CONTROL(NEW_ULTRASOUND3_BASE, ALTERA_AVALON_UART_CONTROL_RRDY_MSK);
     8f4:	00c02004 	movi	r3,128
     8f8:	00808074 	movhi	r2,513
     8fc:	10a87304 	addi	r2,r2,-24116
     900:	10c00035 	stwio	r3,0(r2)
	}
     904:	003fa106 	br	78c <task1+0x1c>

00000908 <task2>:
}

/* Prints "Hello World" and sleeps for three seconds */
void task2(void* pdata)
{
     908:	defffd04 	addi	sp,sp,-12
     90c:	dfc00215 	stw	ra,8(sp)
     910:	df000115 	stw	fp,4(sp)
     914:	df000104 	addi	fp,sp,4
     918:	e13fff15 	stw	r4,-4(fp)

	while (1)
	{
		OSTimeDlyHMSM(0, 0, 6, 0);
     91c:	0009883a 	mov	r4,zero
     920:	000b883a 	mov	r5,zero
     924:	01800184 	movi	r6,6
     928:	000f883a 	mov	r7,zero
     92c:	001642c0 	call	1642c <OSTimeDlyHMSM>
	}
     930:	003ffa06 	br	91c <task2+0x14>

00000934 <task3>:
}

/* Prints "Hello World" and sleeps for three seconds */
void task3(void* pdata)
{
     934:	defffd04 	addi	sp,sp,-12
     938:	dfc00215 	stw	ra,8(sp)
     93c:	df000115 	stw	fp,4(sp)
     940:	df000104 	addi	fp,sp,4
     944:	e13fff15 	stw	r4,-4(fp)
	  while (1)
	  {
		  OSTimeDlyHMSM(0, 0, 6, 0);
     948:	0009883a 	mov	r4,zero
     94c:	000b883a 	mov	r5,zero
     950:	01800184 	movi	r6,6
     954:	000f883a 	mov	r7,zero
     958:	001642c0 	call	1642c <OSTimeDlyHMSM>
	  }
     95c:	003ffa06 	br	948 <task3+0x14>

00000960 <nUART_ISR>:
}

void nUART_ISR(void* nirq_isr_context)
{
     960:	defffd04 	addi	sp,sp,-12
     964:	dfc00215 	stw	ra,8(sp)
     968:	df000115 	stw	fp,4(sp)
     96c:	df000104 	addi	fp,sp,4
     970:	e13fff15 	stw	r4,-4(fp)
	// Disable interrupt
	IOWR_ALTERA_AVALON_UART_CONTROL(NEW_ULTRASOUND3_BASE, 0x00);
     974:	0007883a 	mov	r3,zero
     978:	00808074 	movhi	r2,513
     97c:	10a87304 	addi	r2,r2,-24116
     980:	10c00035 	stwio	r3,0(r2)
	OSSemPost(isr_signal);
     984:	d0a03117 	ldw	r2,-32572(gp)
     988:	1009883a 	mov	r4,r2
     98c:	00146d40 	call	146d4 <OSSemPost>
}
     990:	e037883a 	mov	sp,fp
     994:	dfc00117 	ldw	ra,4(sp)
     998:	df000017 	ldw	fp,0(sp)
     99c:	dec00204 	addi	sp,sp,8
     9a0:	f800283a 	ret

000009a4 <main>:

/* The main function creates two task and starts multi-tasking */
int main(void)
{
     9a4:	defff904 	addi	sp,sp,-28
     9a8:	dfc00615 	stw	ra,24(sp)
     9ac:	df000515 	stw	fp,20(sp)
     9b0:	df000504 	addi	fp,sp,20
	ultrasound_init();
     9b4:	00010d00 	call	10d0 <ultrasound_init>
	communication_init();
     9b8:	00001f40 	call	1f4 <communication_init>

	// Create a semaphore set at zero, so task3 will wait for nUART_ISR
	isr_signal = OSSemCreate(0);
     9bc:	0009883a 	mov	r4,zero
     9c0:	0013f980 	call	13f98 <OSSemCreate>
     9c4:	d0a03115 	stw	r2,-32572(gp)

	alt_ic_isr_register(
     9c8:	d8000015 	stw	zero,0(sp)
     9cc:	0009883a 	mov	r4,zero
     9d0:	01400244 	movi	r5,9
     9d4:	01800034 	movhi	r6,0
     9d8:	31825804 	addi	r6,r6,2400
     9dc:	000f883a 	mov	r7,zero
     9e0:	000df140 	call	df14 <alt_ic_isr_register>
					NEW_ULTRASOUND3_IRQ,
			  nUART_ISR,
			  0x0,
			  0x0);

	printf("Hello on Console!");
     9e4:	010000b4 	movhi	r4,2
     9e8:	212aa704 	addi	r4,r4,-21860
     9ec:	00032540 	call	3254 <printf>
	uart_send_string("Hello over uart!");
     9f0:	010000b4 	movhi	r4,2
     9f4:	212aac04 	addi	r4,r4,-21840
     9f8:	00010340 	call	1034 <uart_send_string>

	OSTaskCreateExt(task1,
     9fc:	00800044 	movi	r2,1
     a00:	d8800015 	stw	r2,0(sp)
     a04:	008000b4 	movhi	r2,2
     a08:	10b42404 	addi	r2,r2,-12144
     a0c:	d8800115 	stw	r2,4(sp)
     a10:	00820004 	movi	r2,2048
     a14:	d8800215 	stw	r2,8(sp)
     a18:	d8000315 	stw	zero,12(sp)
     a1c:	d8000415 	stw	zero,16(sp)
     a20:	01000034 	movhi	r4,0
     a24:	2101dc04 	addi	r4,r4,1904
     a28:	000b883a 	mov	r5,zero
     a2c:	018000b4 	movhi	r6,2
     a30:	31bc2304 	addi	r6,r6,-3956
     a34:	01c00044 	movi	r7,1
     a38:	00150ec0 	call	150ec <OSTaskCreateExt>
                  TASK_STACKSIZE,
                  NULL,
                  0);


	OSTaskCreateExt(task2,
     a3c:	00800084 	movi	r2,2
     a40:	d8800015 	stw	r2,0(sp)
     a44:	008000b4 	movhi	r2,2
     a48:	10bc2404 	addi	r2,r2,-3952
     a4c:	d8800115 	stw	r2,4(sp)
     a50:	00820004 	movi	r2,2048
     a54:	d8800215 	stw	r2,8(sp)
     a58:	d8000315 	stw	zero,12(sp)
     a5c:	d8000415 	stw	zero,16(sp)
     a60:	01000034 	movhi	r4,0
     a64:	21024204 	addi	r4,r4,2312
     a68:	000b883a 	mov	r5,zero
     a6c:	018000b4 	movhi	r6,2
     a70:	31842304 	addi	r6,r6,4236
     a74:	01c00084 	movi	r7,2
     a78:	00150ec0 	call	150ec <OSTaskCreateExt>
                  TASK_STACKSIZE,
                  NULL,
                  0);


	OSTaskCreateExt(task3,
     a7c:	00800144 	movi	r2,5
     a80:	d8800015 	stw	r2,0(sp)
     a84:	008000b4 	movhi	r2,2
     a88:	10842404 	addi	r2,r2,4240
     a8c:	d8800115 	stw	r2,4(sp)
     a90:	00820004 	movi	r2,2048
     a94:	d8800215 	stw	r2,8(sp)
     a98:	d8000315 	stw	zero,12(sp)
     a9c:	d8000415 	stw	zero,16(sp)
     aa0:	01000034 	movhi	r4,0
     aa4:	21024d04 	addi	r4,r4,2356
     aa8:	000b883a 	mov	r5,zero
     aac:	018000b4 	movhi	r6,2
     ab0:	318c2304 	addi	r6,r6,12428
     ab4:	01c00144 	movi	r7,5
     ab8:	00150ec0 	call	150ec <OSTaskCreateExt>
                  task3_stk,
                  TASK_STACKSIZE,
                  NULL,
                  0);

	OSStart();
     abc:	000f7500 	call	f750 <OSStart>
	return 0;
     ac0:	0005883a 	mov	r2,zero
}
     ac4:	e037883a 	mov	sp,fp
     ac8:	dfc00117 	ldw	ra,4(sp)
     acc:	df000017 	ldw	fp,0(sp)
     ad0:	dec00204 	addi	sp,sp,8
     ad4:	f800283a 	ret

00000ad8 <servo_setting>:
  Remarks:
	This function is called by setSteering(int anglePos) 
 **************************************************************************/
void servo_setting(unsigned long phase1, unsigned long duty1,unsigned long phase2, unsigned long duty2,
		unsigned long period,unsigned long enable)
{
     ad8:	defff504 	addi	sp,sp,-44
     adc:	df000a15 	stw	fp,40(sp)
     ae0:	df000a04 	addi	fp,sp,40
     ae4:	e13ffc15 	stw	r4,-16(fp)
     ae8:	e17ffd15 	stw	r5,-12(fp)
     aec:	e1bffe15 	stw	r6,-8(fp)
     af0:	e1ffff15 	stw	r7,-4(fp)
	unsigned long * pwm_en= (unsigned long *)PWM0_EN;
     af4:	00a08074 	movhi	r2,33281
     af8:	10a8b004 	addi	r2,r2,-23872
     afc:	e0bff615 	stw	r2,-40(fp)
	unsigned long * pwm_period=(unsigned long *)PWM0_PERIOD;
     b00:	00a08074 	movhi	r2,33281
     b04:	10a8b104 	addi	r2,r2,-23868
     b08:	e0bff715 	stw	r2,-36(fp)
	unsigned long * pwm_phase1=(unsigned long *)PWM0_PHASE1;
     b0c:	00a08074 	movhi	r2,33281
     b10:	10a8b404 	addi	r2,r2,-23856
     b14:	e0bff815 	stw	r2,-32(fp)
	unsigned long * pwm_phase2=(unsigned long *)PWM0_PHASE2;
     b18:	00a08074 	movhi	r2,33281
     b1c:	10a8b504 	addi	r2,r2,-23852
     b20:	e0bff915 	stw	r2,-28(fp)
	unsigned long * pwm_duty1=(unsigned long *)PWM0_DUTY1;
     b24:	00a08074 	movhi	r2,33281
     b28:	10a8b204 	addi	r2,r2,-23864
     b2c:	e0bffa15 	stw	r2,-24(fp)
	unsigned long * pwm_duty2=(unsigned long *)PWM0_DUTY2;
     b30:	00a08074 	movhi	r2,33281
     b34:	10a8b304 	addi	r2,r2,-23860
     b38:	e0bffb15 	stw	r2,-20(fp)

	* pwm_en=enable;
     b3c:	e0bff617 	ldw	r2,-40(fp)
     b40:	e0c00217 	ldw	r3,8(fp)
     b44:	10c00015 	stw	r3,0(r2)
	* pwm_period=period;
     b48:	e0bff717 	ldw	r2,-36(fp)
     b4c:	e0c00117 	ldw	r3,4(fp)
     b50:	10c00015 	stw	r3,0(r2)
	* pwm_phase1=phase1;
     b54:	e0bff817 	ldw	r2,-32(fp)
     b58:	e0fffc17 	ldw	r3,-16(fp)
     b5c:	10c00015 	stw	r3,0(r2)
	* pwm_phase2=phase2;
     b60:	e0bff917 	ldw	r2,-28(fp)
     b64:	e0fffe17 	ldw	r3,-8(fp)
     b68:	10c00015 	stw	r3,0(r2)
	* pwm_duty1=duty1;
     b6c:	e0bffa17 	ldw	r2,-24(fp)
     b70:	e0fffd17 	ldw	r3,-12(fp)
     b74:	10c00015 	stw	r3,0(r2)
	* pwm_duty2=duty2;
     b78:	e0bffb17 	ldw	r2,-20(fp)
     b7c:	e0ffff17 	ldw	r3,-4(fp)
     b80:	10c00015 	stw	r3,0(r2)

}
     b84:	e037883a 	mov	sp,fp
     b88:	df000017 	ldw	fp,0(sp)
     b8c:	dec00104 	addi	sp,sp,4
     b90:	f800283a 	ret

00000b94 <motor_setting>:
  Remarks:
	This function is called by setSpeedPerc(float percentage)
 **************************************************************************/
void motor_setting(unsigned long phase1, unsigned long duty1,unsigned long phase2, unsigned long duty2,
		unsigned long period,unsigned long enable)
{
     b94:	defff504 	addi	sp,sp,-44
     b98:	df000a15 	stw	fp,40(sp)
     b9c:	df000a04 	addi	fp,sp,40
     ba0:	e13ffc15 	stw	r4,-16(fp)
     ba4:	e17ffd15 	stw	r5,-12(fp)
     ba8:	e1bffe15 	stw	r6,-8(fp)
     bac:	e1ffff15 	stw	r7,-4(fp)
	unsigned long * pwm_en= (unsigned long *)PWM1_EN;
     bb0:	00a08074 	movhi	r2,33281
     bb4:	10a8a804 	addi	r2,r2,-23904
     bb8:	e0bff615 	stw	r2,-40(fp)
	unsigned long * pwm_period=(unsigned long *)PWM1_PERIOD;
     bbc:	00a08074 	movhi	r2,33281
     bc0:	10a8a904 	addi	r2,r2,-23900
     bc4:	e0bff715 	stw	r2,-36(fp)
	unsigned long * pwm_phase1=(unsigned long *)PWM1_PHASE1;
     bc8:	00a08074 	movhi	r2,33281
     bcc:	10a8ac04 	addi	r2,r2,-23888
     bd0:	e0bff815 	stw	r2,-32(fp)
	unsigned long * pwm_phase2=(unsigned long *)PWM1_PHASE2;
     bd4:	00a08074 	movhi	r2,33281
     bd8:	10a8ad04 	addi	r2,r2,-23884
     bdc:	e0bff915 	stw	r2,-28(fp)
	unsigned long * pwm_duty1=(unsigned long *)PWM1_DUTY1;
     be0:	00a08074 	movhi	r2,33281
     be4:	10a8aa04 	addi	r2,r2,-23896
     be8:	e0bffa15 	stw	r2,-24(fp)
	unsigned long * pwm_duty2=(unsigned long *)PWM1_DUTY2;
     bec:	00a08074 	movhi	r2,33281
     bf0:	10a8ab04 	addi	r2,r2,-23892
     bf4:	e0bffb15 	stw	r2,-20(fp)

	* pwm_en=enable;
     bf8:	e0bff617 	ldw	r2,-40(fp)
     bfc:	e0c00217 	ldw	r3,8(fp)
     c00:	10c00015 	stw	r3,0(r2)
	* pwm_period=period;
     c04:	e0bff717 	ldw	r2,-36(fp)
     c08:	e0c00117 	ldw	r3,4(fp)
     c0c:	10c00015 	stw	r3,0(r2)
	* pwm_phase1=phase1;
     c10:	e0bff817 	ldw	r2,-32(fp)
     c14:	e0fffc17 	ldw	r3,-16(fp)
     c18:	10c00015 	stw	r3,0(r2)
	* pwm_phase2=phase2;
     c1c:	e0bff917 	ldw	r2,-28(fp)
     c20:	e0fffe17 	ldw	r3,-8(fp)
     c24:	10c00015 	stw	r3,0(r2)
	* pwm_duty1=duty1;
     c28:	e0bffa17 	ldw	r2,-24(fp)
     c2c:	e0fffd17 	ldw	r3,-12(fp)
     c30:	10c00015 	stw	r3,0(r2)
	* pwm_duty2=duty2;
     c34:	e0bffb17 	ldw	r2,-20(fp)
     c38:	e0ffff17 	ldw	r3,-4(fp)
     c3c:	10c00015 	stw	r3,0(r2)

}
     c40:	e037883a 	mov	sp,fp
     c44:	df000017 	ldw	fp,0(sp)
     c48:	dec00104 	addi	sp,sp,4
     c4c:	f800283a 	ret

00000c50 <setSpeedPerc>:

  Remarks:
    None
  ***************************************************************************/
void setSpeedPerc(double percentage)
{
     c50:	defff804 	addi	sp,sp,-32
     c54:	dfc00715 	stw	ra,28(sp)
     c58:	df000615 	stw	fp,24(sp)
     c5c:	df000604 	addi	fp,sp,24
     c60:	e13ffe15 	stw	r4,-8(fp)
     c64:	e17fff15 	stw	r5,-4(fp)
	const unsigned long steady = 75e3;
     c68:	00800074 	movhi	r2,1
     c6c:	10893e04 	addi	r2,r2,9464
     c70:	e0bffc15 	stw	r2,-16(fp)
	unsigned long dutyadd;




	if (percentage > 100)
     c74:	e13ffe17 	ldw	r4,-8(fp)
     c78:	e17fff17 	ldw	r5,-4(fp)
     c7c:	000d883a 	mov	r6,zero
     c80:	01d01674 	movhi	r7,16473
     c84:	0001c440 	call	1c44 <__gedf2>
     c88:	0080040e 	bge	zero,r2,c9c <setSpeedPerc+0x4c>
	{
		percentage = 100;
     c8c:	e03ffe15 	stw	zero,-8(fp)
     c90:	00901674 	movhi	r2,16473
     c94:	e0bfff15 	stw	r2,-4(fp)
     c98:	00001806 	br	cfc <setSpeedPerc+0xac>
	} else if (percentage<7 && percentage>-25){
     c9c:	e13ffe17 	ldw	r4,-8(fp)
     ca0:	e17fff17 	ldw	r5,-4(fp)
     ca4:	000d883a 	mov	r6,zero
     ca8:	01d00734 	movhi	r7,16412
     cac:	0001d240 	call	1d24 <__ledf2>
     cb0:	1000090e 	bge	r2,zero,cd8 <setSpeedPerc+0x88>
     cb4:	e13ffe17 	ldw	r4,-8(fp)
     cb8:	e17fff17 	ldw	r5,-4(fp)
     cbc:	000d883a 	mov	r6,zero
     cc0:	01f00e74 	movhi	r7,49209
     cc4:	0001c440 	call	1c44 <__gedf2>
     cc8:	0080030e 	bge	zero,r2,cd8 <setSpeedPerc+0x88>
		// apply no signal between -25 and +7 because is to less torque to move the wheels
		percentage=0;
     ccc:	e03ffe15 	stw	zero,-8(fp)
     cd0:	e03fff15 	stw	zero,-4(fp)
     cd4:	00000906 	br	cfc <setSpeedPerc+0xac>
	} else if (percentage < -100)
     cd8:	e13ffe17 	ldw	r4,-8(fp)
     cdc:	e17fff17 	ldw	r5,-4(fp)
     ce0:	000d883a 	mov	r6,zero
     ce4:	01f01674 	movhi	r7,49241
     ce8:	0001d240 	call	1d24 <__ledf2>
     cec:	1000030e 	bge	r2,zero,cfc <setSpeedPerc+0xac>
	{
		percentage = -100;
     cf0:	e03ffe15 	stw	zero,-8(fp)
     cf4:	00b01674 	movhi	r2,49241
     cf8:	e0bfff15 	stw	r2,-4(fp)
	}

	// add between -25000 to +25000
	dutyadd = percentage*25000/100;
     cfc:	e13ffe17 	ldw	r4,-8(fp)
     d00:	e17fff17 	ldw	r5,-4(fp)
     d04:	000d883a 	mov	r6,zero
     d08:	01d03634 	movhi	r7,16600
     d0c:	39da8004 	addi	r7,r7,27136
     d10:	0001e040 	call	1e04 <__muldf3>
     d14:	1009883a 	mov	r4,r2
     d18:	180b883a 	mov	r5,r3
     d1c:	2005883a 	mov	r2,r4
     d20:	2807883a 	mov	r3,r5
     d24:	1009883a 	mov	r4,r2
     d28:	180b883a 	mov	r5,r3
     d2c:	000d883a 	mov	r6,zero
     d30:	01d01674 	movhi	r7,16473
     d34:	00012c40 	call	12c4 <__divdf3>
     d38:	1009883a 	mov	r4,r2
     d3c:	180b883a 	mov	r5,r3
     d40:	2005883a 	mov	r2,r4
     d44:	2807883a 	mov	r3,r5
     d48:	1009883a 	mov	r4,r2
     d4c:	180b883a 	mov	r5,r3
     d50:	00012280 	call	1228 <__fixunsdfsi>
     d54:	e0bffd15 	stw	r2,-12(fp)

	//printf("motor_setting %lu, perc=%f\n",steady+dutyadd,percentage);
	motor_setting(0, steady+dutyadd, 0, 0, 1e6, 1);
     d58:	e0fffc17 	ldw	r3,-16(fp)
     d5c:	e0bffd17 	ldw	r2,-12(fp)
     d60:	1887883a 	add	r3,r3,r2
     d64:	008003f4 	movhi	r2,15
     d68:	10909004 	addi	r2,r2,16960
     d6c:	d8800015 	stw	r2,0(sp)
     d70:	00800044 	movi	r2,1
     d74:	d8800115 	stw	r2,4(sp)
     d78:	0009883a 	mov	r4,zero
     d7c:	180b883a 	mov	r5,r3
     d80:	000d883a 	mov	r6,zero
     d84:	000f883a 	mov	r7,zero
     d88:	0000b940 	call	b94 <motor_setting>
}
     d8c:	e037883a 	mov	sp,fp
     d90:	dfc00117 	ldw	ra,4(sp)
     d94:	df000017 	ldw	fp,0(sp)
     d98:	dec00204 	addi	sp,sp,8
     d9c:	f800283a 	ret

00000da0 <setSteeringPerc>:

  Remarks:
    None
  ***************************************************************************/
void setSteeringPerc(double percentage)
{
     da0:	defff804 	addi	sp,sp,-32
     da4:	dfc00715 	stw	ra,28(sp)
     da8:	df000615 	stw	fp,24(sp)
     dac:	df000604 	addi	fp,sp,24
     db0:	e13ffe15 	stw	r4,-8(fp)
     db4:	e17fff15 	stw	r5,-4(fp)
	const unsigned long steady = 75000;
     db8:	00800074 	movhi	r2,1
     dbc:	10893e04 	addi	r2,r2,9464
     dc0:	e0bffc15 	stw	r2,-16(fp)
	unsigned long dutyadd;

	if (percentage > 100)
     dc4:	e13ffe17 	ldw	r4,-8(fp)
     dc8:	e17fff17 	ldw	r5,-4(fp)
     dcc:	000d883a 	mov	r6,zero
     dd0:	01d01674 	movhi	r7,16473
     dd4:	0001c440 	call	1c44 <__gedf2>
     dd8:	0080040e 	bge	zero,r2,dec <setSteeringPerc+0x4c>
	{
		percentage = 100;
     ddc:	e03ffe15 	stw	zero,-8(fp)
     de0:	00901674 	movhi	r2,16473
     de4:	e0bfff15 	stw	r2,-4(fp)
     de8:	00000906 	br	e10 <setSteeringPerc+0x70>
	}
	else if (percentage < -100)
     dec:	e13ffe17 	ldw	r4,-8(fp)
     df0:	e17fff17 	ldw	r5,-4(fp)
     df4:	000d883a 	mov	r6,zero
     df8:	01f01674 	movhi	r7,49241
     dfc:	0001d240 	call	1d24 <__ledf2>
     e00:	1000030e 	bge	r2,zero,e10 <setSteeringPerc+0x70>
	{
		percentage = -100;
     e04:	e03ffe15 	stw	zero,-8(fp)
     e08:	00b01674 	movhi	r2,49241
     e0c:	e0bfff15 	stw	r2,-4(fp)
	}

	// add between -20000 to +20000
	dutyadd = percentage*20000/100;
     e10:	e13ffe17 	ldw	r4,-8(fp)
     e14:	e17fff17 	ldw	r5,-4(fp)
     e18:	000d883a 	mov	r6,zero
     e1c:	01d03534 	movhi	r7,16596
     e20:	39e20004 	addi	r7,r7,-30720
     e24:	0001e040 	call	1e04 <__muldf3>
     e28:	1009883a 	mov	r4,r2
     e2c:	180b883a 	mov	r5,r3
     e30:	2005883a 	mov	r2,r4
     e34:	2807883a 	mov	r3,r5
     e38:	1009883a 	mov	r4,r2
     e3c:	180b883a 	mov	r5,r3
     e40:	000d883a 	mov	r6,zero
     e44:	01d01674 	movhi	r7,16473
     e48:	00012c40 	call	12c4 <__divdf3>
     e4c:	1009883a 	mov	r4,r2
     e50:	180b883a 	mov	r5,r3
     e54:	2005883a 	mov	r2,r4
     e58:	2807883a 	mov	r3,r5
     e5c:	1009883a 	mov	r4,r2
     e60:	180b883a 	mov	r5,r3
     e64:	00012280 	call	1228 <__fixunsdfsi>
     e68:	e0bffd15 	stw	r2,-12(fp)
//	printf("servo_setting %lu, perc=%f\n",steady+dutyadd,percentage);
	servo_setting(0, steady+dutyadd, 0, 0, 1e6, 1);
     e6c:	e0fffc17 	ldw	r3,-16(fp)
     e70:	e0bffd17 	ldw	r2,-12(fp)
     e74:	1887883a 	add	r3,r3,r2
     e78:	008003f4 	movhi	r2,15
     e7c:	10909004 	addi	r2,r2,16960
     e80:	d8800015 	stw	r2,0(sp)
     e84:	00800044 	movi	r2,1
     e88:	d8800115 	stw	r2,4(sp)
     e8c:	0009883a 	mov	r4,zero
     e90:	180b883a 	mov	r5,r3
     e94:	000d883a 	mov	r6,zero
     e98:	000f883a 	mov	r7,zero
     e9c:	0000ad80 	call	ad8 <servo_setting>
}
     ea0:	e037883a 	mov	sp,fp
     ea4:	dfc00117 	ldw	ra,4(sp)
     ea8:	df000017 	ldw	fp,0(sp)
     eac:	dec00204 	addi	sp,sp,8
     eb0:	f800283a 	ret

00000eb4 <setSteering>:

  Remarks:
    None
  ***************************************************************************/
void setSteering(double angle)
{
     eb4:	defffa04 	addi	sp,sp,-24
     eb8:	dfc00515 	stw	ra,20(sp)
     ebc:	df000415 	stw	fp,16(sp)
     ec0:	df000404 	addi	fp,sp,16
     ec4:	e13ffe15 	stw	r4,-8(fp)
     ec8:	e17fff15 	stw	r5,-4(fp)
	const double maxangle = 17;
     ecc:	e03ffc15 	stw	zero,-16(fp)
     ed0:	00900c74 	movhi	r2,16433
     ed4:	e0bffd15 	stw	r2,-12(fp)
    setSteeringPerc(angle/maxangle);
     ed8:	e13ffe17 	ldw	r4,-8(fp)
     edc:	e17fff17 	ldw	r5,-4(fp)
     ee0:	e1bffc17 	ldw	r6,-16(fp)
     ee4:	e1fffd17 	ldw	r7,-12(fp)
     ee8:	00012c40 	call	12c4 <__divdf3>
     eec:	1009883a 	mov	r4,r2
     ef0:	180b883a 	mov	r5,r3
     ef4:	2005883a 	mov	r2,r4
     ef8:	2807883a 	mov	r3,r5
     efc:	1009883a 	mov	r4,r2
     f00:	180b883a 	mov	r5,r3
     f04:	0000da00 	call	da0 <setSteeringPerc>
}
     f08:	e037883a 	mov	sp,fp
     f0c:	dfc00117 	ldw	ra,4(sp)
     f10:	df000017 	ldw	fp,0(sp)
     f14:	dec00204 	addi	sp,sp,8
     f18:	f800283a 	ret

00000f1c <uart_init>:

  Remarks:
    None
  ***************************************************************************/
void uart_init(long Address, unsigned char flag)
{
     f1c:	defffd04 	addi	sp,sp,-12
     f20:	df000215 	stw	fp,8(sp)
     f24:	df000204 	addi	fp,sp,8
     f28:	e13ffe15 	stw	r4,-8(fp)
     f2c:	2805883a 	mov	r2,r5
     f30:	e0bfff05 	stb	r2,-4(fp)
	IOWR_ALTERA_AVALON_UART_CONTROL(Address, flag);
     f34:	e0bffe17 	ldw	r2,-8(fp)
     f38:	10800304 	addi	r2,r2,12
     f3c:	1007883a 	mov	r3,r2
     f40:	e0bfff03 	ldbu	r2,-4(fp)
     f44:	18800035 	stwio	r2,0(r3)
    IOWR_ALTERA_AVALON_UART_STATUS(Address, 0x00);
     f48:	e0bffe17 	ldw	r2,-8(fp)
     f4c:	10800204 	addi	r2,r2,8
     f50:	0007883a 	mov	r3,zero
     f54:	10c00035 	stwio	r3,0(r2)
}
     f58:	e037883a 	mov	sp,fp
     f5c:	df000017 	ldw	fp,0(sp)
     f60:	dec00104 	addi	sp,sp,4
     f64:	f800283a 	ret

00000f68 <uart_send_byte>:

  Remarks:
    None
  ***************************************************************************/
void uart_send_byte(long Address, unsigned char data)
{
     f68:	defffc04 	addi	sp,sp,-16
     f6c:	df000315 	stw	fp,12(sp)
     f70:	df000304 	addi	fp,sp,12
     f74:	e13ffe15 	stw	r4,-8(fp)
     f78:	2805883a 	mov	r2,r5
     f7c:	e0bfff05 	stb	r2,-4(fp)
	unsigned int status;
    IOWR_ALTERA_AVALON_UART_TXDATA(Address,data);
     f80:	e0bffe17 	ldw	r2,-8(fp)
     f84:	10800104 	addi	r2,r2,4
     f88:	1007883a 	mov	r3,r2
     f8c:	e0bfff03 	ldbu	r2,-4(fp)
     f90:	18800035 	stwio	r2,0(r3)
    status=IORD_ALTERA_AVALON_UART_STATUS(Address);
     f94:	e0bffe17 	ldw	r2,-8(fp)
     f98:	10800204 	addi	r2,r2,8
     f9c:	10800037 	ldwio	r2,0(r2)
     fa0:	e0bffd15 	stw	r2,-12(fp)
    while(!(status&0x0040))
     fa4:	00000406 	br	fb8 <uart_send_byte+0x50>
    {
    	status=IORD_ALTERA_AVALON_UART_STATUS(Address);
     fa8:	e0bffe17 	ldw	r2,-8(fp)
     fac:	10800204 	addi	r2,r2,8
     fb0:	10800037 	ldwio	r2,0(r2)
     fb4:	e0bffd15 	stw	r2,-12(fp)
void uart_send_byte(long Address, unsigned char data)
{
	unsigned int status;
    IOWR_ALTERA_AVALON_UART_TXDATA(Address,data);
    status=IORD_ALTERA_AVALON_UART_STATUS(Address);
    while(!(status&0x0040))
     fb8:	e0bffd17 	ldw	r2,-12(fp)
     fbc:	1080100c 	andi	r2,r2,64
     fc0:	103ff926 	beq	r2,zero,fa8 <uart_send_byte+0x40>
    {
    	status=IORD_ALTERA_AVALON_UART_STATUS(Address);
    }
}
     fc4:	e037883a 	mov	sp,fp
     fc8:	df000017 	ldw	fp,0(sp)
     fcc:	dec00104 	addi	sp,sp,4
     fd0:	f800283a 	ret

00000fd4 <uart_receive_byte>:

  Remarks:
    None
  ***************************************************************************/
unsigned char uart_receive_byte(long Address)
{
     fd4:	defffc04 	addi	sp,sp,-16
     fd8:	df000315 	stw	fp,12(sp)
     fdc:	df000304 	addi	fp,sp,12
     fe0:	e13fff15 	stw	r4,-4(fp)
	unsigned int  status;
	unsigned char res;
    status=IORD_ALTERA_AVALON_UART_STATUS(Address);
     fe4:	e0bfff17 	ldw	r2,-4(fp)
     fe8:	10800204 	addi	r2,r2,8
     fec:	10800037 	ldwio	r2,0(r2)
     ff0:	e0bffd15 	stw	r2,-12(fp)
    while(!(status&0x0080))
     ff4:	00000406 	br	1008 <uart_receive_byte+0x34>
    {
    	status=IORD_ALTERA_AVALON_UART_STATUS(Address);
     ff8:	e0bfff17 	ldw	r2,-4(fp)
     ffc:	10800204 	addi	r2,r2,8
    1000:	10800037 	ldwio	r2,0(r2)
    1004:	e0bffd15 	stw	r2,-12(fp)
unsigned char uart_receive_byte(long Address)
{
	unsigned int  status;
	unsigned char res;
    status=IORD_ALTERA_AVALON_UART_STATUS(Address);
    while(!(status&0x0080))
    1008:	e0bffd17 	ldw	r2,-12(fp)
    100c:	1080200c 	andi	r2,r2,128
    1010:	103ff926 	beq	r2,zero,ff8 <uart_receive_byte+0x24>
    {
    	status=IORD_ALTERA_AVALON_UART_STATUS(Address);
    }
    res=IORD_ALTERA_AVALON_UART_RXDATA(Address);
    1014:	e0bfff17 	ldw	r2,-4(fp)
    1018:	10800037 	ldwio	r2,0(r2)
    101c:	e0bffe05 	stb	r2,-8(fp)
    return res;
    1020:	e0bffe03 	ldbu	r2,-8(fp)
}
    1024:	e037883a 	mov	sp,fp
    1028:	df000017 	ldw	fp,0(sp)
    102c:	dec00104 	addi	sp,sp,4
    1030:	f800283a 	ret

00001034 <uart_send_string>:

void uart_send_string(char *sendString)
{
    1034:	defffc04 	addi	sp,sp,-16
    1038:	dfc00315 	stw	ra,12(sp)
    103c:	df000215 	stw	fp,8(sp)
    1040:	df000204 	addi	fp,sp,8
    1044:	e13fff15 	stw	r4,-4(fp)
	int length = 0;
    1048:	e03ffe15 	stw	zero,-8(fp)
	while ((sendString[length] != '\0') && (length < 100))
    104c:	00000c06 	br	1080 <uart_send_string+0x4c>
	{
		uart_send_byte(NEW_ULTRASOUND3_BASE, sendString[length]);
    1050:	e0bffe17 	ldw	r2,-8(fp)
    1054:	e0ffff17 	ldw	r3,-4(fp)
    1058:	1885883a 	add	r2,r3,r2
    105c:	10800003 	ldbu	r2,0(r2)
    1060:	10803fcc 	andi	r2,r2,255
    1064:	01008074 	movhi	r4,513
    1068:	21287004 	addi	r4,r4,-24128
    106c:	100b883a 	mov	r5,r2
    1070:	0000f680 	call	f68 <uart_send_byte>
		length++;
    1074:	e0bffe17 	ldw	r2,-8(fp)
    1078:	10800044 	addi	r2,r2,1
    107c:	e0bffe15 	stw	r2,-8(fp)
}

void uart_send_string(char *sendString)
{
	int length = 0;
	while ((sendString[length] != '\0') && (length < 100))
    1080:	e0bffe17 	ldw	r2,-8(fp)
    1084:	e0ffff17 	ldw	r3,-4(fp)
    1088:	1885883a 	add	r2,r3,r2
    108c:	10800003 	ldbu	r2,0(r2)
    1090:	10803fcc 	andi	r2,r2,255
    1094:	1080201c 	xori	r2,r2,128
    1098:	10bfe004 	addi	r2,r2,-128
    109c:	10000326 	beq	r2,zero,10ac <uart_send_string+0x78>
    10a0:	e0bffe17 	ldw	r2,-8(fp)
    10a4:	10801910 	cmplti	r2,r2,100
    10a8:	103fe91e 	bne	r2,zero,1050 <uart_send_string+0x1c>
	{
		uart_send_byte(NEW_ULTRASOUND3_BASE, sendString[length]);
		length++;
	}
	uart_send_byte(NEW_ULTRASOUND3_BASE, 0x00);
    10ac:	01008074 	movhi	r4,513
    10b0:	21287004 	addi	r4,r4,-24128
    10b4:	000b883a 	mov	r5,zero
    10b8:	0000f680 	call	f68 <uart_send_byte>
}
    10bc:	e037883a 	mov	sp,fp
    10c0:	dfc00117 	ldw	ra,4(sp)
    10c4:	df000017 	ldw	fp,0(sp)
    10c8:	dec00204 	addi	sp,sp,8
    10cc:	f800283a 	ret

000010d0 <ultrasound_init>:

  Remarks:
    None
  ***************************************************************************/
void ultrasound_init()
{
    10d0:	defffe04 	addi	sp,sp,-8
    10d4:	dfc00115 	stw	ra,4(sp)
    10d8:	df000015 	stw	fp,0(sp)
    10dc:	d839883a 	mov	fp,sp
	uart_init(NEW_ULTRASOUND0_BASE, 0x00);
    10e0:	01008074 	movhi	r4,513
    10e4:	21288804 	addi	r4,r4,-24032
    10e8:	000b883a 	mov	r5,zero
    10ec:	0000f1c0 	call	f1c <uart_init>
	uart_init(NEW_ULTRASOUND1_BASE, 0x00);
    10f0:	01008074 	movhi	r4,513
    10f4:	21288004 	addi	r4,r4,-24064
    10f8:	000b883a 	mov	r5,zero
    10fc:	0000f1c0 	call	f1c <uart_init>
}
    1100:	e037883a 	mov	sp,fp
    1104:	dfc00117 	ldw	ra,4(sp)
    1108:	df000017 	ldw	fp,0(sp)
    110c:	dec00204 	addi	sp,sp,8
    1110:	f800283a 	ret

00001114 <ultrasound_read>:

  Remarks:
    Distance in meter
  ***************************************************************************/
unsigned int ultrasound_read(long Address, unsigned char settings) 
{
    1114:	defffa04 	addi	sp,sp,-24
    1118:	dfc00515 	stw	ra,20(sp)
    111c:	df000415 	stw	fp,16(sp)
    1120:	df000404 	addi	fp,sp,16
    1124:	e13ffe15 	stw	r4,-8(fp)
    1128:	2805883a 	mov	r2,r5
    112c:	e0bfff05 	stb	r2,-4(fp)
	unsigned int i;
	unsigned char res_l, res_h;
	uart_send_byte(Address, 0xe8);
    1130:	e13ffe17 	ldw	r4,-8(fp)
    1134:	01403a04 	movi	r5,232
    1138:	0000f680 	call	f68 <uart_send_byte>
	for (i = 0; i < 300; i++);
    113c:	e03ffc15 	stw	zero,-16(fp)
    1140:	00000306 	br	1150 <ultrasound_read+0x3c>
    1144:	e0bffc17 	ldw	r2,-16(fp)
    1148:	10800044 	addi	r2,r2,1
    114c:	e0bffc15 	stw	r2,-16(fp)
    1150:	e0bffc17 	ldw	r2,-16(fp)
    1154:	10804b30 	cmpltui	r2,r2,300
    1158:	103ffa1e 	bne	r2,zero,1144 <ultrasound_read+0x30>
	uart_send_byte(Address, 0x02);
    115c:	e13ffe17 	ldw	r4,-8(fp)
    1160:	01400084 	movi	r5,2
    1164:	0000f680 	call	f68 <uart_send_byte>
	for (i = 0; i < 300; i++);
    1168:	e03ffc15 	stw	zero,-16(fp)
    116c:	00000306 	br	117c <ultrasound_read+0x68>
    1170:	e0bffc17 	ldw	r2,-16(fp)
    1174:	10800044 	addi	r2,r2,1
    1178:	e0bffc15 	stw	r2,-16(fp)
    117c:	e0bffc17 	ldw	r2,-16(fp)
    1180:	10804b30 	cmpltui	r2,r2,300
    1184:	103ffa1e 	bne	r2,zero,1170 <ultrasound_read+0x5c>
	if (settings)
    1188:	e0bfff03 	ldbu	r2,-4(fp)
    118c:	10000426 	beq	r2,zero,11a0 <ultrasound_read+0x8c>
		uart_send_byte(Address, 0xb8); 
    1190:	e13ffe17 	ldw	r4,-8(fp)
    1194:	01402e04 	movi	r5,184
    1198:	0000f680 	call	f68 <uart_send_byte>
    119c:	00000306 	br	11ac <ultrasound_read+0x98>
	else
		uart_send_byte(Address, 0xb0); 
    11a0:	e13ffe17 	ldw	r4,-8(fp)
    11a4:	01402c04 	movi	r5,176
    11a8:	0000f680 	call	f68 <uart_send_byte>
	for (i = 0; i < 300; i++);
    11ac:	e03ffc15 	stw	zero,-16(fp)
    11b0:	00000306 	br	11c0 <ultrasound_read+0xac>
    11b4:	e0bffc17 	ldw	r2,-16(fp)
    11b8:	10800044 	addi	r2,r2,1
    11bc:	e0bffc15 	stw	r2,-16(fp)
    11c0:	e0bffc17 	ldw	r2,-16(fp)
    11c4:	10804b30 	cmpltui	r2,r2,300
    11c8:	103ffa1e 	bne	r2,zero,11b4 <ultrasound_read+0xa0>
	res_h = uart_receive_byte(Address);
    11cc:	e13ffe17 	ldw	r4,-8(fp)
    11d0:	0000fd40 	call	fd4 <uart_receive_byte>
    11d4:	e0bffd05 	stb	r2,-12(fp)
	for (i = 0; i < 300; i++);
    11d8:	e03ffc15 	stw	zero,-16(fp)
    11dc:	00000306 	br	11ec <ultrasound_read+0xd8>
    11e0:	e0bffc17 	ldw	r2,-16(fp)
    11e4:	10800044 	addi	r2,r2,1
    11e8:	e0bffc15 	stw	r2,-16(fp)
    11ec:	e0bffc17 	ldw	r2,-16(fp)
    11f0:	10804b30 	cmpltui	r2,r2,300
    11f4:	103ffa1e 	bne	r2,zero,11e0 <ultrasound_read+0xcc>
	res_l = uart_receive_byte(Address);
    11f8:	e13ffe17 	ldw	r4,-8(fp)
    11fc:	0000fd40 	call	fd4 <uart_receive_byte>
    1200:	e0bffd45 	stb	r2,-11(fp)
	return (((unsigned int) res_h) << 8) + res_l; 
    1204:	e0bffd03 	ldbu	r2,-12(fp)
    1208:	1006923a 	slli	r3,r2,8
    120c:	e0bffd43 	ldbu	r2,-11(fp)
    1210:	1885883a 	add	r2,r3,r2
}
    1214:	e037883a 	mov	sp,fp
    1218:	dfc00117 	ldw	ra,4(sp)
    121c:	df000017 	ldw	fp,0(sp)
    1220:	dec00204 	addi	sp,sp,8
    1224:	f800283a 	ret

00001228 <__fixunsdfsi>:
    1228:	defffd04 	addi	sp,sp,-12
    122c:	000d883a 	mov	r6,zero
    1230:	01d07834 	movhi	r7,16864
    1234:	dc400115 	stw	r17,4(sp)
    1238:	dc000015 	stw	r16,0(sp)
    123c:	dfc00215 	stw	ra,8(sp)
    1240:	2023883a 	mov	r17,r4
    1244:	2821883a 	mov	r16,r5
    1248:	0001c440 	call	1c44 <__gedf2>
    124c:	1000080e 	bge	r2,zero,1270 <__fixunsdfsi+0x48>
    1250:	8809883a 	mov	r4,r17
    1254:	800b883a 	mov	r5,r16
    1258:	0002f400 	call	2f40 <__fixdfsi>
    125c:	dfc00217 	ldw	ra,8(sp)
    1260:	dc400117 	ldw	r17,4(sp)
    1264:	dc000017 	ldw	r16,0(sp)
    1268:	dec00304 	addi	sp,sp,12
    126c:	f800283a 	ret
    1270:	000d883a 	mov	r6,zero
    1274:	01d07834 	movhi	r7,16864
    1278:	8809883a 	mov	r4,r17
    127c:	800b883a 	mov	r5,r16
    1280:	00026700 	call	2670 <__subdf3>
    1284:	180b883a 	mov	r5,r3
    1288:	1009883a 	mov	r4,r2
    128c:	0002f400 	call	2f40 <__fixdfsi>
    1290:	00e00034 	movhi	r3,32768
    1294:	10c5883a 	add	r2,r2,r3
    1298:	003ff006 	br	125c <__fixunsdfsi+0x34>

0000129c <__mulsi3>:
    129c:	0005883a 	mov	r2,zero
    12a0:	20000726 	beq	r4,zero,12c0 <__mulsi3+0x24>
    12a4:	20c0004c 	andi	r3,r4,1
    12a8:	2008d07a 	srli	r4,r4,1
    12ac:	18000126 	beq	r3,zero,12b4 <__mulsi3+0x18>
    12b0:	1145883a 	add	r2,r2,r5
    12b4:	294b883a 	add	r5,r5,r5
    12b8:	203ffa1e 	bne	r4,zero,12a4 <__mulsi3+0x8>
    12bc:	f800283a 	ret
    12c0:	f800283a 	ret

000012c4 <__divdf3>:
    12c4:	defff004 	addi	sp,sp,-64
    12c8:	dc800815 	stw	r18,32(sp)
    12cc:	2824d53a 	srli	r18,r5,20
    12d0:	dd800c15 	stw	r22,48(sp)
    12d4:	282cd7fa 	srli	r22,r5,31
    12d8:	dc000615 	stw	r16,24(sp)
    12dc:	04000434 	movhi	r16,16
    12e0:	df000e15 	stw	fp,56(sp)
    12e4:	dd000a15 	stw	r20,40(sp)
    12e8:	dcc00915 	stw	r19,36(sp)
    12ec:	dc400715 	stw	r17,28(sp)
    12f0:	843fffc4 	addi	r16,r16,-1
    12f4:	dfc00f15 	stw	ra,60(sp)
    12f8:	ddc00d15 	stw	r23,52(sp)
    12fc:	dd400b15 	stw	r21,44(sp)
    1300:	9481ffcc 	andi	r18,r18,2047
    1304:	2029883a 	mov	r20,r4
    1308:	2027883a 	mov	r19,r4
    130c:	2c22703a 	and	r17,r5,r16
    1310:	b7003fcc 	andi	fp,r22,255
    1314:	90005e26 	beq	r18,zero,1490 <__divdf3+0x1cc>
    1318:	0081ffc4 	movi	r2,2047
    131c:	90803526 	beq	r18,r2,13f4 <__divdf3+0x130>
    1320:	8c000434 	orhi	r16,r17,16
    1324:	2004d77a 	srli	r2,r4,29
    1328:	802090fa 	slli	r16,r16,3
    132c:	202690fa 	slli	r19,r4,3
    1330:	94bf0044 	addi	r18,r18,-1023
    1334:	80a2b03a 	or	r17,r16,r2
    1338:	0029883a 	mov	r20,zero
    133c:	0011883a 	mov	r8,zero
    1340:	380ad53a 	srli	r5,r7,20
    1344:	382ed7fa 	srli	r23,r7,31
    1348:	04000434 	movhi	r16,16
    134c:	843fffc4 	addi	r16,r16,-1
    1350:	2941ffcc 	andi	r5,r5,2047
    1354:	302b883a 	mov	r21,r6
    1358:	3c20703a 	and	r16,r7,r16
    135c:	ba403fcc 	andi	r9,r23,255
    1360:	28006726 	beq	r5,zero,1500 <__divdf3+0x23c>
    1364:	0081ffc4 	movi	r2,2047
    1368:	28805f26 	beq	r5,r2,14e8 <__divdf3+0x224>
    136c:	84000434 	orhi	r16,r16,16
    1370:	3004d77a 	srli	r2,r6,29
    1374:	802090fa 	slli	r16,r16,3
    1378:	302a90fa 	slli	r21,r6,3
    137c:	297f0044 	addi	r5,r5,-1023
    1380:	80a0b03a 	or	r16,r16,r2
    1384:	000f883a 	mov	r7,zero
    1388:	3d06b03a 	or	r3,r7,r20
    138c:	180690ba 	slli	r3,r3,2
    1390:	00800034 	movhi	r2,0
    1394:	1084ed04 	addi	r2,r2,5044
    1398:	1885883a 	add	r2,r3,r2
    139c:	10800017 	ldw	r2,0(r2)
    13a0:	b5c8f03a 	xor	r4,r22,r23
    13a4:	200d883a 	mov	r6,r4
    13a8:	25003fcc 	andi	r20,r4,255
    13ac:	9165c83a 	sub	r18,r18,r5
    13b0:	1000683a 	jmp	r2
    13b4:	000015fc 	xorhi	zero,zero,87
    13b8:	0000142c 	andhi	zero,zero,80
    13bc:	000015c0 	call	15c <alt_irq_handler+0x70>
    13c0:	00001410 	cmplti	zero,zero,80
    13c4:	000015c0 	call	15c <alt_irq_handler+0x70>
    13c8:	00001594 	movui	zero,86
    13cc:	000015c0 	call	15c <alt_irq_handler+0x70>
    13d0:	00001410 	cmplti	zero,zero,80
    13d4:	0000142c 	andhi	zero,zero,80
    13d8:	0000142c 	andhi	zero,zero,80
    13dc:	00001594 	movui	zero,86
    13e0:	00001410 	cmplti	zero,zero,80
    13e4:	00001420 	cmpeqi	zero,zero,80
    13e8:	00001420 	cmpeqi	zero,zero,80
    13ec:	00001420 	cmpeqi	zero,zero,80
    13f0:	000015d0 	cmplti	zero,zero,87
    13f4:	8904b03a 	or	r2,r17,r4
    13f8:	1000631e 	bne	r2,zero,1588 <__divdf3+0x2c4>
    13fc:	05000204 	movi	r20,8
    1400:	0023883a 	mov	r17,zero
    1404:	0027883a 	mov	r19,zero
    1408:	02000084 	movi	r8,2
    140c:	003fcc06 	br	1340 <__divdf3+0x7c>
    1410:	8023883a 	mov	r17,r16
    1414:	a827883a 	mov	r19,r21
    1418:	4839883a 	mov	fp,r9
    141c:	3811883a 	mov	r8,r7
    1420:	00800084 	movi	r2,2
    1424:	4081531e 	bne	r8,r2,1974 <__divdf3+0x6b0>
    1428:	e029883a 	mov	r20,fp
    142c:	a180004c 	andi	r6,r20,1
    1430:	0201ffc4 	movi	r8,2047
    1434:	000b883a 	mov	r5,zero
    1438:	0027883a 	mov	r19,zero
    143c:	4010953a 	slli	r8,r8,20
    1440:	30c03fcc 	andi	r3,r6,255
    1444:	04000434 	movhi	r16,16
    1448:	180697fa 	slli	r3,r3,31
    144c:	843fffc4 	addi	r16,r16,-1
    1450:	2c20703a 	and	r16,r5,r16
    1454:	8220b03a 	or	r16,r16,r8
    1458:	80c6b03a 	or	r3,r16,r3
    145c:	9805883a 	mov	r2,r19
    1460:	dfc00f17 	ldw	ra,60(sp)
    1464:	df000e17 	ldw	fp,56(sp)
    1468:	ddc00d17 	ldw	r23,52(sp)
    146c:	dd800c17 	ldw	r22,48(sp)
    1470:	dd400b17 	ldw	r21,44(sp)
    1474:	dd000a17 	ldw	r20,40(sp)
    1478:	dcc00917 	ldw	r19,36(sp)
    147c:	dc800817 	ldw	r18,32(sp)
    1480:	dc400717 	ldw	r17,28(sp)
    1484:	dc000617 	ldw	r16,24(sp)
    1488:	dec01004 	addi	sp,sp,64
    148c:	f800283a 	ret
    1490:	8904b03a 	or	r2,r17,r4
    1494:	10003726 	beq	r2,zero,1574 <__divdf3+0x2b0>
    1498:	88014d26 	beq	r17,zero,19d0 <__divdf3+0x70c>
    149c:	8809883a 	mov	r4,r17
    14a0:	d9800215 	stw	r6,8(sp)
    14a4:	d9c00515 	stw	r7,20(sp)
    14a8:	00030980 	call	3098 <__clzsi2>
    14ac:	d9800217 	ldw	r6,8(sp)
    14b0:	d9c00517 	ldw	r7,20(sp)
    14b4:	1007883a 	mov	r3,r2
    14b8:	01000a04 	movi	r4,40
    14bc:	1cfffe04 	addi	r19,r3,-8
    14c0:	20c9c83a 	sub	r4,r4,r3
    14c4:	8cca983a 	sll	r5,r17,r19
    14c8:	a108d83a 	srl	r4,r20,r4
    14cc:	a4e6983a 	sll	r19,r20,r19
    14d0:	2162b03a 	or	r17,r4,r5
    14d4:	04bf0344 	movi	r18,-1011
    14d8:	90e5c83a 	sub	r18,r18,r3
    14dc:	0029883a 	mov	r20,zero
    14e0:	0011883a 	mov	r8,zero
    14e4:	003f9606 	br	1340 <__divdf3+0x7c>
    14e8:	8184b03a 	or	r2,r16,r6
    14ec:	10001f1e 	bne	r2,zero,156c <__divdf3+0x2a8>
    14f0:	0021883a 	mov	r16,zero
    14f4:	002b883a 	mov	r21,zero
    14f8:	01c00084 	movi	r7,2
    14fc:	003fa206 	br	1388 <__divdf3+0xc4>
    1500:	8184b03a 	or	r2,r16,r6
    1504:	10001526 	beq	r2,zero,155c <__divdf3+0x298>
    1508:	80013d26 	beq	r16,zero,1a00 <__divdf3+0x73c>
    150c:	8009883a 	mov	r4,r16
    1510:	d9800215 	stw	r6,8(sp)
    1514:	da000315 	stw	r8,12(sp)
    1518:	da400415 	stw	r9,16(sp)
    151c:	00030980 	call	3098 <__clzsi2>
    1520:	d9800217 	ldw	r6,8(sp)
    1524:	da000317 	ldw	r8,12(sp)
    1528:	da400417 	ldw	r9,16(sp)
    152c:	1007883a 	mov	r3,r2
    1530:	01000a04 	movi	r4,40
    1534:	1d7ffe04 	addi	r21,r3,-8
    1538:	20c9c83a 	sub	r4,r4,r3
    153c:	8560983a 	sll	r16,r16,r21
    1540:	3108d83a 	srl	r4,r6,r4
    1544:	356a983a 	sll	r21,r6,r21
    1548:	2420b03a 	or	r16,r4,r16
    154c:	017f0344 	movi	r5,-1011
    1550:	28cbc83a 	sub	r5,r5,r3
    1554:	000f883a 	mov	r7,zero
    1558:	003f8b06 	br	1388 <__divdf3+0xc4>
    155c:	0021883a 	mov	r16,zero
    1560:	002b883a 	mov	r21,zero
    1564:	01c00044 	movi	r7,1
    1568:	003f8706 	br	1388 <__divdf3+0xc4>
    156c:	01c000c4 	movi	r7,3
    1570:	003f8506 	br	1388 <__divdf3+0xc4>
    1574:	05000104 	movi	r20,4
    1578:	0023883a 	mov	r17,zero
    157c:	0027883a 	mov	r19,zero
    1580:	02000044 	movi	r8,1
    1584:	003f6e06 	br	1340 <__divdf3+0x7c>
    1588:	05000304 	movi	r20,12
    158c:	020000c4 	movi	r8,3
    1590:	003f6b06 	br	1340 <__divdf3+0x7c>
    1594:	01400434 	movhi	r5,16
    1598:	000d883a 	mov	r6,zero
    159c:	297fffc4 	addi	r5,r5,-1
    15a0:	04ffffc4 	movi	r19,-1
    15a4:	0201ffc4 	movi	r8,2047
    15a8:	003fa406 	br	143c <__divdf3+0x178>
    15ac:	043f0084 	movi	r16,-1022
    15b0:	84a1c83a 	sub	r16,r16,r18
    15b4:	00800e04 	movi	r2,56
    15b8:	14014d0e 	bge	r2,r16,1af0 <__divdf3+0x82c>
    15bc:	a180004c 	andi	r6,r20,1
    15c0:	0011883a 	mov	r8,zero
    15c4:	000b883a 	mov	r5,zero
    15c8:	0027883a 	mov	r19,zero
    15cc:	003f9b06 	br	143c <__divdf3+0x178>
    15d0:	8880022c 	andhi	r2,r17,8
    15d4:	1000f026 	beq	r2,zero,1998 <__divdf3+0x6d4>
    15d8:	8080022c 	andhi	r2,r16,8
    15dc:	1000ee1e 	bne	r2,zero,1998 <__divdf3+0x6d4>
    15e0:	00800434 	movhi	r2,16
    15e4:	81400234 	orhi	r5,r16,8
    15e8:	10bfffc4 	addi	r2,r2,-1
    15ec:	b80d883a 	mov	r6,r23
    15f0:	288a703a 	and	r5,r5,r2
    15f4:	a827883a 	mov	r19,r21
    15f8:	003fea06 	br	15a4 <__divdf3+0x2e0>
    15fc:	84411c36 	bltu	r16,r17,1a70 <__divdf3+0x7ac>
    1600:	8c011a26 	beq	r17,r16,1a6c <__divdf3+0x7a8>
    1604:	94bfffc4 	addi	r18,r18,-1
    1608:	dcc00015 	stw	r19,0(sp)
    160c:	8811883a 	mov	r8,r17
    1610:	002d883a 	mov	r22,zero
    1614:	a80cd63a 	srli	r6,r21,24
    1618:	8020923a 	slli	r16,r16,8
    161c:	a82a923a 	slli	r21,r21,8
    1620:	4009883a 	mov	r4,r8
    1624:	342eb03a 	or	r23,r6,r16
    1628:	dd400115 	stw	r21,4(sp)
    162c:	b82ad43a 	srli	r21,r23,16
    1630:	da000315 	stw	r8,12(sp)
    1634:	bcffffcc 	andi	r19,r23,65535
    1638:	a80b883a 	mov	r5,r21
    163c:	00032180 	call	3218 <__udivsi3>
    1640:	1009883a 	mov	r4,r2
    1644:	980b883a 	mov	r5,r19
    1648:	1023883a 	mov	r17,r2
    164c:	000129c0 	call	129c <__mulsi3>
    1650:	da000317 	ldw	r8,12(sp)
    1654:	a80b883a 	mov	r5,r21
    1658:	1039883a 	mov	fp,r2
    165c:	4009883a 	mov	r4,r8
    1660:	00032200 	call	3220 <__umodsi3>
    1664:	d8c00017 	ldw	r3,0(sp)
    1668:	1004943a 	slli	r2,r2,16
    166c:	1810d43a 	srli	r8,r3,16
    1670:	120eb03a 	or	r7,r2,r8
    1674:	3f00062e 	bgeu	r7,fp,1690 <__divdf3+0x3cc>
    1678:	3dcf883a 	add	r7,r7,r23
    167c:	88bfffc4 	addi	r2,r17,-1
    1680:	3dc10a36 	bltu	r7,r23,1aac <__divdf3+0x7e8>
    1684:	3f01092e 	bgeu	r7,fp,1aac <__divdf3+0x7e8>
    1688:	8c7fff84 	addi	r17,r17,-2
    168c:	3dcf883a 	add	r7,r7,r23
    1690:	3f39c83a 	sub	fp,r7,fp
    1694:	e009883a 	mov	r4,fp
    1698:	a80b883a 	mov	r5,r21
    169c:	00032180 	call	3218 <__udivsi3>
    16a0:	1009883a 	mov	r4,r2
    16a4:	980b883a 	mov	r5,r19
    16a8:	1021883a 	mov	r16,r2
    16ac:	000129c0 	call	129c <__mulsi3>
    16b0:	e009883a 	mov	r4,fp
    16b4:	a80b883a 	mov	r5,r21
    16b8:	d8800315 	stw	r2,12(sp)
    16bc:	00032200 	call	3220 <__umodsi3>
    16c0:	d9000017 	ldw	r4,0(sp)
    16c4:	1004943a 	slli	r2,r2,16
    16c8:	da000317 	ldw	r8,12(sp)
    16cc:	20ffffcc 	andi	r3,r4,65535
    16d0:	10ceb03a 	or	r7,r2,r3
    16d4:	3a00062e 	bgeu	r7,r8,16f0 <__divdf3+0x42c>
    16d8:	3dcf883a 	add	r7,r7,r23
    16dc:	80bfffc4 	addi	r2,r16,-1
    16e0:	3dc0f036 	bltu	r7,r23,1aa4 <__divdf3+0x7e0>
    16e4:	3a00ef2e 	bgeu	r7,r8,1aa4 <__divdf3+0x7e0>
    16e8:	843fff84 	addi	r16,r16,-2
    16ec:	3dcf883a 	add	r7,r7,r23
    16f0:	d8c00117 	ldw	r3,4(sp)
    16f4:	8822943a 	slli	r17,r17,16
    16f8:	3a0fc83a 	sub	r7,r7,r8
    16fc:	1806d43a 	srli	r3,r3,16
    1700:	8462b03a 	or	r17,r16,r17
    1704:	8affffcc 	andi	r11,r17,65535
    1708:	d8c00015 	stw	r3,0(sp)
    170c:	d8c00117 	ldw	r3,4(sp)
    1710:	8820d43a 	srli	r16,r17,16
    1714:	5809883a 	mov	r4,r11
    1718:	1f3fffcc 	andi	fp,r3,65535
    171c:	e00b883a 	mov	r5,fp
    1720:	d9c00515 	stw	r7,20(sp)
    1724:	dac00215 	stw	r11,8(sp)
    1728:	000129c0 	call	129c <__mulsi3>
    172c:	8009883a 	mov	r4,r16
    1730:	e00b883a 	mov	r5,fp
    1734:	d8800415 	stw	r2,16(sp)
    1738:	000129c0 	call	129c <__mulsi3>
    173c:	d9400017 	ldw	r5,0(sp)
    1740:	8009883a 	mov	r4,r16
    1744:	d8800315 	stw	r2,12(sp)
    1748:	000129c0 	call	129c <__mulsi3>
    174c:	dac00217 	ldw	r11,8(sp)
    1750:	d9400017 	ldw	r5,0(sp)
    1754:	d8800215 	stw	r2,8(sp)
    1758:	5809883a 	mov	r4,r11
    175c:	000129c0 	call	129c <__mulsi3>
    1760:	da400417 	ldw	r9,16(sp)
    1764:	da800317 	ldw	r10,12(sp)
    1768:	d9c00517 	ldw	r7,20(sp)
    176c:	480ad43a 	srli	r5,r9,16
    1770:	5085883a 	add	r2,r10,r2
    1774:	db000217 	ldw	r12,8(sp)
    1778:	1151883a 	add	r8,r2,r5
    177c:	4280022e 	bgeu	r8,r10,1788 <__divdf3+0x4c4>
    1780:	00800074 	movhi	r2,1
    1784:	6099883a 	add	r12,r12,r2
    1788:	400ad43a 	srli	r5,r8,16
    178c:	4010943a 	slli	r8,r8,16
    1790:	4c3fffcc 	andi	r16,r9,65535
    1794:	6149883a 	add	r4,r12,r5
    1798:	4411883a 	add	r8,r8,r16
    179c:	3900a736 	bltu	r7,r4,1a3c <__divdf3+0x778>
    17a0:	3900c426 	beq	r7,r4,1ab4 <__divdf3+0x7f0>
    17a4:	3909c83a 	sub	r4,r7,r4
    17a8:	b221c83a 	sub	r16,r22,r8
    17ac:	b42d803a 	cmpltu	r22,r22,r16
    17b0:	25adc83a 	sub	r22,r4,r22
    17b4:	b5c0c626 	beq	r22,r23,1ad0 <__divdf3+0x80c>
    17b8:	b009883a 	mov	r4,r22
    17bc:	a80b883a 	mov	r5,r21
    17c0:	00032180 	call	3218 <__udivsi3>
    17c4:	1009883a 	mov	r4,r2
    17c8:	980b883a 	mov	r5,r19
    17cc:	d8800315 	stw	r2,12(sp)
    17d0:	000129c0 	call	129c <__mulsi3>
    17d4:	a80b883a 	mov	r5,r21
    17d8:	b009883a 	mov	r4,r22
    17dc:	d8800415 	stw	r2,16(sp)
    17e0:	00032200 	call	3220 <__umodsi3>
    17e4:	1004943a 	slli	r2,r2,16
    17e8:	800ed43a 	srli	r7,r16,16
    17ec:	da400417 	ldw	r9,16(sp)
    17f0:	da000317 	ldw	r8,12(sp)
    17f4:	11cab03a 	or	r5,r2,r7
    17f8:	2a40062e 	bgeu	r5,r9,1814 <__divdf3+0x550>
    17fc:	2dcb883a 	add	r5,r5,r23
    1800:	40bfffc4 	addi	r2,r8,-1
    1804:	2dc0b436 	bltu	r5,r23,1ad8 <__divdf3+0x814>
    1808:	2a40b32e 	bgeu	r5,r9,1ad8 <__divdf3+0x814>
    180c:	423fff84 	addi	r8,r8,-2
    1810:	2dcb883a 	add	r5,r5,r23
    1814:	2a6dc83a 	sub	r22,r5,r9
    1818:	b009883a 	mov	r4,r22
    181c:	a80b883a 	mov	r5,r21
    1820:	da000315 	stw	r8,12(sp)
    1824:	00032180 	call	3218 <__udivsi3>
    1828:	980b883a 	mov	r5,r19
    182c:	1009883a 	mov	r4,r2
    1830:	d8800415 	stw	r2,16(sp)
    1834:	000129c0 	call	129c <__mulsi3>
    1838:	b009883a 	mov	r4,r22
    183c:	a80b883a 	mov	r5,r21
    1840:	1027883a 	mov	r19,r2
    1844:	00032200 	call	3220 <__umodsi3>
    1848:	1004943a 	slli	r2,r2,16
    184c:	843fffcc 	andi	r16,r16,65535
    1850:	da000317 	ldw	r8,12(sp)
    1854:	140eb03a 	or	r7,r2,r16
    1858:	da400417 	ldw	r9,16(sp)
    185c:	3cc0062e 	bgeu	r7,r19,1878 <__divdf3+0x5b4>
    1860:	3dcf883a 	add	r7,r7,r23
    1864:	48bfffc4 	addi	r2,r9,-1
    1868:	3dc09d36 	bltu	r7,r23,1ae0 <__divdf3+0x81c>
    186c:	3cc09c2e 	bgeu	r7,r19,1ae0 <__divdf3+0x81c>
    1870:	4a7fff84 	addi	r9,r9,-2
    1874:	3dcf883a 	add	r7,r7,r23
    1878:	4010943a 	slli	r8,r8,16
    187c:	3cebc83a 	sub	r21,r7,r19
    1880:	e00b883a 	mov	r5,fp
    1884:	4a26b03a 	or	r19,r9,r8
    1888:	99ffffcc 	andi	r7,r19,65535
    188c:	9820d43a 	srli	r16,r19,16
    1890:	3809883a 	mov	r4,r7
    1894:	d9c00515 	stw	r7,20(sp)
    1898:	000129c0 	call	129c <__mulsi3>
    189c:	8009883a 	mov	r4,r16
    18a0:	e00b883a 	mov	r5,fp
    18a4:	102d883a 	mov	r22,r2
    18a8:	000129c0 	call	129c <__mulsi3>
    18ac:	d9400017 	ldw	r5,0(sp)
    18b0:	8009883a 	mov	r4,r16
    18b4:	1039883a 	mov	fp,r2
    18b8:	000129c0 	call	129c <__mulsi3>
    18bc:	d9c00517 	ldw	r7,20(sp)
    18c0:	d9400017 	ldw	r5,0(sp)
    18c4:	1021883a 	mov	r16,r2
    18c8:	3809883a 	mov	r4,r7
    18cc:	000129c0 	call	129c <__mulsi3>
    18d0:	b008d43a 	srli	r4,r22,16
    18d4:	e085883a 	add	r2,fp,r2
    18d8:	1109883a 	add	r4,r2,r4
    18dc:	2700022e 	bgeu	r4,fp,18e8 <__divdf3+0x624>
    18e0:	00800074 	movhi	r2,1
    18e4:	80a1883a 	add	r16,r16,r2
    18e8:	200ad43a 	srli	r5,r4,16
    18ec:	2008943a 	slli	r4,r4,16
    18f0:	b5bfffcc 	andi	r22,r22,65535
    18f4:	8145883a 	add	r2,r16,r5
    18f8:	2589883a 	add	r4,r4,r22
    18fc:	a8802c36 	bltu	r21,r2,19b0 <__divdf3+0x6ec>
    1900:	a880a426 	beq	r21,r2,1b94 <__divdf3+0x8d0>
    1904:	9cc00054 	ori	r19,r19,1
    1908:	9200ffc4 	addi	r8,r18,1023
    190c:	023f270e 	bge	zero,r8,15ac <__divdf3+0x2e8>
    1910:	988001cc 	andi	r2,r19,7
    1914:	10000726 	beq	r2,zero,1934 <__divdf3+0x670>
    1918:	990003cc 	andi	r4,r19,15
    191c:	00800104 	movi	r2,4
    1920:	20800426 	beq	r4,r2,1934 <__divdf3+0x670>
    1924:	9885883a 	add	r2,r19,r2
    1928:	14e7803a 	cmpltu	r19,r2,r19
    192c:	8ce3883a 	add	r17,r17,r19
    1930:	1027883a 	mov	r19,r2
    1934:	8880402c 	andhi	r2,r17,256
    1938:	10000426 	beq	r2,zero,194c <__divdf3+0x688>
    193c:	00bfc034 	movhi	r2,65280
    1940:	10bfffc4 	addi	r2,r2,-1
    1944:	92010004 	addi	r8,r18,1024
    1948:	88a2703a 	and	r17,r17,r2
    194c:	0081ff84 	movi	r2,2046
    1950:	123eb616 	blt	r2,r8,142c <__divdf3+0x168>
    1954:	9826d0fa 	srli	r19,r19,3
    1958:	8804977a 	slli	r2,r17,29
    195c:	8820927a 	slli	r16,r17,9
    1960:	4201ffcc 	andi	r8,r8,2047
    1964:	14e6b03a 	or	r19,r2,r19
    1968:	800ad33a 	srli	r5,r16,12
    196c:	a180004c 	andi	r6,r20,1
    1970:	003eb206 	br	143c <__divdf3+0x178>
    1974:	008000c4 	movi	r2,3
    1978:	4080ac26 	beq	r8,r2,1c2c <__divdf3+0x968>
    197c:	00800044 	movi	r2,1
    1980:	4080591e 	bne	r8,r2,1ae8 <__divdf3+0x824>
    1984:	e00d883a 	mov	r6,fp
    1988:	0011883a 	mov	r8,zero
    198c:	000b883a 	mov	r5,zero
    1990:	0027883a 	mov	r19,zero
    1994:	003ea906 	br	143c <__divdf3+0x178>
    1998:	00800434 	movhi	r2,16
    199c:	89400234 	orhi	r5,r17,8
    19a0:	10bfffc4 	addi	r2,r2,-1
    19a4:	b00d883a 	mov	r6,r22
    19a8:	288a703a 	and	r5,r5,r2
    19ac:	003efd06 	br	15a4 <__divdf3+0x2e0>
    19b0:	adcf883a 	add	r7,r21,r23
    19b4:	997fffc4 	addi	r5,r19,-1
    19b8:	3dc0412e 	bgeu	r7,r23,1ac0 <__divdf3+0x7fc>
    19bc:	2827883a 	mov	r19,r5
    19c0:	38bfd01e 	bne	r7,r2,1904 <__divdf3+0x640>
    19c4:	d8c00117 	ldw	r3,4(sp)
    19c8:	193fce1e 	bne	r3,r4,1904 <__divdf3+0x640>
    19cc:	003fce06 	br	1908 <__divdf3+0x644>
    19d0:	d9800215 	stw	r6,8(sp)
    19d4:	d9c00515 	stw	r7,20(sp)
    19d8:	00030980 	call	3098 <__clzsi2>
    19dc:	10c00804 	addi	r3,r2,32
    19e0:	010009c4 	movi	r4,39
    19e4:	d9800217 	ldw	r6,8(sp)
    19e8:	d9c00517 	ldw	r7,20(sp)
    19ec:	20feb20e 	bge	r4,r3,14b8 <__divdf3+0x1f4>
    19f0:	117ffe04 	addi	r5,r2,-8
    19f4:	a162983a 	sll	r17,r20,r5
    19f8:	0027883a 	mov	r19,zero
    19fc:	003eb506 	br	14d4 <__divdf3+0x210>
    1a00:	3009883a 	mov	r4,r6
    1a04:	d9800215 	stw	r6,8(sp)
    1a08:	da000315 	stw	r8,12(sp)
    1a0c:	da400415 	stw	r9,16(sp)
    1a10:	00030980 	call	3098 <__clzsi2>
    1a14:	10c00804 	addi	r3,r2,32
    1a18:	010009c4 	movi	r4,39
    1a1c:	d9800217 	ldw	r6,8(sp)
    1a20:	da000317 	ldw	r8,12(sp)
    1a24:	da400417 	ldw	r9,16(sp)
    1a28:	20fec10e 	bge	r4,r3,1530 <__divdf3+0x26c>
    1a2c:	10bffe04 	addi	r2,r2,-8
    1a30:	a8a0983a 	sll	r16,r21,r2
    1a34:	002b883a 	mov	r21,zero
    1a38:	003ec406 	br	154c <__divdf3+0x288>
    1a3c:	d8c00117 	ldw	r3,4(sp)
    1a40:	b0ed883a 	add	r22,r22,r3
    1a44:	b0c5803a 	cmpltu	r2,r22,r3
    1a48:	15c5883a 	add	r2,r2,r23
    1a4c:	11cf883a 	add	r7,r2,r7
    1a50:	88bfffc4 	addi	r2,r17,-1
    1a54:	b9c00d2e 	bgeu	r23,r7,1a8c <__divdf3+0x7c8>
    1a58:	39003f36 	bltu	r7,r4,1b58 <__divdf3+0x894>
    1a5c:	21c06a26 	beq	r4,r7,1c08 <__divdf3+0x944>
    1a60:	3909c83a 	sub	r4,r7,r4
    1a64:	1023883a 	mov	r17,r2
    1a68:	003f4f06 	br	17a8 <__divdf3+0x4e4>
    1a6c:	9d7ee536 	bltu	r19,r21,1604 <__divdf3+0x340>
    1a70:	982ed07a 	srli	r23,r19,1
    1a74:	880497fa 	slli	r2,r17,31
    1a78:	8810d07a 	srli	r8,r17,1
    1a7c:	982c97fa 	slli	r22,r19,31
    1a80:	b884b03a 	or	r2,r23,r2
    1a84:	d8800015 	stw	r2,0(sp)
    1a88:	003ee206 	br	1614 <__divdf3+0x350>
    1a8c:	3dfff41e 	bne	r7,r23,1a60 <__divdf3+0x79c>
    1a90:	d8c00117 	ldw	r3,4(sp)
    1a94:	b0fff02e 	bgeu	r22,r3,1a58 <__divdf3+0x794>
    1a98:	b909c83a 	sub	r4,r23,r4
    1a9c:	1023883a 	mov	r17,r2
    1aa0:	003f4106 	br	17a8 <__divdf3+0x4e4>
    1aa4:	1021883a 	mov	r16,r2
    1aa8:	003f1106 	br	16f0 <__divdf3+0x42c>
    1aac:	1023883a 	mov	r17,r2
    1ab0:	003ef706 	br	1690 <__divdf3+0x3cc>
    1ab4:	b23fe136 	bltu	r22,r8,1a3c <__divdf3+0x778>
    1ab8:	0009883a 	mov	r4,zero
    1abc:	003f3a06 	br	17a8 <__divdf3+0x4e4>
    1ac0:	38802c36 	bltu	r7,r2,1b74 <__divdf3+0x8b0>
    1ac4:	11c05326 	beq	r2,r7,1c14 <__divdf3+0x950>
    1ac8:	2827883a 	mov	r19,r5
    1acc:	003f8d06 	br	1904 <__divdf3+0x640>
    1ad0:	04ffffc4 	movi	r19,-1
    1ad4:	003f8c06 	br	1908 <__divdf3+0x644>
    1ad8:	1011883a 	mov	r8,r2
    1adc:	003f4d06 	br	1814 <__divdf3+0x550>
    1ae0:	1013883a 	mov	r9,r2
    1ae4:	003f6406 	br	1878 <__divdf3+0x5b4>
    1ae8:	e029883a 	mov	r20,fp
    1aec:	003f8606 	br	1908 <__divdf3+0x644>
    1af0:	008007c4 	movi	r2,31
    1af4:	14002a16 	blt	r2,r16,1ba0 <__divdf3+0x8dc>
    1af8:	91410784 	addi	r5,r18,1054
    1afc:	9c0cd83a 	srl	r6,r19,r16
    1b00:	8948983a 	sll	r4,r17,r5
    1b04:	9944983a 	sll	r2,r19,r5
    1b08:	8c20d83a 	srl	r16,r17,r16
    1b0c:	3108b03a 	or	r4,r6,r4
    1b10:	1004c03a 	cmpne	r2,r2,zero
    1b14:	2084b03a 	or	r2,r4,r2
    1b18:	110001cc 	andi	r4,r2,7
    1b1c:	20000726 	beq	r4,zero,1b3c <__divdf3+0x878>
    1b20:	114003cc 	andi	r5,r2,15
    1b24:	01000104 	movi	r4,4
    1b28:	29000426 	beq	r5,r4,1b3c <__divdf3+0x878>
    1b2c:	11000104 	addi	r4,r2,4
    1b30:	2085803a 	cmpltu	r2,r4,r2
    1b34:	80a1883a 	add	r16,r16,r2
    1b38:	2005883a 	mov	r2,r4
    1b3c:	8100202c 	andhi	r4,r16,128
    1b40:	20002d26 	beq	r4,zero,1bf8 <__divdf3+0x934>
    1b44:	a180004c 	andi	r6,r20,1
    1b48:	02000044 	movi	r8,1
    1b4c:	000b883a 	mov	r5,zero
    1b50:	0027883a 	mov	r19,zero
    1b54:	003e3906 	br	143c <__divdf3+0x178>
    1b58:	d8c00117 	ldw	r3,4(sp)
    1b5c:	8c7fff84 	addi	r17,r17,-2
    1b60:	b0ed883a 	add	r22,r22,r3
    1b64:	b0c5803a 	cmpltu	r2,r22,r3
    1b68:	15c5883a 	add	r2,r2,r23
    1b6c:	11cf883a 	add	r7,r2,r7
    1b70:	003f0c06 	br	17a4 <__divdf3+0x4e0>
    1b74:	d8c00117 	ldw	r3,4(sp)
    1b78:	997fff84 	addi	r5,r19,-2
    1b7c:	18d1883a 	add	r8,r3,r3
    1b80:	40c7803a 	cmpltu	r3,r8,r3
    1b84:	1dcd883a 	add	r6,r3,r23
    1b88:	398f883a 	add	r7,r7,r6
    1b8c:	da000115 	stw	r8,4(sp)
    1b90:	003f8a06 	br	19bc <__divdf3+0x6f8>
    1b94:	203f861e 	bne	r4,zero,19b0 <__divdf3+0x6ec>
    1b98:	d8000115 	stw	zero,4(sp)
    1b9c:	003f8906 	br	19c4 <__divdf3+0x700>
    1ba0:	00bef884 	movi	r2,-1054
    1ba4:	1485c83a 	sub	r2,r2,r18
    1ba8:	01000804 	movi	r4,32
    1bac:	8884d83a 	srl	r2,r17,r2
    1bb0:	81001c26 	beq	r16,r4,1c24 <__divdf3+0x960>
    1bb4:	91010f84 	addi	r4,r18,1086
    1bb8:	8908983a 	sll	r4,r17,r4
    1bbc:	24c8b03a 	or	r4,r4,r19
    1bc0:	2008c03a 	cmpne	r4,r4,zero
    1bc4:	2084b03a 	or	r2,r4,r2
    1bc8:	140001cc 	andi	r16,r2,7
    1bcc:	8000061e 	bne	r16,zero,1be8 <__divdf3+0x924>
    1bd0:	000b883a 	mov	r5,zero
    1bd4:	1004d0fa 	srli	r2,r2,3
    1bd8:	a180004c 	andi	r6,r20,1
    1bdc:	0011883a 	mov	r8,zero
    1be0:	1426b03a 	or	r19,r2,r16
    1be4:	003e1506 	br	143c <__divdf3+0x178>
    1be8:	114003cc 	andi	r5,r2,15
    1bec:	01000104 	movi	r4,4
    1bf0:	0021883a 	mov	r16,zero
    1bf4:	293fcd1e 	bne	r5,r4,1b2c <__divdf3+0x868>
    1bf8:	800a927a 	slli	r5,r16,9
    1bfc:	8020977a 	slli	r16,r16,29
    1c00:	280ad33a 	srli	r5,r5,12
    1c04:	003ff306 	br	1bd4 <__divdf3+0x910>
    1c08:	b23fd336 	bltu	r22,r8,1b58 <__divdf3+0x894>
    1c0c:	1023883a 	mov	r17,r2
    1c10:	003fa906 	br	1ab8 <__divdf3+0x7f4>
    1c14:	d8c00117 	ldw	r3,4(sp)
    1c18:	193fd636 	bltu	r3,r4,1b74 <__divdf3+0x8b0>
    1c1c:	2827883a 	mov	r19,r5
    1c20:	003f6806 	br	19c4 <__divdf3+0x700>
    1c24:	0009883a 	mov	r4,zero
    1c28:	003fe406 	br	1bbc <__divdf3+0x8f8>
    1c2c:	00800434 	movhi	r2,16
    1c30:	89400234 	orhi	r5,r17,8
    1c34:	10bfffc4 	addi	r2,r2,-1
    1c38:	e00d883a 	mov	r6,fp
    1c3c:	288a703a 	and	r5,r5,r2
    1c40:	003e5806 	br	15a4 <__divdf3+0x2e0>

00001c44 <__gedf2>:
    1c44:	2804d53a 	srli	r2,r5,20
    1c48:	3806d53a 	srli	r3,r7,20
    1c4c:	02000434 	movhi	r8,16
    1c50:	423fffc4 	addi	r8,r8,-1
    1c54:	0241ffc4 	movi	r9,2047
    1c58:	1081ffcc 	andi	r2,r2,2047
    1c5c:	2a14703a 	and	r10,r5,r8
    1c60:	1a46703a 	and	r3,r3,r9
    1c64:	3a10703a 	and	r8,r7,r8
    1c68:	280ad7fa 	srli	r5,r5,31
    1c6c:	380ed7fa 	srli	r7,r7,31
    1c70:	12400b26 	beq	r2,r9,1ca0 <__gedf2+0x5c>
    1c74:	1a401626 	beq	r3,r9,1cd0 <__gedf2+0x8c>
    1c78:	10000c1e 	bne	r2,zero,1cac <__gedf2+0x68>
    1c7c:	5112b03a 	or	r9,r10,r4
    1c80:	4813003a 	cmpeq	r9,r9,zero
    1c84:	4817883a 	mov	r11,r9
    1c88:	18000c1e 	bne	r3,zero,1cbc <__gedf2+0x78>
    1c8c:	4198b03a 	or	r12,r8,r6
    1c90:	60000a1e 	bne	r12,zero,1cbc <__gedf2+0x78>
    1c94:	48001326 	beq	r9,zero,1ce4 <__gedf2+0xa0>
    1c98:	0005883a 	mov	r2,zero
    1c9c:	f800283a 	ret
    1ca0:	5112b03a 	or	r9,r10,r4
    1ca4:	4800191e 	bne	r9,zero,1d0c <__gedf2+0xc8>
    1ca8:	18800926 	beq	r3,r2,1cd0 <__gedf2+0x8c>
    1cac:	18000b1e 	bne	r3,zero,1cdc <__gedf2+0x98>
    1cb0:	4192b03a 	or	r9,r8,r6
    1cb4:	0017883a 	mov	r11,zero
    1cb8:	48000a26 	beq	r9,zero,1ce4 <__gedf2+0xa0>
    1cbc:	39c03fcc 	andi	r7,r7,255
    1cc0:	58000726 	beq	r11,zero,1ce0 <__gedf2+0x9c>
    1cc4:	3800081e 	bne	r7,zero,1ce8 <__gedf2+0xa4>
    1cc8:	00bfffc4 	movi	r2,-1
    1ccc:	f800283a 	ret
    1cd0:	4192b03a 	or	r9,r8,r6
    1cd4:	48000d1e 	bne	r9,zero,1d0c <__gedf2+0xc8>
    1cd8:	103fe826 	beq	r2,zero,1c7c <__gedf2+0x38>
    1cdc:	39c03fcc 	andi	r7,r7,255
    1ce0:	29c00326 	beq	r5,r7,1cf0 <__gedf2+0xac>
    1ce4:	283ff81e 	bne	r5,zero,1cc8 <__gedf2+0x84>
    1ce8:	00800044 	movi	r2,1
    1cec:	f800283a 	ret
    1cf0:	18bffc16 	blt	r3,r2,1ce4 <__gedf2+0xa0>
    1cf4:	10c00316 	blt	r2,r3,1d04 <__gedf2+0xc0>
    1cf8:	42bffa36 	bltu	r8,r10,1ce4 <__gedf2+0xa0>
    1cfc:	52000526 	beq	r10,r8,1d14 <__gedf2+0xd0>
    1d00:	523fe52e 	bgeu	r10,r8,1c98 <__gedf2+0x54>
    1d04:	283ff026 	beq	r5,zero,1cc8 <__gedf2+0x84>
    1d08:	003ff706 	br	1ce8 <__gedf2+0xa4>
    1d0c:	00bfff84 	movi	r2,-2
    1d10:	f800283a 	ret
    1d14:	313ff336 	bltu	r6,r4,1ce4 <__gedf2+0xa0>
    1d18:	21bfdf2e 	bgeu	r4,r6,1c98 <__gedf2+0x54>
    1d1c:	283fea26 	beq	r5,zero,1cc8 <__gedf2+0x84>
    1d20:	003ff106 	br	1ce8 <__gedf2+0xa4>

00001d24 <__ledf2>:
    1d24:	2804d53a 	srli	r2,r5,20
    1d28:	3810d53a 	srli	r8,r7,20
    1d2c:	00c00434 	movhi	r3,16
    1d30:	18ffffc4 	addi	r3,r3,-1
    1d34:	0241ffc4 	movi	r9,2047
    1d38:	1081ffcc 	andi	r2,r2,2047
    1d3c:	28d4703a 	and	r10,r5,r3
    1d40:	4250703a 	and	r8,r8,r9
    1d44:	38c6703a 	and	r3,r7,r3
    1d48:	280ad7fa 	srli	r5,r5,31
    1d4c:	380ed7fa 	srli	r7,r7,31
    1d50:	12400b26 	beq	r2,r9,1d80 <__ledf2+0x5c>
    1d54:	42401926 	beq	r8,r9,1dbc <__ledf2+0x98>
    1d58:	10000c1e 	bne	r2,zero,1d8c <__ledf2+0x68>
    1d5c:	5112b03a 	or	r9,r10,r4
    1d60:	4813003a 	cmpeq	r9,r9,zero
    1d64:	4817883a 	mov	r11,r9
    1d68:	40000f26 	beq	r8,zero,1da8 <__ledf2+0x84>
    1d6c:	39c03fcc 	andi	r7,r7,255
    1d70:	58001826 	beq	r11,zero,1dd4 <__ledf2+0xb0>
    1d74:	38000a1e 	bne	r7,zero,1da0 <__ledf2+0x7c>
    1d78:	00bfffc4 	movi	r2,-1
    1d7c:	f800283a 	ret
    1d80:	5112b03a 	or	r9,r10,r4
    1d84:	48000f1e 	bne	r9,zero,1dc4 <__ledf2+0xa0>
    1d88:	40800c26 	beq	r8,r2,1dbc <__ledf2+0x98>
    1d8c:	4000101e 	bne	r8,zero,1dd0 <__ledf2+0xac>
    1d90:	1992b03a 	or	r9,r3,r6
    1d94:	0017883a 	mov	r11,zero
    1d98:	483ff41e 	bne	r9,zero,1d6c <__ledf2+0x48>
    1d9c:	283ff61e 	bne	r5,zero,1d78 <__ledf2+0x54>
    1da0:	00800044 	movi	r2,1
    1da4:	f800283a 	ret
    1da8:	1998b03a 	or	r12,r3,r6
    1dac:	603fef1e 	bne	r12,zero,1d6c <__ledf2+0x48>
    1db0:	483ffa26 	beq	r9,zero,1d9c <__ledf2+0x78>
    1db4:	0005883a 	mov	r2,zero
    1db8:	f800283a 	ret
    1dbc:	1992b03a 	or	r9,r3,r6
    1dc0:	48000226 	beq	r9,zero,1dcc <__ledf2+0xa8>
    1dc4:	00800084 	movi	r2,2
    1dc8:	f800283a 	ret
    1dcc:	103fe326 	beq	r2,zero,1d5c <__ledf2+0x38>
    1dd0:	39c03fcc 	andi	r7,r7,255
    1dd4:	29fff11e 	bne	r5,r7,1d9c <__ledf2+0x78>
    1dd8:	40bff016 	blt	r8,r2,1d9c <__ledf2+0x78>
    1ddc:	12000316 	blt	r2,r8,1dec <__ledf2+0xc8>
    1de0:	1abfee36 	bltu	r3,r10,1d9c <__ledf2+0x78>
    1de4:	50c00326 	beq	r10,r3,1df4 <__ledf2+0xd0>
    1de8:	50fff22e 	bgeu	r10,r3,1db4 <__ledf2+0x90>
    1dec:	283fe226 	beq	r5,zero,1d78 <__ledf2+0x54>
    1df0:	003feb06 	br	1da0 <__ledf2+0x7c>
    1df4:	313fe936 	bltu	r6,r4,1d9c <__ledf2+0x78>
    1df8:	21bfee2e 	bgeu	r4,r6,1db4 <__ledf2+0x90>
    1dfc:	283fde26 	beq	r5,zero,1d78 <__ledf2+0x54>
    1e00:	003fe706 	br	1da0 <__ledf2+0x7c>

00001e04 <__muldf3>:
    1e04:	deffee04 	addi	sp,sp,-72
    1e08:	dd000c15 	stw	r20,48(sp)
    1e0c:	2828d53a 	srli	r20,r5,20
    1e10:	dd400d15 	stw	r21,52(sp)
    1e14:	282ad7fa 	srli	r21,r5,31
    1e18:	dc000815 	stw	r16,32(sp)
    1e1c:	04000434 	movhi	r16,16
    1e20:	ddc00f15 	stw	r23,60(sp)
    1e24:	dcc00b15 	stw	r19,44(sp)
    1e28:	dc800a15 	stw	r18,40(sp)
    1e2c:	843fffc4 	addi	r16,r16,-1
    1e30:	dfc01115 	stw	ra,68(sp)
    1e34:	df001015 	stw	fp,64(sp)
    1e38:	dd800e15 	stw	r22,56(sp)
    1e3c:	dc400915 	stw	r17,36(sp)
    1e40:	a501ffcc 	andi	r20,r20,2047
    1e44:	2025883a 	mov	r18,r4
    1e48:	202f883a 	mov	r23,r4
    1e4c:	2c20703a 	and	r16,r5,r16
    1e50:	a827883a 	mov	r19,r21
    1e54:	aa403fcc 	andi	r9,r21,255
    1e58:	a0005926 	beq	r20,zero,1fc0 <__muldf3+0x1bc>
    1e5c:	0081ffc4 	movi	r2,2047
    1e60:	a0803426 	beq	r20,r2,1f34 <__muldf3+0x130>
    1e64:	84000434 	orhi	r16,r16,16
    1e68:	2004d77a 	srli	r2,r4,29
    1e6c:	802090fa 	slli	r16,r16,3
    1e70:	202e90fa 	slli	r23,r4,3
    1e74:	a53f0044 	addi	r20,r20,-1023
    1e78:	80a0b03a 	or	r16,r16,r2
    1e7c:	000b883a 	mov	r5,zero
    1e80:	0039883a 	mov	fp,zero
    1e84:	3806d53a 	srli	r3,r7,20
    1e88:	382cd7fa 	srli	r22,r7,31
    1e8c:	00800434 	movhi	r2,16
    1e90:	10bfffc4 	addi	r2,r2,-1
    1e94:	18c1ffcc 	andi	r3,r3,2047
    1e98:	3025883a 	mov	r18,r6
    1e9c:	38a2703a 	and	r17,r7,r2
    1ea0:	b2803fcc 	andi	r10,r22,255
    1ea4:	18006426 	beq	r3,zero,2038 <__muldf3+0x234>
    1ea8:	0081ffc4 	movi	r2,2047
    1eac:	18805c26 	beq	r3,r2,2020 <__muldf3+0x21c>
    1eb0:	8c400434 	orhi	r17,r17,16
    1eb4:	3004d77a 	srli	r2,r6,29
    1eb8:	882290fa 	slli	r17,r17,3
    1ebc:	302490fa 	slli	r18,r6,3
    1ec0:	18ff0044 	addi	r3,r3,-1023
    1ec4:	88a2b03a 	or	r17,r17,r2
    1ec8:	000f883a 	mov	r7,zero
    1ecc:	394ab03a 	or	r5,r7,r5
    1ed0:	280a90ba 	slli	r5,r5,2
    1ed4:	00800034 	movhi	r2,0
    1ed8:	1087bd04 	addi	r2,r2,7924
    1edc:	288b883a 	add	r5,r5,r2
    1ee0:	28800017 	ldw	r2,0(r5)
    1ee4:	a0c7883a 	add	r3,r20,r3
    1ee8:	b54cf03a 	xor	r6,r22,r21
    1eec:	1a000044 	addi	r8,r3,1
    1ef0:	1000683a 	jmp	r2
    1ef4:	00002138 	rdprs	zero,zero,132
    1ef8:	00002124 	muli	zero,zero,132
    1efc:	00002124 	muli	zero,zero,132
    1f00:	00002110 	cmplti	zero,zero,132
    1f04:	00001f50 	cmplti	zero,zero,125
    1f08:	00001f50 	cmplti	zero,zero,125
    1f0c:	000020f8 	rdprs	zero,zero,131
    1f10:	00002110 	cmplti	zero,zero,132
    1f14:	00001f50 	cmplti	zero,zero,125
    1f18:	000020f8 	rdprs	zero,zero,131
    1f1c:	00001f50 	cmplti	zero,zero,125
    1f20:	00002110 	cmplti	zero,zero,132
    1f24:	00001f54 	movui	zero,125
    1f28:	00001f54 	movui	zero,125
    1f2c:	00001f54 	movui	zero,125
    1f30:	00002474 	movhi	zero,145
    1f34:	8104b03a 	or	r2,r16,r4
    1f38:	10006c1e 	bne	r2,zero,20ec <__muldf3+0x2e8>
    1f3c:	01400204 	movi	r5,8
    1f40:	0021883a 	mov	r16,zero
    1f44:	002f883a 	mov	r23,zero
    1f48:	07000084 	movi	fp,2
    1f4c:	003fcd06 	br	1e84 <__muldf3+0x80>
    1f50:	3013883a 	mov	r9,r6
    1f54:	00800084 	movi	r2,2
    1f58:	e080501e 	bne	fp,r2,209c <__muldf3+0x298>
    1f5c:	4cc0004c 	andi	r19,r9,1
    1f60:	0101ffc4 	movi	r4,2047
    1f64:	0021883a 	mov	r16,zero
    1f68:	002f883a 	mov	r23,zero
    1f6c:	2008953a 	slli	r4,r4,20
    1f70:	98c03fcc 	andi	r3,r19,255
    1f74:	04400434 	movhi	r17,16
    1f78:	8c7fffc4 	addi	r17,r17,-1
    1f7c:	180697fa 	slli	r3,r3,31
    1f80:	8460703a 	and	r16,r16,r17
    1f84:	8120b03a 	or	r16,r16,r4
    1f88:	80c6b03a 	or	r3,r16,r3
    1f8c:	b805883a 	mov	r2,r23
    1f90:	dfc01117 	ldw	ra,68(sp)
    1f94:	df001017 	ldw	fp,64(sp)
    1f98:	ddc00f17 	ldw	r23,60(sp)
    1f9c:	dd800e17 	ldw	r22,56(sp)
    1fa0:	dd400d17 	ldw	r21,52(sp)
    1fa4:	dd000c17 	ldw	r20,48(sp)
    1fa8:	dcc00b17 	ldw	r19,44(sp)
    1fac:	dc800a17 	ldw	r18,40(sp)
    1fb0:	dc400917 	ldw	r17,36(sp)
    1fb4:	dc000817 	ldw	r16,32(sp)
    1fb8:	dec01204 	addi	sp,sp,72
    1fbc:	f800283a 	ret
    1fc0:	8104b03a 	or	r2,r16,r4
    1fc4:	10004426 	beq	r2,zero,20d8 <__muldf3+0x2d4>
    1fc8:	80014b26 	beq	r16,zero,24f8 <__muldf3+0x6f4>
    1fcc:	8009883a 	mov	r4,r16
    1fd0:	d9800715 	stw	r6,28(sp)
    1fd4:	d9c00215 	stw	r7,8(sp)
    1fd8:	da400415 	stw	r9,16(sp)
    1fdc:	00030980 	call	3098 <__clzsi2>
    1fe0:	d9800717 	ldw	r6,28(sp)
    1fe4:	d9c00217 	ldw	r7,8(sp)
    1fe8:	da400417 	ldw	r9,16(sp)
    1fec:	1007883a 	mov	r3,r2
    1ff0:	01000a04 	movi	r4,40
    1ff4:	1dfffe04 	addi	r23,r3,-8
    1ff8:	20c9c83a 	sub	r4,r4,r3
    1ffc:	85e0983a 	sll	r16,r16,r23
    2000:	9108d83a 	srl	r4,r18,r4
    2004:	95ee983a 	sll	r23,r18,r23
    2008:	2420b03a 	or	r16,r4,r16
    200c:	053f0344 	movi	r20,-1011
    2010:	a0e9c83a 	sub	r20,r20,r3
    2014:	000b883a 	mov	r5,zero
    2018:	0039883a 	mov	fp,zero
    201c:	003f9906 	br	1e84 <__muldf3+0x80>
    2020:	8984b03a 	or	r2,r17,r6
    2024:	10002a1e 	bne	r2,zero,20d0 <__muldf3+0x2cc>
    2028:	0023883a 	mov	r17,zero
    202c:	0025883a 	mov	r18,zero
    2030:	01c00084 	movi	r7,2
    2034:	003fa506 	br	1ecc <__muldf3+0xc8>
    2038:	8984b03a 	or	r2,r17,r6
    203c:	10002026 	beq	r2,zero,20c0 <__muldf3+0x2bc>
    2040:	88011c26 	beq	r17,zero,24b4 <__muldf3+0x6b0>
    2044:	8809883a 	mov	r4,r17
    2048:	d9400215 	stw	r5,8(sp)
    204c:	d9800715 	stw	r6,28(sp)
    2050:	da400415 	stw	r9,16(sp)
    2054:	da800315 	stw	r10,12(sp)
    2058:	00030980 	call	3098 <__clzsi2>
    205c:	d9400217 	ldw	r5,8(sp)
    2060:	d9800717 	ldw	r6,28(sp)
    2064:	da400417 	ldw	r9,16(sp)
    2068:	da800317 	ldw	r10,12(sp)
    206c:	1007883a 	mov	r3,r2
    2070:	01000a04 	movi	r4,40
    2074:	1cbffe04 	addi	r18,r3,-8
    2078:	20c9c83a 	sub	r4,r4,r3
    207c:	8ca2983a 	sll	r17,r17,r18
    2080:	3108d83a 	srl	r4,r6,r4
    2084:	34a4983a 	sll	r18,r6,r18
    2088:	2462b03a 	or	r17,r4,r17
    208c:	00bf0344 	movi	r2,-1011
    2090:	10c7c83a 	sub	r3,r2,r3
    2094:	000f883a 	mov	r7,zero
    2098:	003f8c06 	br	1ecc <__muldf3+0xc8>
    209c:	008000c4 	movi	r2,3
    20a0:	e0816d26 	beq	fp,r2,2658 <__muldf3+0x854>
    20a4:	00800044 	movi	r2,1
    20a8:	e081321e 	bne	fp,r2,2574 <__muldf3+0x770>
    20ac:	48a6703a 	and	r19,r9,r2
    20b0:	0009883a 	mov	r4,zero
    20b4:	0021883a 	mov	r16,zero
    20b8:	002f883a 	mov	r23,zero
    20bc:	003fab06 	br	1f6c <__muldf3+0x168>
    20c0:	0023883a 	mov	r17,zero
    20c4:	0025883a 	mov	r18,zero
    20c8:	01c00044 	movi	r7,1
    20cc:	003f7f06 	br	1ecc <__muldf3+0xc8>
    20d0:	01c000c4 	movi	r7,3
    20d4:	003f7d06 	br	1ecc <__muldf3+0xc8>
    20d8:	01400104 	movi	r5,4
    20dc:	0021883a 	mov	r16,zero
    20e0:	002f883a 	mov	r23,zero
    20e4:	07000044 	movi	fp,1
    20e8:	003f6606 	br	1e84 <__muldf3+0x80>
    20ec:	01400304 	movi	r5,12
    20f0:	070000c4 	movi	fp,3
    20f4:	003f6306 	br	1e84 <__muldf3+0x80>
    20f8:	04000434 	movhi	r16,16
    20fc:	0027883a 	mov	r19,zero
    2100:	843fffc4 	addi	r16,r16,-1
    2104:	05ffffc4 	movi	r23,-1
    2108:	0101ffc4 	movi	r4,2047
    210c:	003f9706 	br	1f6c <__muldf3+0x168>
    2110:	8821883a 	mov	r16,r17
    2114:	902f883a 	mov	r23,r18
    2118:	5013883a 	mov	r9,r10
    211c:	3839883a 	mov	fp,r7
    2120:	003f8c06 	br	1f54 <__muldf3+0x150>
    2124:	8821883a 	mov	r16,r17
    2128:	902f883a 	mov	r23,r18
    212c:	3013883a 	mov	r9,r6
    2130:	3839883a 	mov	fp,r7
    2134:	003f8706 	br	1f54 <__muldf3+0x150>
    2138:	b82ad43a 	srli	r21,r23,16
    213c:	9038d43a 	srli	fp,r18,16
    2140:	bdffffcc 	andi	r23,r23,65535
    2144:	94bfffcc 	andi	r18,r18,65535
    2148:	9009883a 	mov	r4,r18
    214c:	b80b883a 	mov	r5,r23
    2150:	d8c00515 	stw	r3,20(sp)
    2154:	d9800715 	stw	r6,28(sp)
    2158:	da000615 	stw	r8,24(sp)
    215c:	000129c0 	call	129c <__mulsi3>
    2160:	9009883a 	mov	r4,r18
    2164:	a80b883a 	mov	r5,r21
    2168:	1029883a 	mov	r20,r2
    216c:	000129c0 	call	129c <__mulsi3>
    2170:	e009883a 	mov	r4,fp
    2174:	a80b883a 	mov	r5,r21
    2178:	102d883a 	mov	r22,r2
    217c:	000129c0 	call	129c <__mulsi3>
    2180:	e009883a 	mov	r4,fp
    2184:	b80b883a 	mov	r5,r23
    2188:	1027883a 	mov	r19,r2
    218c:	000129c0 	call	129c <__mulsi3>
    2190:	a008d43a 	srli	r4,r20,16
    2194:	b085883a 	add	r2,r22,r2
    2198:	d8c00517 	ldw	r3,20(sp)
    219c:	110f883a 	add	r7,r2,r4
    21a0:	d9800717 	ldw	r6,28(sp)
    21a4:	da000617 	ldw	r8,24(sp)
    21a8:	3d80022e 	bgeu	r7,r22,21b4 <__muldf3+0x3b0>
    21ac:	00800074 	movhi	r2,1
    21b0:	98a7883a 	add	r19,r19,r2
    21b4:	3804943a 	slli	r2,r7,16
    21b8:	380ed43a 	srli	r7,r7,16
    21bc:	882cd43a 	srli	r22,r17,16
    21c0:	a53fffcc 	andi	r20,r20,65535
    21c4:	8c7fffcc 	andi	r17,r17,65535
    21c8:	1529883a 	add	r20,r2,r20
    21cc:	8809883a 	mov	r4,r17
    21d0:	b80b883a 	mov	r5,r23
    21d4:	d8c00515 	stw	r3,20(sp)
    21d8:	d9800715 	stw	r6,28(sp)
    21dc:	da000615 	stw	r8,24(sp)
    21e0:	d9c00015 	stw	r7,0(sp)
    21e4:	dd000115 	stw	r20,4(sp)
    21e8:	000129c0 	call	129c <__mulsi3>
    21ec:	a80b883a 	mov	r5,r21
    21f0:	8809883a 	mov	r4,r17
    21f4:	d8800415 	stw	r2,16(sp)
    21f8:	000129c0 	call	129c <__mulsi3>
    21fc:	a80b883a 	mov	r5,r21
    2200:	b009883a 	mov	r4,r22
    2204:	1029883a 	mov	r20,r2
    2208:	000129c0 	call	129c <__mulsi3>
    220c:	b009883a 	mov	r4,r22
    2210:	b80b883a 	mov	r5,r23
    2214:	102b883a 	mov	r21,r2
    2218:	000129c0 	call	129c <__mulsi3>
    221c:	da400417 	ldw	r9,16(sp)
    2220:	a085883a 	add	r2,r20,r2
    2224:	d8c00517 	ldw	r3,20(sp)
    2228:	4808d43a 	srli	r4,r9,16
    222c:	d9800717 	ldw	r6,28(sp)
    2230:	da000617 	ldw	r8,24(sp)
    2234:	1109883a 	add	r4,r2,r4
    2238:	2500022e 	bgeu	r4,r20,2244 <__muldf3+0x440>
    223c:	00800074 	movhi	r2,1
    2240:	a8ab883a 	add	r21,r21,r2
    2244:	200e943a 	slli	r7,r4,16
    2248:	2004d43a 	srli	r2,r4,16
    224c:	802ed43a 	srli	r23,r16,16
    2250:	843fffcc 	andi	r16,r16,65535
    2254:	4d3fffcc 	andi	r20,r9,65535
    2258:	9009883a 	mov	r4,r18
    225c:	800b883a 	mov	r5,r16
    2260:	3d29883a 	add	r20,r7,r20
    2264:	d8c00515 	stw	r3,20(sp)
    2268:	d9800715 	stw	r6,28(sp)
    226c:	da000615 	stw	r8,24(sp)
    2270:	a8ab883a 	add	r21,r21,r2
    2274:	000129c0 	call	129c <__mulsi3>
    2278:	9009883a 	mov	r4,r18
    227c:	b80b883a 	mov	r5,r23
    2280:	d8800315 	stw	r2,12(sp)
    2284:	000129c0 	call	129c <__mulsi3>
    2288:	e009883a 	mov	r4,fp
    228c:	b80b883a 	mov	r5,r23
    2290:	1025883a 	mov	r18,r2
    2294:	000129c0 	call	129c <__mulsi3>
    2298:	e009883a 	mov	r4,fp
    229c:	800b883a 	mov	r5,r16
    22a0:	d8800215 	stw	r2,8(sp)
    22a4:	000129c0 	call	129c <__mulsi3>
    22a8:	da800317 	ldw	r10,12(sp)
    22ac:	d9400017 	ldw	r5,0(sp)
    22b0:	9085883a 	add	r2,r18,r2
    22b4:	5008d43a 	srli	r4,r10,16
    22b8:	a153883a 	add	r9,r20,r5
    22bc:	d8c00517 	ldw	r3,20(sp)
    22c0:	1109883a 	add	r4,r2,r4
    22c4:	d9800717 	ldw	r6,28(sp)
    22c8:	da000617 	ldw	r8,24(sp)
    22cc:	dac00217 	ldw	r11,8(sp)
    22d0:	2480022e 	bgeu	r4,r18,22dc <__muldf3+0x4d8>
    22d4:	00800074 	movhi	r2,1
    22d8:	5897883a 	add	r11,r11,r2
    22dc:	200e943a 	slli	r7,r4,16
    22e0:	2038d43a 	srli	fp,r4,16
    22e4:	52bfffcc 	andi	r10,r10,65535
    22e8:	3a8f883a 	add	r7,r7,r10
    22ec:	8809883a 	mov	r4,r17
    22f0:	800b883a 	mov	r5,r16
    22f4:	d8c00515 	stw	r3,20(sp)
    22f8:	d9800715 	stw	r6,28(sp)
    22fc:	d9c00215 	stw	r7,8(sp)
    2300:	da000615 	stw	r8,24(sp)
    2304:	da400415 	stw	r9,16(sp)
    2308:	5f39883a 	add	fp,r11,fp
    230c:	000129c0 	call	129c <__mulsi3>
    2310:	8809883a 	mov	r4,r17
    2314:	b80b883a 	mov	r5,r23
    2318:	1025883a 	mov	r18,r2
    231c:	000129c0 	call	129c <__mulsi3>
    2320:	b009883a 	mov	r4,r22
    2324:	b80b883a 	mov	r5,r23
    2328:	d8800315 	stw	r2,12(sp)
    232c:	000129c0 	call	129c <__mulsi3>
    2330:	b009883a 	mov	r4,r22
    2334:	800b883a 	mov	r5,r16
    2338:	1023883a 	mov	r17,r2
    233c:	000129c0 	call	129c <__mulsi3>
    2340:	da800317 	ldw	r10,12(sp)
    2344:	9008d43a 	srli	r4,r18,16
    2348:	d8c00517 	ldw	r3,20(sp)
    234c:	5085883a 	add	r2,r10,r2
    2350:	1109883a 	add	r4,r2,r4
    2354:	d9800717 	ldw	r6,28(sp)
    2358:	d9c00217 	ldw	r7,8(sp)
    235c:	da000617 	ldw	r8,24(sp)
    2360:	da400417 	ldw	r9,16(sp)
    2364:	2280022e 	bgeu	r4,r10,2370 <__muldf3+0x56c>
    2368:	00800074 	movhi	r2,1
    236c:	88a3883a 	add	r17,r17,r2
    2370:	2004943a 	slli	r2,r4,16
    2374:	94bfffcc 	andi	r18,r18,65535
    2378:	4ce7883a 	add	r19,r9,r19
    237c:	14a5883a 	add	r18,r2,r18
    2380:	9d29803a 	cmpltu	r20,r19,r20
    2384:	9565883a 	add	r18,r18,r21
    2388:	9505883a 	add	r2,r18,r20
    238c:	99e7883a 	add	r19,r19,r7
    2390:	99cf803a 	cmpltu	r7,r19,r7
    2394:	e08b883a 	add	r5,fp,r2
    2398:	2008d43a 	srli	r4,r4,16
    239c:	29ef883a 	add	r23,r5,r7
    23a0:	1529803a 	cmpltu	r20,r2,r20
    23a4:	956b803a 	cmpltu	r21,r18,r21
    23a8:	b9cf803a 	cmpltu	r7,r23,r7
    23ac:	a564b03a 	or	r18,r20,r21
    23b0:	2f39803a 	cmpltu	fp,r5,fp
    23b4:	9125883a 	add	r18,r18,r4
    23b8:	3f38b03a 	or	fp,r7,fp
    23bc:	9725883a 	add	r18,r18,fp
    23c0:	9804927a 	slli	r2,r19,9
    23c4:	9463883a 	add	r17,r18,r17
    23c8:	d9000117 	ldw	r4,4(sp)
    23cc:	b820d5fa 	srli	r16,r23,23
    23d0:	8822927a 	slli	r17,r17,9
    23d4:	9826d5fa 	srli	r19,r19,23
    23d8:	1104b03a 	or	r2,r2,r4
    23dc:	b82e927a 	slli	r23,r23,9
    23e0:	1004c03a 	cmpne	r2,r2,zero
    23e4:	8c20b03a 	or	r16,r17,r16
    23e8:	14e6b03a 	or	r19,r2,r19
    23ec:	8080402c 	andhi	r2,r16,256
    23f0:	9deeb03a 	or	r23,r19,r23
    23f4:	10000726 	beq	r2,zero,2414 <__muldf3+0x610>
    23f8:	b804d07a 	srli	r2,r23,1
    23fc:	800697fa 	slli	r3,r16,31
    2400:	bdc0004c 	andi	r23,r23,1
    2404:	8020d07a 	srli	r16,r16,1
    2408:	b8aeb03a 	or	r23,r23,r2
    240c:	b8eeb03a 	or	r23,r23,r3
    2410:	4007883a 	mov	r3,r8
    2414:	1900ffc4 	addi	r4,r3,1023
    2418:	01004d0e 	bge	zero,r4,2550 <__muldf3+0x74c>
    241c:	b88001cc 	andi	r2,r23,7
    2420:	10000726 	beq	r2,zero,2440 <__muldf3+0x63c>
    2424:	b94003cc 	andi	r5,r23,15
    2428:	00800104 	movi	r2,4
    242c:	28800426 	beq	r5,r2,2440 <__muldf3+0x63c>
    2430:	b885883a 	add	r2,r23,r2
    2434:	15ef803a 	cmpltu	r23,r2,r23
    2438:	85e1883a 	add	r16,r16,r23
    243c:	102f883a 	mov	r23,r2
    2440:	8080402c 	andhi	r2,r16,256
    2444:	10000426 	beq	r2,zero,2458 <__muldf3+0x654>
    2448:	00bfc034 	movhi	r2,65280
    244c:	10bfffc4 	addi	r2,r2,-1
    2450:	19010004 	addi	r4,r3,1024
    2454:	80a0703a 	and	r16,r16,r2
    2458:	0081ff84 	movi	r2,2046
    245c:	1100340e 	bge	r2,r4,2530 <__muldf3+0x72c>
    2460:	34c0004c 	andi	r19,r6,1
    2464:	0101ffc4 	movi	r4,2047
    2468:	0021883a 	mov	r16,zero
    246c:	002f883a 	mov	r23,zero
    2470:	003ebe06 	br	1f6c <__muldf3+0x168>
    2474:	8080022c 	andhi	r2,r16,8
    2478:	10000926 	beq	r2,zero,24a0 <__muldf3+0x69c>
    247c:	8880022c 	andhi	r2,r17,8
    2480:	1000071e 	bne	r2,zero,24a0 <__muldf3+0x69c>
    2484:	00800434 	movhi	r2,16
    2488:	8c000234 	orhi	r16,r17,8
    248c:	10bfffc4 	addi	r2,r2,-1
    2490:	b027883a 	mov	r19,r22
    2494:	80a0703a 	and	r16,r16,r2
    2498:	902f883a 	mov	r23,r18
    249c:	003f1a06 	br	2108 <__muldf3+0x304>
    24a0:	00800434 	movhi	r2,16
    24a4:	84000234 	orhi	r16,r16,8
    24a8:	10bfffc4 	addi	r2,r2,-1
    24ac:	80a0703a 	and	r16,r16,r2
    24b0:	003f1506 	br	2108 <__muldf3+0x304>
    24b4:	3009883a 	mov	r4,r6
    24b8:	d9400215 	stw	r5,8(sp)
    24bc:	d9800715 	stw	r6,28(sp)
    24c0:	da400415 	stw	r9,16(sp)
    24c4:	da800315 	stw	r10,12(sp)
    24c8:	00030980 	call	3098 <__clzsi2>
    24cc:	10c00804 	addi	r3,r2,32
    24d0:	010009c4 	movi	r4,39
    24d4:	d9400217 	ldw	r5,8(sp)
    24d8:	d9800717 	ldw	r6,28(sp)
    24dc:	da400417 	ldw	r9,16(sp)
    24e0:	da800317 	ldw	r10,12(sp)
    24e4:	20fee20e 	bge	r4,r3,2070 <__muldf3+0x26c>
    24e8:	147ffe04 	addi	r17,r2,-8
    24ec:	9462983a 	sll	r17,r18,r17
    24f0:	0025883a 	mov	r18,zero
    24f4:	003ee506 	br	208c <__muldf3+0x288>
    24f8:	d9800715 	stw	r6,28(sp)
    24fc:	d9c00215 	stw	r7,8(sp)
    2500:	da400415 	stw	r9,16(sp)
    2504:	00030980 	call	3098 <__clzsi2>
    2508:	10c00804 	addi	r3,r2,32
    250c:	010009c4 	movi	r4,39
    2510:	d9800717 	ldw	r6,28(sp)
    2514:	d9c00217 	ldw	r7,8(sp)
    2518:	da400417 	ldw	r9,16(sp)
    251c:	20feb40e 	bge	r4,r3,1ff0 <__muldf3+0x1ec>
    2520:	143ffe04 	addi	r16,r2,-8
    2524:	9420983a 	sll	r16,r18,r16
    2528:	002f883a 	mov	r23,zero
    252c:	003eb706 	br	200c <__muldf3+0x208>
    2530:	8004977a 	slli	r2,r16,29
    2534:	b82ed0fa 	srli	r23,r23,3
    2538:	8020927a 	slli	r16,r16,9
    253c:	2101ffcc 	andi	r4,r4,2047
    2540:	15eeb03a 	or	r23,r2,r23
    2544:	8020d33a 	srli	r16,r16,12
    2548:	34c0004c 	andi	r19,r6,1
    254c:	003e8706 	br	1f6c <__muldf3+0x168>
    2550:	00bf0084 	movi	r2,-1022
    2554:	10c5c83a 	sub	r2,r2,r3
    2558:	01000e04 	movi	r4,56
    255c:	2080080e 	bge	r4,r2,2580 <__muldf3+0x77c>
    2560:	34c0004c 	andi	r19,r6,1
    2564:	0009883a 	mov	r4,zero
    2568:	0021883a 	mov	r16,zero
    256c:	002f883a 	mov	r23,zero
    2570:	003e7e06 	br	1f6c <__muldf3+0x168>
    2574:	4007883a 	mov	r3,r8
    2578:	480d883a 	mov	r6,r9
    257c:	003fa506 	br	2414 <__muldf3+0x610>
    2580:	010007c4 	movi	r4,31
    2584:	20801816 	blt	r4,r2,25e8 <__muldf3+0x7e4>
    2588:	18c10784 	addi	r3,r3,1054
    258c:	80c8983a 	sll	r4,r16,r3
    2590:	b88ad83a 	srl	r5,r23,r2
    2594:	b8c6983a 	sll	r3,r23,r3
    2598:	80a0d83a 	srl	r16,r16,r2
    259c:	2908b03a 	or	r4,r5,r4
    25a0:	1804c03a 	cmpne	r2,r3,zero
    25a4:	2088b03a 	or	r4,r4,r2
    25a8:	208001cc 	andi	r2,r4,7
    25ac:	10000726 	beq	r2,zero,25cc <__muldf3+0x7c8>
    25b0:	20c003cc 	andi	r3,r4,15
    25b4:	00800104 	movi	r2,4
    25b8:	18800426 	beq	r3,r2,25cc <__muldf3+0x7c8>
    25bc:	20c00104 	addi	r3,r4,4
    25c0:	1905803a 	cmpltu	r2,r3,r4
    25c4:	80a1883a 	add	r16,r16,r2
    25c8:	1809883a 	mov	r4,r3
    25cc:	8080202c 	andhi	r2,r16,128
    25d0:	10001b26 	beq	r2,zero,2640 <__muldf3+0x83c>
    25d4:	34c0004c 	andi	r19,r6,1
    25d8:	01000044 	movi	r4,1
    25dc:	0021883a 	mov	r16,zero
    25e0:	002f883a 	mov	r23,zero
    25e4:	003e6106 	br	1f6c <__muldf3+0x168>
    25e8:	013ef884 	movi	r4,-1054
    25ec:	20c9c83a 	sub	r4,r4,r3
    25f0:	01400804 	movi	r5,32
    25f4:	8108d83a 	srl	r4,r16,r4
    25f8:	11401526 	beq	r2,r5,2650 <__muldf3+0x84c>
    25fc:	18c10f84 	addi	r3,r3,1086
    2600:	80e0983a 	sll	r16,r16,r3
    2604:	85eeb03a 	or	r23,r16,r23
    2608:	b804c03a 	cmpne	r2,r23,zero
    260c:	1108b03a 	or	r4,r2,r4
    2610:	20c001cc 	andi	r3,r4,7
    2614:	1800061e 	bne	r3,zero,2630 <__muldf3+0x82c>
    2618:	0021883a 	mov	r16,zero
    261c:	202ed0fa 	srli	r23,r4,3
    2620:	34c0004c 	andi	r19,r6,1
    2624:	0009883a 	mov	r4,zero
    2628:	b8eeb03a 	or	r23,r23,r3
    262c:	003e4f06 	br	1f6c <__muldf3+0x168>
    2630:	20c003cc 	andi	r3,r4,15
    2634:	00800104 	movi	r2,4
    2638:	0021883a 	mov	r16,zero
    263c:	18bfdf1e 	bne	r3,r2,25bc <__muldf3+0x7b8>
    2640:	8004927a 	slli	r2,r16,9
    2644:	8006977a 	slli	r3,r16,29
    2648:	1020d33a 	srli	r16,r2,12
    264c:	003ff306 	br	261c <__muldf3+0x818>
    2650:	0021883a 	mov	r16,zero
    2654:	003feb06 	br	2604 <__muldf3+0x800>
    2658:	00800434 	movhi	r2,16
    265c:	84000234 	orhi	r16,r16,8
    2660:	10bfffc4 	addi	r2,r2,-1
    2664:	4cc0004c 	andi	r19,r9,1
    2668:	80a0703a 	and	r16,r16,r2
    266c:	003ea606 	br	2108 <__muldf3+0x304>

00002670 <__subdf3>:
    2670:	00c00434 	movhi	r3,16
    2674:	18ffffc4 	addi	r3,r3,-1
    2678:	defffb04 	addi	sp,sp,-20
    267c:	28d2703a 	and	r9,r5,r3
    2680:	3814d53a 	srli	r10,r7,20
    2684:	38c6703a 	and	r3,r7,r3
    2688:	3004d77a 	srli	r2,r6,29
    268c:	dc800215 	stw	r18,8(sp)
    2690:	dc000015 	stw	r16,0(sp)
    2694:	2824d7fa 	srli	r18,r5,31
    2698:	2820d53a 	srli	r16,r5,20
    269c:	481290fa 	slli	r9,r9,3
    26a0:	200ad77a 	srli	r5,r4,29
    26a4:	180690fa 	slli	r3,r3,3
    26a8:	dc400115 	stw	r17,4(sp)
    26ac:	dfc00415 	stw	ra,16(sp)
    26b0:	202290fa 	slli	r17,r4,3
    26b4:	dcc00315 	stw	r19,12(sp)
    26b8:	5281ffcc 	andi	r10,r10,2047
    26bc:	0101ffc4 	movi	r4,2047
    26c0:	9011883a 	mov	r8,r18
    26c4:	8401ffcc 	andi	r16,r16,2047
    26c8:	94803fcc 	andi	r18,r18,255
    26cc:	494ab03a 	or	r5,r9,r5
    26d0:	380ed7fa 	srli	r7,r7,31
    26d4:	1886b03a 	or	r3,r3,r2
    26d8:	300c90fa 	slli	r6,r6,3
    26dc:	51009026 	beq	r10,r4,2920 <__subdf3+0x2b0>
    26e0:	39c0005c 	xori	r7,r7,1
    26e4:	8285c83a 	sub	r2,r16,r10
    26e8:	91c06f26 	beq	r18,r7,28a8 <__subdf3+0x238>
    26ec:	0080b10e 	bge	zero,r2,29b4 <__subdf3+0x344>
    26f0:	50002a1e 	bne	r10,zero,279c <__subdf3+0x12c>
    26f4:	1988b03a 	or	r4,r3,r6
    26f8:	2000941e 	bne	r4,zero,294c <__subdf3+0x2dc>
    26fc:	888001cc 	andi	r2,r17,7
    2700:	10005b26 	beq	r2,zero,2870 <__subdf3+0x200>
    2704:	88c003cc 	andi	r3,r17,15
    2708:	00800104 	movi	r2,4
    270c:	18805826 	beq	r3,r2,2870 <__subdf3+0x200>
    2710:	88c00104 	addi	r3,r17,4
    2714:	1c63803a 	cmpltu	r17,r3,r17
    2718:	2c4b883a 	add	r5,r5,r17
    271c:	2880202c 	andhi	r2,r5,128
    2720:	9200004c 	andi	r8,r18,1
    2724:	1823883a 	mov	r17,r3
    2728:	10005426 	beq	r2,zero,287c <__subdf3+0x20c>
    272c:	84000044 	addi	r16,r16,1
    2730:	0081ffc4 	movi	r2,2047
    2734:	8080bf26 	beq	r16,r2,2a34 <__subdf3+0x3c4>
    2738:	013fe034 	movhi	r4,65408
    273c:	213fffc4 	addi	r4,r4,-1
    2740:	290a703a 	and	r5,r5,r4
    2744:	2804977a 	slli	r2,r5,29
    2748:	280a927a 	slli	r5,r5,9
    274c:	8822d0fa 	srli	r17,r17,3
    2750:	8401ffcc 	andi	r16,r16,2047
    2754:	2808d33a 	srli	r4,r5,12
    2758:	1444b03a 	or	r2,r2,r17
    275c:	8401ffcc 	andi	r16,r16,2047
    2760:	800a953a 	slli	r5,r16,20
    2764:	40c03fcc 	andi	r3,r8,255
    2768:	04000434 	movhi	r16,16
    276c:	180697fa 	slli	r3,r3,31
    2770:	843fffc4 	addi	r16,r16,-1
    2774:	2420703a 	and	r16,r4,r16
    2778:	8160b03a 	or	r16,r16,r5
    277c:	80c6b03a 	or	r3,r16,r3
    2780:	dfc00417 	ldw	ra,16(sp)
    2784:	dcc00317 	ldw	r19,12(sp)
    2788:	dc800217 	ldw	r18,8(sp)
    278c:	dc400117 	ldw	r17,4(sp)
    2790:	dc000017 	ldw	r16,0(sp)
    2794:	dec00504 	addi	sp,sp,20
    2798:	f800283a 	ret
    279c:	0101ffc4 	movi	r4,2047
    27a0:	813fd626 	beq	r16,r4,26fc <__subdf3+0x8c>
    27a4:	18c02034 	orhi	r3,r3,128
    27a8:	01000e04 	movi	r4,56
    27ac:	2080a416 	blt	r4,r2,2a40 <__subdf3+0x3d0>
    27b0:	010007c4 	movi	r4,31
    27b4:	2080c716 	blt	r4,r2,2ad4 <__subdf3+0x464>
    27b8:	01000804 	movi	r4,32
    27bc:	2089c83a 	sub	r4,r4,r2
    27c0:	1910983a 	sll	r8,r3,r4
    27c4:	308ed83a 	srl	r7,r6,r2
    27c8:	3108983a 	sll	r4,r6,r4
    27cc:	1884d83a 	srl	r2,r3,r2
    27d0:	41ccb03a 	or	r6,r8,r7
    27d4:	2008c03a 	cmpne	r4,r4,zero
    27d8:	310cb03a 	or	r6,r6,r4
    27dc:	898dc83a 	sub	r6,r17,r6
    27e0:	89a3803a 	cmpltu	r17,r17,r6
    27e4:	288bc83a 	sub	r5,r5,r2
    27e8:	2c4bc83a 	sub	r5,r5,r17
    27ec:	3023883a 	mov	r17,r6
    27f0:	2880202c 	andhi	r2,r5,128
    27f4:	10006b26 	beq	r2,zero,29a4 <__subdf3+0x334>
    27f8:	04c02034 	movhi	r19,128
    27fc:	9cffffc4 	addi	r19,r19,-1
    2800:	2ce6703a 	and	r19,r5,r19
    2804:	98007c26 	beq	r19,zero,29f8 <__subdf3+0x388>
    2808:	9809883a 	mov	r4,r19
    280c:	00030980 	call	3098 <__clzsi2>
    2810:	10fffe04 	addi	r3,r2,-8
    2814:	010007c4 	movi	r4,31
    2818:	20c07d16 	blt	r4,r3,2a10 <__subdf3+0x3a0>
    281c:	01400a04 	movi	r5,40
    2820:	2885c83a 	sub	r2,r5,r2
    2824:	888ad83a 	srl	r5,r17,r2
    2828:	98e6983a 	sll	r19,r19,r3
    282c:	88e2983a 	sll	r17,r17,r3
    2830:	2ce6b03a 	or	r19,r5,r19
    2834:	1c007a16 	blt	r3,r16,2a20 <__subdf3+0x3b0>
    2838:	1c21c83a 	sub	r16,r3,r16
    283c:	81400044 	addi	r5,r16,1
    2840:	00c007c4 	movi	r3,31
    2844:	19409616 	blt	r3,r5,2aa0 <__subdf3+0x430>
    2848:	1c21c83a 	sub	r16,r3,r16
    284c:	8c08983a 	sll	r4,r17,r16
    2850:	8946d83a 	srl	r3,r17,r5
    2854:	9c20983a 	sll	r16,r19,r16
    2858:	2008c03a 	cmpne	r4,r4,zero
    285c:	994ad83a 	srl	r5,r19,r5
    2860:	1c06b03a 	or	r3,r3,r16
    2864:	1922b03a 	or	r17,r3,r4
    2868:	0021883a 	mov	r16,zero
    286c:	003fa306 	br	26fc <__subdf3+0x8c>
    2870:	2880202c 	andhi	r2,r5,128
    2874:	9200004c 	andi	r8,r18,1
    2878:	103fac1e 	bne	r2,zero,272c <__subdf3+0xbc>
    287c:	2804977a 	slli	r2,r5,29
    2880:	8822d0fa 	srli	r17,r17,3
    2884:	00c1ffc4 	movi	r3,2047
    2888:	280ad0fa 	srli	r5,r5,3
    288c:	1444b03a 	or	r2,r2,r17
    2890:	80c02726 	beq	r16,r3,2930 <__subdf3+0x2c0>
    2894:	01000434 	movhi	r4,16
    2898:	213fffc4 	addi	r4,r4,-1
    289c:	80e0703a 	and	r16,r16,r3
    28a0:	2908703a 	and	r4,r5,r4
    28a4:	003fad06 	br	275c <__subdf3+0xec>
    28a8:	0080690e 	bge	zero,r2,2a50 <__subdf3+0x3e0>
    28ac:	50002f26 	beq	r10,zero,296c <__subdf3+0x2fc>
    28b0:	0101ffc4 	movi	r4,2047
    28b4:	813f9126 	beq	r16,r4,26fc <__subdf3+0x8c>
    28b8:	18c02034 	orhi	r3,r3,128
    28bc:	01000e04 	movi	r4,56
    28c0:	2080b00e 	bge	r4,r2,2b84 <__subdf3+0x514>
    28c4:	198cb03a 	or	r6,r3,r6
    28c8:	300ec03a 	cmpne	r7,r6,zero
    28cc:	0005883a 	mov	r2,zero
    28d0:	3c4f883a 	add	r7,r7,r17
    28d4:	3c63803a 	cmpltu	r17,r7,r17
    28d8:	114b883a 	add	r5,r2,r5
    28dc:	2c4b883a 	add	r5,r5,r17
    28e0:	3823883a 	mov	r17,r7
    28e4:	2880202c 	andhi	r2,r5,128
    28e8:	10002e26 	beq	r2,zero,29a4 <__subdf3+0x334>
    28ec:	84000044 	addi	r16,r16,1
    28f0:	0081ffc4 	movi	r2,2047
    28f4:	8080de26 	beq	r16,r2,2c70 <__subdf3+0x600>
    28f8:	00bfe034 	movhi	r2,65408
    28fc:	10bfffc4 	addi	r2,r2,-1
    2900:	288a703a 	and	r5,r5,r2
    2904:	880cd07a 	srli	r6,r17,1
    2908:	280897fa 	slli	r4,r5,31
    290c:	88c0004c 	andi	r3,r17,1
    2910:	30e2b03a 	or	r17,r6,r3
    2914:	280ad07a 	srli	r5,r5,1
    2918:	8922b03a 	or	r17,r17,r4
    291c:	003f7706 	br	26fc <__subdf3+0x8c>
    2920:	1984b03a 	or	r2,r3,r6
    2924:	103f6e26 	beq	r2,zero,26e0 <__subdf3+0x70>
    2928:	39c03fcc 	andi	r7,r7,255
    292c:	003f6d06 	br	26e4 <__subdf3+0x74>
    2930:	1146b03a 	or	r3,r2,r5
    2934:	18003f26 	beq	r3,zero,2a34 <__subdf3+0x3c4>
    2938:	00c00434 	movhi	r3,16
    293c:	29000234 	orhi	r4,r5,8
    2940:	18ffffc4 	addi	r3,r3,-1
    2944:	20c8703a 	and	r4,r4,r3
    2948:	003f8406 	br	275c <__subdf3+0xec>
    294c:	10bfffc4 	addi	r2,r2,-1
    2950:	1000501e 	bne	r2,zero,2a94 <__subdf3+0x424>
    2954:	898fc83a 	sub	r7,r17,r6
    2958:	89e3803a 	cmpltu	r17,r17,r7
    295c:	28cbc83a 	sub	r5,r5,r3
    2960:	2c4bc83a 	sub	r5,r5,r17
    2964:	3823883a 	mov	r17,r7
    2968:	003fa106 	br	27f0 <__subdf3+0x180>
    296c:	1988b03a 	or	r4,r3,r6
    2970:	203f6226 	beq	r4,zero,26fc <__subdf3+0x8c>
    2974:	10bfffc4 	addi	r2,r2,-1
    2978:	10009b1e 	bne	r2,zero,2be8 <__subdf3+0x578>
    297c:	344d883a 	add	r6,r6,r17
    2980:	3463803a 	cmpltu	r17,r6,r17
    2984:	194b883a 	add	r5,r3,r5
    2988:	2c4b883a 	add	r5,r5,r17
    298c:	3023883a 	mov	r17,r6
    2990:	003fd406 	br	28e4 <__subdf3+0x274>
    2994:	1106b03a 	or	r3,r2,r4
    2998:	1800b426 	beq	r3,zero,2c6c <__subdf3+0x5fc>
    299c:	100b883a 	mov	r5,r2
    29a0:	2023883a 	mov	r17,r4
    29a4:	888001cc 	andi	r2,r17,7
    29a8:	103f561e 	bne	r2,zero,2704 <__subdf3+0x94>
    29ac:	9200004c 	andi	r8,r18,1
    29b0:	003fb206 	br	287c <__subdf3+0x20c>
    29b4:	1000531e 	bne	r2,zero,2b04 <__subdf3+0x494>
    29b8:	80800044 	addi	r2,r16,1
    29bc:	1081ffcc 	andi	r2,r2,2047
    29c0:	01000044 	movi	r4,1
    29c4:	2080a00e 	bge	r4,r2,2c48 <__subdf3+0x5d8>
    29c8:	8985c83a 	sub	r2,r17,r6
    29cc:	8889803a 	cmpltu	r4,r17,r2
    29d0:	28e7c83a 	sub	r19,r5,r3
    29d4:	9927c83a 	sub	r19,r19,r4
    29d8:	9900202c 	andhi	r4,r19,128
    29dc:	20006226 	beq	r4,zero,2b68 <__subdf3+0x4f8>
    29e0:	3463c83a 	sub	r17,r6,r17
    29e4:	194bc83a 	sub	r5,r3,r5
    29e8:	344d803a 	cmpltu	r6,r6,r17
    29ec:	29a7c83a 	sub	r19,r5,r6
    29f0:	3825883a 	mov	r18,r7
    29f4:	983f841e 	bne	r19,zero,2808 <__subdf3+0x198>
    29f8:	8809883a 	mov	r4,r17
    29fc:	00030980 	call	3098 <__clzsi2>
    2a00:	10800804 	addi	r2,r2,32
    2a04:	10fffe04 	addi	r3,r2,-8
    2a08:	010007c4 	movi	r4,31
    2a0c:	20ff830e 	bge	r4,r3,281c <__subdf3+0x1ac>
    2a10:	14fff604 	addi	r19,r2,-40
    2a14:	8ce6983a 	sll	r19,r17,r19
    2a18:	0023883a 	mov	r17,zero
    2a1c:	1c3f860e 	bge	r3,r16,2838 <__subdf3+0x1c8>
    2a20:	017fe034 	movhi	r5,65408
    2a24:	297fffc4 	addi	r5,r5,-1
    2a28:	80e1c83a 	sub	r16,r16,r3
    2a2c:	994a703a 	and	r5,r19,r5
    2a30:	003f3206 	br	26fc <__subdf3+0x8c>
    2a34:	0009883a 	mov	r4,zero
    2a38:	0005883a 	mov	r2,zero
    2a3c:	003f4706 	br	275c <__subdf3+0xec>
    2a40:	198cb03a 	or	r6,r3,r6
    2a44:	300cc03a 	cmpne	r6,r6,zero
    2a48:	0005883a 	mov	r2,zero
    2a4c:	003f6306 	br	27dc <__subdf3+0x16c>
    2a50:	10009d1e 	bne	r2,zero,2cc8 <__subdf3+0x658>
    2a54:	81c00044 	addi	r7,r16,1
    2a58:	3881ffcc 	andi	r2,r7,2047
    2a5c:	02400044 	movi	r9,1
    2a60:	4880680e 	bge	r9,r2,2c04 <__subdf3+0x594>
    2a64:	0081ffc4 	movi	r2,2047
    2a68:	3880ae26 	beq	r7,r2,2d24 <__subdf3+0x6b4>
    2a6c:	344d883a 	add	r6,r6,r17
    2a70:	3463803a 	cmpltu	r17,r6,r17
    2a74:	194b883a 	add	r5,r3,r5
    2a78:	2c4b883a 	add	r5,r5,r17
    2a7c:	282297fa 	slli	r17,r5,31
    2a80:	300cd07a 	srli	r6,r6,1
    2a84:	280ad07a 	srli	r5,r5,1
    2a88:	3821883a 	mov	r16,r7
    2a8c:	89a2b03a 	or	r17,r17,r6
    2a90:	003f1a06 	br	26fc <__subdf3+0x8c>
    2a94:	0101ffc4 	movi	r4,2047
    2a98:	813f431e 	bne	r16,r4,27a8 <__subdf3+0x138>
    2a9c:	003f1706 	br	26fc <__subdf3+0x8c>
    2aa0:	80bff844 	addi	r2,r16,-31
    2aa4:	00c00804 	movi	r3,32
    2aa8:	9884d83a 	srl	r2,r19,r2
    2aac:	28c05126 	beq	r5,r3,2bf4 <__subdf3+0x584>
    2ab0:	00c00fc4 	movi	r3,63
    2ab4:	1c21c83a 	sub	r16,r3,r16
    2ab8:	9c26983a 	sll	r19,r19,r16
    2abc:	9c62b03a 	or	r17,r19,r17
    2ac0:	8822c03a 	cmpne	r17,r17,zero
    2ac4:	88a2b03a 	or	r17,r17,r2
    2ac8:	000b883a 	mov	r5,zero
    2acc:	0021883a 	mov	r16,zero
    2ad0:	003fb406 	br	29a4 <__subdf3+0x334>
    2ad4:	113ff804 	addi	r4,r2,-32
    2ad8:	01c00804 	movi	r7,32
    2adc:	1908d83a 	srl	r4,r3,r4
    2ae0:	11c04626 	beq	r2,r7,2bfc <__subdf3+0x58c>
    2ae4:	01c01004 	movi	r7,64
    2ae8:	3885c83a 	sub	r2,r7,r2
    2aec:	1884983a 	sll	r2,r3,r2
    2af0:	118cb03a 	or	r6,r2,r6
    2af4:	300cc03a 	cmpne	r6,r6,zero
    2af8:	310cb03a 	or	r6,r6,r4
    2afc:	0005883a 	mov	r2,zero
    2b00:	003f3606 	br	27dc <__subdf3+0x16c>
    2b04:	80002b26 	beq	r16,zero,2bb4 <__subdf3+0x544>
    2b08:	0101ffc4 	movi	r4,2047
    2b0c:	51006926 	beq	r10,r4,2cb4 <__subdf3+0x644>
    2b10:	0085c83a 	sub	r2,zero,r2
    2b14:	29402034 	orhi	r5,r5,128
    2b18:	01000e04 	movi	r4,56
    2b1c:	20807d16 	blt	r4,r2,2d14 <__subdf3+0x6a4>
    2b20:	010007c4 	movi	r4,31
    2b24:	2080d916 	blt	r4,r2,2e8c <__subdf3+0x81c>
    2b28:	01000804 	movi	r4,32
    2b2c:	2089c83a 	sub	r4,r4,r2
    2b30:	2912983a 	sll	r9,r5,r4
    2b34:	8890d83a 	srl	r8,r17,r2
    2b38:	8908983a 	sll	r4,r17,r4
    2b3c:	2884d83a 	srl	r2,r5,r2
    2b40:	4a22b03a 	or	r17,r9,r8
    2b44:	2008c03a 	cmpne	r4,r4,zero
    2b48:	8922b03a 	or	r17,r17,r4
    2b4c:	3463c83a 	sub	r17,r6,r17
    2b50:	1885c83a 	sub	r2,r3,r2
    2b54:	344d803a 	cmpltu	r6,r6,r17
    2b58:	118bc83a 	sub	r5,r2,r6
    2b5c:	5021883a 	mov	r16,r10
    2b60:	3825883a 	mov	r18,r7
    2b64:	003f2206 	br	27f0 <__subdf3+0x180>
    2b68:	9886b03a 	or	r3,r19,r2
    2b6c:	18001c1e 	bne	r3,zero,2be0 <__subdf3+0x570>
    2b70:	0011883a 	mov	r8,zero
    2b74:	000b883a 	mov	r5,zero
    2b78:	0023883a 	mov	r17,zero
    2b7c:	0021883a 	mov	r16,zero
    2b80:	003f3e06 	br	287c <__subdf3+0x20c>
    2b84:	010007c4 	movi	r4,31
    2b88:	20803c16 	blt	r4,r2,2c7c <__subdf3+0x60c>
    2b8c:	01000804 	movi	r4,32
    2b90:	2089c83a 	sub	r4,r4,r2
    2b94:	1912983a 	sll	r9,r3,r4
    2b98:	308ed83a 	srl	r7,r6,r2
    2b9c:	3108983a 	sll	r4,r6,r4
    2ba0:	1884d83a 	srl	r2,r3,r2
    2ba4:	49ceb03a 	or	r7,r9,r7
    2ba8:	2008c03a 	cmpne	r4,r4,zero
    2bac:	390eb03a 	or	r7,r7,r4
    2bb0:	003f4706 	br	28d0 <__subdf3+0x260>
    2bb4:	2c48b03a 	or	r4,r5,r17
    2bb8:	20003e26 	beq	r4,zero,2cb4 <__subdf3+0x644>
    2bbc:	0084303a 	nor	r2,zero,r2
    2bc0:	10003a1e 	bne	r2,zero,2cac <__subdf3+0x63c>
    2bc4:	3463c83a 	sub	r17,r6,r17
    2bc8:	194bc83a 	sub	r5,r3,r5
    2bcc:	344d803a 	cmpltu	r6,r6,r17
    2bd0:	298bc83a 	sub	r5,r5,r6
    2bd4:	5021883a 	mov	r16,r10
    2bd8:	3825883a 	mov	r18,r7
    2bdc:	003f0406 	br	27f0 <__subdf3+0x180>
    2be0:	1023883a 	mov	r17,r2
    2be4:	003f0706 	br	2804 <__subdf3+0x194>
    2be8:	0101ffc4 	movi	r4,2047
    2bec:	813f331e 	bne	r16,r4,28bc <__subdf3+0x24c>
    2bf0:	003ec206 	br	26fc <__subdf3+0x8c>
    2bf4:	0027883a 	mov	r19,zero
    2bf8:	003fb006 	br	2abc <__subdf3+0x44c>
    2bfc:	0005883a 	mov	r2,zero
    2c00:	003fbb06 	br	2af0 <__subdf3+0x480>
    2c04:	2c44b03a 	or	r2,r5,r17
    2c08:	80008b1e 	bne	r16,zero,2e38 <__subdf3+0x7c8>
    2c0c:	1000b526 	beq	r2,zero,2ee4 <__subdf3+0x874>
    2c10:	1984b03a 	or	r2,r3,r6
    2c14:	103eb926 	beq	r2,zero,26fc <__subdf3+0x8c>
    2c18:	3449883a 	add	r4,r6,r17
    2c1c:	2463803a 	cmpltu	r17,r4,r17
    2c20:	194b883a 	add	r5,r3,r5
    2c24:	2c4b883a 	add	r5,r5,r17
    2c28:	2880202c 	andhi	r2,r5,128
    2c2c:	2023883a 	mov	r17,r4
    2c30:	103f5c26 	beq	r2,zero,29a4 <__subdf3+0x334>
    2c34:	00bfe034 	movhi	r2,65408
    2c38:	10bfffc4 	addi	r2,r2,-1
    2c3c:	4821883a 	mov	r16,r9
    2c40:	288a703a 	and	r5,r5,r2
    2c44:	003ead06 	br	26fc <__subdf3+0x8c>
    2c48:	2c44b03a 	or	r2,r5,r17
    2c4c:	8000291e 	bne	r16,zero,2cf4 <__subdf3+0x684>
    2c50:	10004f1e 	bne	r2,zero,2d90 <__subdf3+0x720>
    2c54:	1984b03a 	or	r2,r3,r6
    2c58:	10000426 	beq	r2,zero,2c6c <__subdf3+0x5fc>
    2c5c:	180b883a 	mov	r5,r3
    2c60:	3023883a 	mov	r17,r6
    2c64:	3825883a 	mov	r18,r7
    2c68:	003ea406 	br	26fc <__subdf3+0x8c>
    2c6c:	0011883a 	mov	r8,zero
    2c70:	000b883a 	mov	r5,zero
    2c74:	0023883a 	mov	r17,zero
    2c78:	003f0006 	br	287c <__subdf3+0x20c>
    2c7c:	11fff804 	addi	r7,r2,-32
    2c80:	19c8d83a 	srl	r4,r3,r7
    2c84:	01c00804 	movi	r7,32
    2c88:	11c07e26 	beq	r2,r7,2e84 <__subdf3+0x814>
    2c8c:	01c01004 	movi	r7,64
    2c90:	3885c83a 	sub	r2,r7,r2
    2c94:	1884983a 	sll	r2,r3,r2
    2c98:	118cb03a 	or	r6,r2,r6
    2c9c:	300ec03a 	cmpne	r7,r6,zero
    2ca0:	390eb03a 	or	r7,r7,r4
    2ca4:	0005883a 	mov	r2,zero
    2ca8:	003f0906 	br	28d0 <__subdf3+0x260>
    2cac:	0101ffc4 	movi	r4,2047
    2cb0:	513f991e 	bne	r10,r4,2b18 <__subdf3+0x4a8>
    2cb4:	180b883a 	mov	r5,r3
    2cb8:	3023883a 	mov	r17,r6
    2cbc:	5021883a 	mov	r16,r10
    2cc0:	3825883a 	mov	r18,r7
    2cc4:	003e8d06 	br	26fc <__subdf3+0x8c>
    2cc8:	80001a1e 	bne	r16,zero,2d34 <__subdf3+0x6c4>
    2ccc:	2c48b03a 	or	r4,r5,r17
    2cd0:	20005526 	beq	r4,zero,2e28 <__subdf3+0x7b8>
    2cd4:	0084303a 	nor	r2,zero,r2
    2cd8:	1000511e 	bne	r2,zero,2e20 <__subdf3+0x7b0>
    2cdc:	89a3883a 	add	r17,r17,r6
    2ce0:	194b883a 	add	r5,r3,r5
    2ce4:	898d803a 	cmpltu	r6,r17,r6
    2ce8:	298b883a 	add	r5,r5,r6
    2cec:	5021883a 	mov	r16,r10
    2cf0:	003efc06 	br	28e4 <__subdf3+0x274>
    2cf4:	1000341e 	bne	r2,zero,2dc8 <__subdf3+0x758>
    2cf8:	1984b03a 	or	r2,r3,r6
    2cfc:	10006f26 	beq	r2,zero,2ebc <__subdf3+0x84c>
    2d00:	180b883a 	mov	r5,r3
    2d04:	3023883a 	mov	r17,r6
    2d08:	3825883a 	mov	r18,r7
    2d0c:	0401ffc4 	movi	r16,2047
    2d10:	003e7a06 	br	26fc <__subdf3+0x8c>
    2d14:	2c62b03a 	or	r17,r5,r17
    2d18:	8822c03a 	cmpne	r17,r17,zero
    2d1c:	0005883a 	mov	r2,zero
    2d20:	003f8a06 	br	2b4c <__subdf3+0x4dc>
    2d24:	3821883a 	mov	r16,r7
    2d28:	000b883a 	mov	r5,zero
    2d2c:	0023883a 	mov	r17,zero
    2d30:	003ed206 	br	287c <__subdf3+0x20c>
    2d34:	0101ffc4 	movi	r4,2047
    2d38:	51003b26 	beq	r10,r4,2e28 <__subdf3+0x7b8>
    2d3c:	0085c83a 	sub	r2,zero,r2
    2d40:	29402034 	orhi	r5,r5,128
    2d44:	01000e04 	movi	r4,56
    2d48:	20806216 	blt	r4,r2,2ed4 <__subdf3+0x864>
    2d4c:	010007c4 	movi	r4,31
    2d50:	20806b16 	blt	r4,r2,2f00 <__subdf3+0x890>
    2d54:	01000804 	movi	r4,32
    2d58:	2089c83a 	sub	r4,r4,r2
    2d5c:	2912983a 	sll	r9,r5,r4
    2d60:	888ed83a 	srl	r7,r17,r2
    2d64:	8908983a 	sll	r4,r17,r4
    2d68:	2884d83a 	srl	r2,r5,r2
    2d6c:	49e2b03a 	or	r17,r9,r7
    2d70:	2008c03a 	cmpne	r4,r4,zero
    2d74:	8922b03a 	or	r17,r17,r4
    2d78:	89a3883a 	add	r17,r17,r6
    2d7c:	10c5883a 	add	r2,r2,r3
    2d80:	898d803a 	cmpltu	r6,r17,r6
    2d84:	118b883a 	add	r5,r2,r6
    2d88:	5021883a 	mov	r16,r10
    2d8c:	003ed506 	br	28e4 <__subdf3+0x274>
    2d90:	1984b03a 	or	r2,r3,r6
    2d94:	103e5926 	beq	r2,zero,26fc <__subdf3+0x8c>
    2d98:	8989c83a 	sub	r4,r17,r6
    2d9c:	8911803a 	cmpltu	r8,r17,r4
    2da0:	28c5c83a 	sub	r2,r5,r3
    2da4:	1205c83a 	sub	r2,r2,r8
    2da8:	1200202c 	andhi	r8,r2,128
    2dac:	403ef926 	beq	r8,zero,2994 <__subdf3+0x324>
    2db0:	3463c83a 	sub	r17,r6,r17
    2db4:	194bc83a 	sub	r5,r3,r5
    2db8:	344d803a 	cmpltu	r6,r6,r17
    2dbc:	298bc83a 	sub	r5,r5,r6
    2dc0:	3825883a 	mov	r18,r7
    2dc4:	003e4d06 	br	26fc <__subdf3+0x8c>
    2dc8:	1984b03a 	or	r2,r3,r6
    2dcc:	10002b26 	beq	r2,zero,2e7c <__subdf3+0x80c>
    2dd0:	2808d0fa 	srli	r4,r5,3
    2dd4:	8822d0fa 	srli	r17,r17,3
    2dd8:	280a977a 	slli	r5,r5,29
    2ddc:	2080022c 	andhi	r2,r4,8
    2de0:	2c62b03a 	or	r17,r5,r17
    2de4:	10000826 	beq	r2,zero,2e08 <__subdf3+0x798>
    2de8:	1810d0fa 	srli	r8,r3,3
    2dec:	4080022c 	andhi	r2,r8,8
    2df0:	1000051e 	bne	r2,zero,2e08 <__subdf3+0x798>
    2df4:	300cd0fa 	srli	r6,r6,3
    2df8:	1804977a 	slli	r2,r3,29
    2dfc:	4009883a 	mov	r4,r8
    2e00:	3825883a 	mov	r18,r7
    2e04:	11a2b03a 	or	r17,r2,r6
    2e08:	880ad77a 	srli	r5,r17,29
    2e0c:	200890fa 	slli	r4,r4,3
    2e10:	882290fa 	slli	r17,r17,3
    2e14:	0401ffc4 	movi	r16,2047
    2e18:	290ab03a 	or	r5,r5,r4
    2e1c:	003e3706 	br	26fc <__subdf3+0x8c>
    2e20:	0101ffc4 	movi	r4,2047
    2e24:	513fc71e 	bne	r10,r4,2d44 <__subdf3+0x6d4>
    2e28:	180b883a 	mov	r5,r3
    2e2c:	3023883a 	mov	r17,r6
    2e30:	5021883a 	mov	r16,r10
    2e34:	003e3106 	br	26fc <__subdf3+0x8c>
    2e38:	10002d26 	beq	r2,zero,2ef0 <__subdf3+0x880>
    2e3c:	1984b03a 	or	r2,r3,r6
    2e40:	10000e26 	beq	r2,zero,2e7c <__subdf3+0x80c>
    2e44:	2808d0fa 	srli	r4,r5,3
    2e48:	8822d0fa 	srli	r17,r17,3
    2e4c:	280a977a 	slli	r5,r5,29
    2e50:	2080022c 	andhi	r2,r4,8
    2e54:	2c62b03a 	or	r17,r5,r17
    2e58:	103feb26 	beq	r2,zero,2e08 <__subdf3+0x798>
    2e5c:	180ed0fa 	srli	r7,r3,3
    2e60:	3880022c 	andhi	r2,r7,8
    2e64:	103fe81e 	bne	r2,zero,2e08 <__subdf3+0x798>
    2e68:	300cd0fa 	srli	r6,r6,3
    2e6c:	1804977a 	slli	r2,r3,29
    2e70:	3809883a 	mov	r4,r7
    2e74:	11a2b03a 	or	r17,r2,r6
    2e78:	003fe306 	br	2e08 <__subdf3+0x798>
    2e7c:	0401ffc4 	movi	r16,2047
    2e80:	003e1e06 	br	26fc <__subdf3+0x8c>
    2e84:	0005883a 	mov	r2,zero
    2e88:	003f8306 	br	2c98 <__subdf3+0x628>
    2e8c:	113ff804 	addi	r4,r2,-32
    2e90:	02000804 	movi	r8,32
    2e94:	2908d83a 	srl	r4,r5,r4
    2e98:	12002526 	beq	r2,r8,2f30 <__subdf3+0x8c0>
    2e9c:	02001004 	movi	r8,64
    2ea0:	4085c83a 	sub	r2,r8,r2
    2ea4:	288a983a 	sll	r5,r5,r2
    2ea8:	2c62b03a 	or	r17,r5,r17
    2eac:	8822c03a 	cmpne	r17,r17,zero
    2eb0:	8922b03a 	or	r17,r17,r4
    2eb4:	0005883a 	mov	r2,zero
    2eb8:	003f2406 	br	2b4c <__subdf3+0x4dc>
    2ebc:	01402034 	movhi	r5,128
    2ec0:	0011883a 	mov	r8,zero
    2ec4:	297fffc4 	addi	r5,r5,-1
    2ec8:	047ffe04 	movi	r17,-8
    2ecc:	0401ffc4 	movi	r16,2047
    2ed0:	003e6a06 	br	287c <__subdf3+0x20c>
    2ed4:	2c62b03a 	or	r17,r5,r17
    2ed8:	8822c03a 	cmpne	r17,r17,zero
    2edc:	0005883a 	mov	r2,zero
    2ee0:	003fa506 	br	2d78 <__subdf3+0x708>
    2ee4:	180b883a 	mov	r5,r3
    2ee8:	3023883a 	mov	r17,r6
    2eec:	003e0306 	br	26fc <__subdf3+0x8c>
    2ef0:	180b883a 	mov	r5,r3
    2ef4:	3023883a 	mov	r17,r6
    2ef8:	0401ffc4 	movi	r16,2047
    2efc:	003dff06 	br	26fc <__subdf3+0x8c>
    2f00:	113ff804 	addi	r4,r2,-32
    2f04:	01c00804 	movi	r7,32
    2f08:	2908d83a 	srl	r4,r5,r4
    2f0c:	11c00a26 	beq	r2,r7,2f38 <__subdf3+0x8c8>
    2f10:	01c01004 	movi	r7,64
    2f14:	3885c83a 	sub	r2,r7,r2
    2f18:	288a983a 	sll	r5,r5,r2
    2f1c:	2c62b03a 	or	r17,r5,r17
    2f20:	8822c03a 	cmpne	r17,r17,zero
    2f24:	8922b03a 	or	r17,r17,r4
    2f28:	0005883a 	mov	r2,zero
    2f2c:	003f9206 	br	2d78 <__subdf3+0x708>
    2f30:	000b883a 	mov	r5,zero
    2f34:	003fdc06 	br	2ea8 <__subdf3+0x838>
    2f38:	000b883a 	mov	r5,zero
    2f3c:	003ff706 	br	2f1c <__subdf3+0x8ac>

00002f40 <__fixdfsi>:
    2f40:	2806d53a 	srli	r3,r5,20
    2f44:	00800434 	movhi	r2,16
    2f48:	10bfffc4 	addi	r2,r2,-1
    2f4c:	18c1ffcc 	andi	r3,r3,2047
    2f50:	0180ff84 	movi	r6,1022
    2f54:	2884703a 	and	r2,r5,r2
    2f58:	280ad7fa 	srli	r5,r5,31
    2f5c:	30c0130e 	bge	r6,r3,2fac <__fixdfsi+0x6c>
    2f60:	01810744 	movi	r6,1053
    2f64:	30c00d16 	blt	r6,r3,2f9c <__fixdfsi+0x5c>
    2f68:	01810cc4 	movi	r6,1075
    2f6c:	30cdc83a 	sub	r6,r6,r3
    2f70:	01c007c4 	movi	r7,31
    2f74:	10800434 	orhi	r2,r2,16
    2f78:	39800e0e 	bge	r7,r6,2fb4 <__fixdfsi+0x74>
    2f7c:	010104c4 	movi	r4,1043
    2f80:	20c7c83a 	sub	r3,r4,r3
    2f84:	10c6d83a 	srl	r3,r2,r3
    2f88:	29403fcc 	andi	r5,r5,255
    2f8c:	0145c83a 	sub	r2,zero,r5
    2f90:	1884f03a 	xor	r2,r3,r2
    2f94:	1145883a 	add	r2,r2,r5
    2f98:	f800283a 	ret
    2f9c:	00a00034 	movhi	r2,32768
    2fa0:	10bfffc4 	addi	r2,r2,-1
    2fa4:	2885883a 	add	r2,r5,r2
    2fa8:	f800283a 	ret
    2fac:	0005883a 	mov	r2,zero
    2fb0:	f800283a 	ret
    2fb4:	18fefb44 	addi	r3,r3,-1043
    2fb8:	2188d83a 	srl	r4,r4,r6
    2fbc:	10c6983a 	sll	r3,r2,r3
    2fc0:	20c6b03a 	or	r3,r4,r3
    2fc4:	003ff006 	br	2f88 <__fixdfsi+0x48>

00002fc8 <__floatsidf>:
    2fc8:	defffd04 	addi	sp,sp,-12
    2fcc:	dc400115 	stw	r17,4(sp)
    2fd0:	dfc00215 	stw	ra,8(sp)
    2fd4:	dc000015 	stw	r16,0(sp)
    2fd8:	2023883a 	mov	r17,r4
    2fdc:	20001426 	beq	r4,zero,3030 <__floatsidf+0x68>
    2fe0:	2020d7fa 	srli	r16,r4,31
    2fe4:	80000126 	beq	r16,zero,2fec <__floatsidf+0x24>
    2fe8:	0123c83a 	sub	r17,zero,r4
    2fec:	8809883a 	mov	r4,r17
    2ff0:	00030980 	call	3098 <__clzsi2>
    2ff4:	01410784 	movi	r5,1054
    2ff8:	00c00284 	movi	r3,10
    2ffc:	288bc83a 	sub	r5,r5,r2
    3000:	18801c16 	blt	r3,r2,3074 <__floatsidf+0xac>
    3004:	00c002c4 	movi	r3,11
    3008:	1887c83a 	sub	r3,r3,r2
    300c:	88c8d83a 	srl	r4,r17,r3
    3010:	00c00434 	movhi	r3,16
    3014:	18ffffc4 	addi	r3,r3,-1
    3018:	10800544 	addi	r2,r2,21
    301c:	20c8703a 	and	r4,r4,r3
    3020:	8884983a 	sll	r2,r17,r2
    3024:	28c1ffcc 	andi	r3,r5,2047
    3028:	800d883a 	mov	r6,r16
    302c:	00000406 	br	3040 <__floatsidf+0x78>
    3030:	000d883a 	mov	r6,zero
    3034:	0007883a 	mov	r3,zero
    3038:	0009883a 	mov	r4,zero
    303c:	0005883a 	mov	r2,zero
    3040:	180a953a 	slli	r5,r3,20
    3044:	31803fcc 	andi	r6,r6,255
    3048:	00c00434 	movhi	r3,16
    304c:	300c97fa 	slli	r6,r6,31
    3050:	18ffffc4 	addi	r3,r3,-1
    3054:	20c6703a 	and	r3,r4,r3
    3058:	1946b03a 	or	r3,r3,r5
    305c:	1986b03a 	or	r3,r3,r6
    3060:	dfc00217 	ldw	ra,8(sp)
    3064:	dc400117 	ldw	r17,4(sp)
    3068:	dc000017 	ldw	r16,0(sp)
    306c:	dec00304 	addi	sp,sp,12
    3070:	f800283a 	ret
    3074:	10fffd44 	addi	r3,r2,-11
    3078:	88c8983a 	sll	r4,r17,r3
    307c:	00800434 	movhi	r2,16
    3080:	10bfffc4 	addi	r2,r2,-1
    3084:	2088703a 	and	r4,r4,r2
    3088:	28c1ffcc 	andi	r3,r5,2047
    308c:	800d883a 	mov	r6,r16
    3090:	0005883a 	mov	r2,zero
    3094:	003fea06 	br	3040 <__floatsidf+0x78>

00003098 <__clzsi2>:
    3098:	00bfffd4 	movui	r2,65535
    309c:	11000b36 	bltu	r2,r4,30cc <__clzsi2+0x34>
    30a0:	00803fc4 	movi	r2,255
    30a4:	1100122e 	bgeu	r2,r4,30f0 <__clzsi2+0x58>
    30a8:	00c00204 	movi	r3,8
    30ac:	01400604 	movi	r5,24
    30b0:	20c8d83a 	srl	r4,r4,r3
    30b4:	008000b4 	movhi	r2,2
    30b8:	10aab104 	addi	r2,r2,-21820
    30bc:	1109883a 	add	r4,r2,r4
    30c0:	20800003 	ldbu	r2,0(r4)
    30c4:	2885c83a 	sub	r2,r5,r2
    30c8:	f800283a 	ret
    30cc:	00804034 	movhi	r2,256
    30d0:	10bfffc4 	addi	r2,r2,-1
    30d4:	11000336 	bltu	r2,r4,30e4 <__clzsi2+0x4c>
    30d8:	00c00404 	movi	r3,16
    30dc:	180b883a 	mov	r5,r3
    30e0:	003ff306 	br	30b0 <__clzsi2+0x18>
    30e4:	00c00604 	movi	r3,24
    30e8:	01400204 	movi	r5,8
    30ec:	003ff006 	br	30b0 <__clzsi2+0x18>
    30f0:	0007883a 	mov	r3,zero
    30f4:	01400804 	movi	r5,32
    30f8:	003fed06 	br	30b0 <__clzsi2+0x18>

000030fc <udivmodsi4>:
    30fc:	2900182e 	bgeu	r5,r4,3160 <udivmodsi4+0x64>
    3100:	28001716 	blt	r5,zero,3160 <udivmodsi4+0x64>
    3104:	00800804 	movi	r2,32
    3108:	00c00044 	movi	r3,1
    310c:	00000206 	br	3118 <udivmodsi4+0x1c>
    3110:	10001126 	beq	r2,zero,3158 <udivmodsi4+0x5c>
    3114:	28000516 	blt	r5,zero,312c <udivmodsi4+0x30>
    3118:	294b883a 	add	r5,r5,r5
    311c:	10bfffc4 	addi	r2,r2,-1
    3120:	18c7883a 	add	r3,r3,r3
    3124:	293ffa36 	bltu	r5,r4,3110 <udivmodsi4+0x14>
    3128:	18000b26 	beq	r3,zero,3158 <udivmodsi4+0x5c>
    312c:	0005883a 	mov	r2,zero
    3130:	21400236 	bltu	r4,r5,313c <udivmodsi4+0x40>
    3134:	2149c83a 	sub	r4,r4,r5
    3138:	10c4b03a 	or	r2,r2,r3
    313c:	1806d07a 	srli	r3,r3,1
    3140:	280ad07a 	srli	r5,r5,1
    3144:	183ffa1e 	bne	r3,zero,3130 <udivmodsi4+0x34>
    3148:	3000011e 	bne	r6,zero,3150 <udivmodsi4+0x54>
    314c:	f800283a 	ret
    3150:	2005883a 	mov	r2,r4
    3154:	f800283a 	ret
    3158:	0005883a 	mov	r2,zero
    315c:	003ffa06 	br	3148 <udivmodsi4+0x4c>
    3160:	00c00044 	movi	r3,1
    3164:	003ff106 	br	312c <udivmodsi4+0x30>

00003168 <__divsi3>:
    3168:	defffe04 	addi	sp,sp,-8
    316c:	dfc00115 	stw	ra,4(sp)
    3170:	dc000015 	stw	r16,0(sp)
    3174:	20000b16 	blt	r4,zero,31a4 <__divsi3+0x3c>
    3178:	0021883a 	mov	r16,zero
    317c:	28000c16 	blt	r5,zero,31b0 <__divsi3+0x48>
    3180:	000d883a 	mov	r6,zero
    3184:	00030fc0 	call	30fc <udivmodsi4>
    3188:	0407c83a 	sub	r3,zero,r16
    318c:	1884f03a 	xor	r2,r3,r2
    3190:	1405883a 	add	r2,r2,r16
    3194:	dfc00117 	ldw	ra,4(sp)
    3198:	dc000017 	ldw	r16,0(sp)
    319c:	dec00204 	addi	sp,sp,8
    31a0:	f800283a 	ret
    31a4:	0109c83a 	sub	r4,zero,r4
    31a8:	04000044 	movi	r16,1
    31ac:	283ff40e 	bge	r5,zero,3180 <__divsi3+0x18>
    31b0:	014bc83a 	sub	r5,zero,r5
    31b4:	8400005c 	xori	r16,r16,1
    31b8:	003ff106 	br	3180 <__divsi3+0x18>

000031bc <__modsi3>:
    31bc:	defffd04 	addi	sp,sp,-12
    31c0:	dfc00215 	stw	ra,8(sp)
    31c4:	dc400115 	stw	r17,4(sp)
    31c8:	dc000015 	stw	r16,0(sp)
    31cc:	20000c16 	blt	r4,zero,3200 <__modsi3+0x44>
    31d0:	0023883a 	mov	r17,zero
    31d4:	0021883a 	mov	r16,zero
    31d8:	28000d16 	blt	r5,zero,3210 <__modsi3+0x54>
    31dc:	01800044 	movi	r6,1
    31e0:	00030fc0 	call	30fc <udivmodsi4>
    31e4:	1404f03a 	xor	r2,r2,r16
    31e8:	8885883a 	add	r2,r17,r2
    31ec:	dfc00217 	ldw	ra,8(sp)
    31f0:	dc400117 	ldw	r17,4(sp)
    31f4:	dc000017 	ldw	r16,0(sp)
    31f8:	dec00304 	addi	sp,sp,12
    31fc:	f800283a 	ret
    3200:	0109c83a 	sub	r4,zero,r4
    3204:	04400044 	movi	r17,1
    3208:	043fffc4 	movi	r16,-1
    320c:	283ff30e 	bge	r5,zero,31dc <__modsi3+0x20>
    3210:	014bc83a 	sub	r5,zero,r5
    3214:	003ff106 	br	31dc <__modsi3+0x20>

00003218 <__udivsi3>:
    3218:	000d883a 	mov	r6,zero
    321c:	00030fc1 	jmpi	30fc <udivmodsi4>

00003220 <__umodsi3>:
    3220:	01800044 	movi	r6,1
    3224:	00030fc1 	jmpi	30fc <udivmodsi4>

00003228 <_printf_r>:
    3228:	defffd04 	addi	sp,sp,-12
    322c:	dfc00015 	stw	ra,0(sp)
    3230:	d9800115 	stw	r6,4(sp)
    3234:	d9c00215 	stw	r7,8(sp)
    3238:	280d883a 	mov	r6,r5
    323c:	21400217 	ldw	r5,8(r4)
    3240:	d9c00104 	addi	r7,sp,4
    3244:	000343c0 	call	343c <___vfprintf_internal_r>
    3248:	dfc00017 	ldw	ra,0(sp)
    324c:	dec00304 	addi	sp,sp,12
    3250:	f800283a 	ret

00003254 <printf>:
    3254:	defffc04 	addi	sp,sp,-16
    3258:	dfc00015 	stw	ra,0(sp)
    325c:	d9400115 	stw	r5,4(sp)
    3260:	d9800215 	stw	r6,8(sp)
    3264:	d9c00315 	stw	r7,12(sp)
    3268:	008000b4 	movhi	r2,2
    326c:	10b3c204 	addi	r2,r2,-12536
    3270:	10800017 	ldw	r2,0(r2)
    3274:	200b883a 	mov	r5,r4
    3278:	d9800104 	addi	r6,sp,4
    327c:	11000217 	ldw	r4,8(r2)
    3280:	00054940 	call	5494 <__vfprintf_internal>
    3284:	dfc00017 	ldw	ra,0(sp)
    3288:	dec00404 	addi	sp,sp,16
    328c:	f800283a 	ret

00003290 <strncmp>:
    3290:	30002126 	beq	r6,zero,3318 <strncmp+0x88>
    3294:	2144b03a 	or	r2,r4,r5
    3298:	108000cc 	andi	r2,r2,3
    329c:	1000241e 	bne	r2,zero,3330 <strncmp+0xa0>
    32a0:	024000c4 	movi	r9,3
    32a4:	4980222e 	bgeu	r9,r6,3330 <strncmp+0xa0>
    32a8:	20800017 	ldw	r2,0(r4)
    32ac:	28c00017 	ldw	r3,0(r5)
    32b0:	10c01f1e 	bne	r2,r3,3330 <strncmp+0xa0>
    32b4:	31bfff04 	addi	r6,r6,-4
    32b8:	30001726 	beq	r6,zero,3318 <strncmp+0x88>
    32bc:	02ffbff4 	movhi	r11,65279
    32c0:	5affbfc4 	addi	r11,r11,-257
    32c4:	0086303a 	nor	r3,zero,r2
    32c8:	02a02074 	movhi	r10,32897
    32cc:	12c5883a 	add	r2,r2,r11
    32d0:	52a02004 	addi	r10,r10,-32640
    32d4:	10c4703a 	and	r2,r2,r3
    32d8:	1284703a 	and	r2,r2,r10
    32dc:	10000226 	beq	r2,zero,32e8 <strncmp+0x58>
    32e0:	00000d06 	br	3318 <strncmp+0x88>
    32e4:	10000c1e 	bne	r2,zero,3318 <strncmp+0x88>
    32e8:	21000104 	addi	r4,r4,4
    32ec:	29400104 	addi	r5,r5,4
    32f0:	49800f2e 	bgeu	r9,r6,3330 <strncmp+0xa0>
    32f4:	20c00017 	ldw	r3,0(r4)
    32f8:	29c00017 	ldw	r7,0(r5)
    32fc:	1ad1883a 	add	r8,r3,r11
    3300:	00c4303a 	nor	r2,zero,r3
    3304:	4084703a 	and	r2,r8,r2
    3308:	1284703a 	and	r2,r2,r10
    330c:	19c0081e 	bne	r3,r7,3330 <strncmp+0xa0>
    3310:	31bfff04 	addi	r6,r6,-4
    3314:	303ff31e 	bne	r6,zero,32e4 <strncmp+0x54>
    3318:	0005883a 	mov	r2,zero
    331c:	f800283a 	ret
    3320:	303ffd26 	beq	r6,zero,3318 <strncmp+0x88>
    3324:	103ffc26 	beq	r2,zero,3318 <strncmp+0x88>
    3328:	21000044 	addi	r4,r4,1
    332c:	29400044 	addi	r5,r5,1
    3330:	20800007 	ldb	r2,0(r4)
    3334:	28c00007 	ldb	r3,0(r5)
    3338:	31bfffc4 	addi	r6,r6,-1
    333c:	10fff826 	beq	r2,r3,3320 <strncmp+0x90>
    3340:	20800003 	ldbu	r2,0(r4)
    3344:	28c00003 	ldbu	r3,0(r5)
    3348:	10c5c83a 	sub	r2,r2,r3
    334c:	f800283a 	ret

00003350 <strncpy>:
    3350:	2906b03a 	or	r3,r5,r4
    3354:	18c000cc 	andi	r3,r3,3
    3358:	2005883a 	mov	r2,r4
    335c:	18002c1e 	bne	r3,zero,3410 <strncpy+0xc0>
    3360:	010000c4 	movi	r4,3
    3364:	21802a2e 	bgeu	r4,r6,3410 <strncpy+0xc0>
    3368:	033fbff4 	movhi	r12,65279
    336c:	02e02074 	movhi	r11,32897
    3370:	633fbfc4 	addi	r12,r12,-257
    3374:	5ae02004 	addi	r11,r11,-32640
    3378:	100f883a 	mov	r7,r2
    337c:	2a000017 	ldw	r8,0(r5)
    3380:	3815883a 	mov	r10,r7
    3384:	0212303a 	nor	r9,zero,r8
    3388:	4307883a 	add	r3,r8,r12
    338c:	48c6703a 	and	r3,r9,r3
    3390:	1ac6703a 	and	r3,r3,r11
    3394:	1800261e 	bne	r3,zero,3430 <strncpy+0xe0>
    3398:	39c00104 	addi	r7,r7,4
    339c:	52000015 	stw	r8,0(r10)
    33a0:	31bfff04 	addi	r6,r6,-4
    33a4:	3811883a 	mov	r8,r7
    33a8:	29400104 	addi	r5,r5,4
    33ac:	21bff336 	bltu	r4,r6,337c <strncpy+0x2c>
    33b0:	30001e26 	beq	r6,zero,342c <strncpy+0xdc>
    33b4:	29c00003 	ldbu	r7,0(r5)
    33b8:	31bfffc4 	addi	r6,r6,-1
    33bc:	40c00044 	addi	r3,r8,1
    33c0:	41c00005 	stb	r7,0(r8)
    33c4:	39c03fcc 	andi	r7,r7,255
    33c8:	39c0201c 	xori	r7,r7,128
    33cc:	39ffe004 	addi	r7,r7,-128
    33d0:	29400044 	addi	r5,r5,1
    33d4:	38001026 	beq	r7,zero,3418 <strncpy+0xc8>
    33d8:	1811883a 	mov	r8,r3
    33dc:	00000906 	br	3404 <strncpy+0xb4>
    33e0:	29c00003 	ldbu	r7,0(r5)
    33e4:	31bfffc4 	addi	r6,r6,-1
    33e8:	29400044 	addi	r5,r5,1
    33ec:	41c00005 	stb	r7,0(r8)
    33f0:	39c03fcc 	andi	r7,r7,255
    33f4:	39c0201c 	xori	r7,r7,128
    33f8:	39ffe004 	addi	r7,r7,-128
    33fc:	1811883a 	mov	r8,r3
    3400:	38000526 	beq	r7,zero,3418 <strncpy+0xc8>
    3404:	18c00044 	addi	r3,r3,1
    3408:	303ff51e 	bne	r6,zero,33e0 <strncpy+0x90>
    340c:	f800283a 	ret
    3410:	1011883a 	mov	r8,r2
    3414:	003fe606 	br	33b0 <strncpy+0x60>
    3418:	30000726 	beq	r6,zero,3438 <strncpy+0xe8>
    341c:	198d883a 	add	r6,r3,r6
    3420:	18000005 	stb	zero,0(r3)
    3424:	18c00044 	addi	r3,r3,1
    3428:	19bffd1e 	bne	r3,r6,3420 <strncpy+0xd0>
    342c:	f800283a 	ret
    3430:	3811883a 	mov	r8,r7
    3434:	003fde06 	br	33b0 <strncpy+0x60>
    3438:	f800283a 	ret

0000343c <___vfprintf_internal_r>:
    343c:	deffb604 	addi	sp,sp,-296
    3440:	dfc04915 	stw	ra,292(sp)
    3444:	ddc04715 	stw	r23,284(sp)
    3448:	dd804615 	stw	r22,280(sp)
    344c:	202f883a 	mov	r23,r4
    3450:	282d883a 	mov	r22,r5
    3454:	d9802a15 	stw	r6,168(sp)
    3458:	d9c02d15 	stw	r7,180(sp)
    345c:	df004815 	stw	fp,288(sp)
    3460:	dd404515 	stw	r21,276(sp)
    3464:	dd004415 	stw	r20,272(sp)
    3468:	dcc04315 	stw	r19,268(sp)
    346c:	dc804215 	stw	r18,264(sp)
    3470:	dc404115 	stw	r17,260(sp)
    3474:	dc004015 	stw	r16,256(sp)
    3478:	0007ca40 	call	7ca4 <_localeconv_r>
    347c:	10800017 	ldw	r2,0(r2)
    3480:	1009883a 	mov	r4,r2
    3484:	d8803515 	stw	r2,212(sp)
    3488:	0009c800 	call	9c80 <strlen>
    348c:	d8803815 	stw	r2,224(sp)
    3490:	b8000226 	beq	r23,zero,349c <___vfprintf_internal_r+0x60>
    3494:	b8800e17 	ldw	r2,56(r23)
    3498:	1000e226 	beq	r2,zero,3824 <___vfprintf_internal_r+0x3e8>
    349c:	b080030b 	ldhu	r2,12(r22)
    34a0:	10c8000c 	andi	r3,r2,8192
    34a4:	1800061e 	bne	r3,zero,34c0 <___vfprintf_internal_r+0x84>
    34a8:	b1001917 	ldw	r4,100(r22)
    34ac:	00f7ffc4 	movi	r3,-8193
    34b0:	10880014 	ori	r2,r2,8192
    34b4:	20c6703a 	and	r3,r4,r3
    34b8:	b080030d 	sth	r2,12(r22)
    34bc:	b0c01915 	stw	r3,100(r22)
    34c0:	10c0020c 	andi	r3,r2,8
    34c4:	1800a826 	beq	r3,zero,3768 <___vfprintf_internal_r+0x32c>
    34c8:	b0c00417 	ldw	r3,16(r22)
    34cc:	1800a626 	beq	r3,zero,3768 <___vfprintf_internal_r+0x32c>
    34d0:	1080068c 	andi	r2,r2,26
    34d4:	00c00284 	movi	r3,10
    34d8:	10c0ab26 	beq	r2,r3,3788 <___vfprintf_internal_r+0x34c>
    34dc:	d8801e04 	addi	r2,sp,120
    34e0:	d8c01dc4 	addi	r3,sp,119
    34e4:	d9000404 	addi	r4,sp,16
    34e8:	050000b4 	movhi	r20,2
    34ec:	10cbc83a 	sub	r5,r2,r3
    34f0:	a52b0184 	addi	r20,r20,-21498
    34f4:	d8802815 	stw	r2,160(sp)
    34f8:	d8c02915 	stw	r3,164(sp)
    34fc:	d9001e15 	stw	r4,120(sp)
    3500:	d8002015 	stw	zero,128(sp)
    3504:	d8001f15 	stw	zero,124(sp)
    3508:	d8003315 	stw	zero,204(sp)
    350c:	d8003715 	stw	zero,220(sp)
    3510:	d8003915 	stw	zero,228(sp)
    3514:	2011883a 	mov	r8,r4
    3518:	d8003b15 	stw	zero,236(sp)
    351c:	d8003a15 	stw	zero,232(sp)
    3520:	d8002f15 	stw	zero,188(sp)
    3524:	d9403c15 	stw	r5,240(sp)
    3528:	d8c02a17 	ldw	r3,168(sp)
    352c:	18800007 	ldb	r2,0(r3)
    3530:	1001f226 	beq	r2,zero,3cfc <___vfprintf_internal_r+0x8c0>
    3534:	00c00944 	movi	r3,37
    3538:	dc002a17 	ldw	r16,168(sp)
    353c:	10c0021e 	bne	r2,r3,3548 <___vfprintf_internal_r+0x10c>
    3540:	00001606 	br	359c <___vfprintf_internal_r+0x160>
    3544:	10c08526 	beq	r2,r3,375c <___vfprintf_internal_r+0x320>
    3548:	84000044 	addi	r16,r16,1
    354c:	80800007 	ldb	r2,0(r16)
    3550:	103ffc1e 	bne	r2,zero,3544 <___vfprintf_internal_r+0x108>
    3554:	d9002a17 	ldw	r4,168(sp)
    3558:	8123c83a 	sub	r17,r16,r4
    355c:	88000f26 	beq	r17,zero,359c <___vfprintf_internal_r+0x160>
    3560:	d8802a17 	ldw	r2,168(sp)
    3564:	d8c02017 	ldw	r3,128(sp)
    3568:	44400115 	stw	r17,4(r8)
    356c:	40800015 	stw	r2,0(r8)
    3570:	d8801f17 	ldw	r2,124(sp)
    3574:	1c47883a 	add	r3,r3,r17
    3578:	d8c02015 	stw	r3,128(sp)
    357c:	10800044 	addi	r2,r2,1
    3580:	d8801f15 	stw	r2,124(sp)
    3584:	00c001c4 	movi	r3,7
    3588:	18809416 	blt	r3,r2,37dc <___vfprintf_internal_r+0x3a0>
    358c:	42000204 	addi	r8,r8,8
    3590:	d8c02f17 	ldw	r3,188(sp)
    3594:	1c47883a 	add	r3,r3,r17
    3598:	d8c02f15 	stw	r3,188(sp)
    359c:	80800007 	ldb	r2,0(r16)
    35a0:	10009526 	beq	r2,zero,37f8 <___vfprintf_internal_r+0x3bc>
    35a4:	80800044 	addi	r2,r16,1
    35a8:	84000047 	ldb	r16,1(r16)
    35ac:	0027883a 	mov	r19,zero
    35b0:	0039883a 	mov	fp,zero
    35b4:	dcc02b05 	stb	r19,172(sp)
    35b8:	d8002785 	stb	zero,158(sp)
    35bc:	027fffc4 	movi	r9,-1
    35c0:	d8002e15 	stw	zero,184(sp)
    35c4:	04401604 	movi	r17,88
    35c8:	04800244 	movi	r18,9
    35cc:	da002a15 	stw	r8,168(sp)
    35d0:	e027883a 	mov	r19,fp
    35d4:	17000044 	addi	fp,r2,1
    35d8:	80bff804 	addi	r2,r16,-32
    35dc:	8882ed36 	bltu	r17,r2,4194 <___vfprintf_internal_r+0xd58>
    35e0:	100490ba 	slli	r2,r2,2
    35e4:	01000034 	movhi	r4,0
    35e8:	210d7e04 	addi	r4,r4,13816
    35ec:	1105883a 	add	r2,r2,r4
    35f0:	10800017 	ldw	r2,0(r2)
    35f4:	1000683a 	jmp	r2
    35f8:	00003fdc 	xori	zero,zero,255
    35fc:	00004194 	movui	zero,262
    3600:	00004194 	movui	zero,262
    3604:	00003ff8 	rdprs	zero,zero,255
    3608:	00004194 	movui	zero,262
    360c:	00004194 	movui	zero,262
    3610:	00004194 	movui	zero,262
    3614:	00004194 	movui	zero,262
    3618:	00004194 	movui	zero,262
    361c:	00004194 	movui	zero,262
    3620:	00004008 	cmpgei	zero,zero,256
    3624:	00004030 	cmpltui	zero,zero,256
    3628:	00004194 	movui	zero,262
    362c:	00003830 	cmpltui	zero,zero,224
    3630:	00003840 	call	384 <GPS+0xb8>
    3634:	00004194 	movui	zero,262
    3638:	00003890 	cmplti	zero,zero,226
    363c:	000038a0 	cmpeqi	zero,zero,226
    3640:	000038a0 	cmpeqi	zero,zero,226
    3644:	000038a0 	cmpeqi	zero,zero,226
    3648:	000038a0 	cmpeqi	zero,zero,226
    364c:	000038a0 	cmpeqi	zero,zero,226
    3650:	000038a0 	cmpeqi	zero,zero,226
    3654:	000038a0 	cmpeqi	zero,zero,226
    3658:	000038a0 	cmpeqi	zero,zero,226
    365c:	000038a0 	cmpeqi	zero,zero,226
    3660:	00004194 	movui	zero,262
    3664:	00004194 	movui	zero,262
    3668:	00004194 	movui	zero,262
    366c:	00004194 	movui	zero,262
    3670:	00004194 	movui	zero,262
    3674:	00004194 	movui	zero,262
    3678:	00004194 	movui	zero,262
    367c:	00004194 	movui	zero,262
    3680:	00004194 	movui	zero,262
    3684:	00004194 	movui	zero,262
    3688:	000038e4 	muli	zero,zero,227
    368c:	00003d04 	movi	zero,244
    3690:	00004194 	movui	zero,262
    3694:	00003d04 	movi	zero,244
    3698:	00004194 	movui	zero,262
    369c:	00004194 	movui	zero,262
    36a0:	00004194 	movui	zero,262
    36a4:	00004194 	movui	zero,262
    36a8:	00003dac 	andhi	zero,zero,246
    36ac:	00004194 	movui	zero,262
    36b0:	00004194 	movui	zero,262
    36b4:	00003dbc 	xorhi	zero,zero,246
    36b8:	00004194 	movui	zero,262
    36bc:	00004194 	movui	zero,262
    36c0:	00004194 	movui	zero,262
    36c4:	00004194 	movui	zero,262
    36c8:	00004194 	movui	zero,262
    36cc:	00003dfc 	xorhi	zero,zero,247
    36d0:	00004194 	movui	zero,262
    36d4:	00004194 	movui	zero,262
    36d8:	00003f28 	cmpgeui	zero,zero,252
    36dc:	00004194 	movui	zero,262
    36e0:	00004194 	movui	zero,262
    36e4:	00004194 	movui	zero,262
    36e8:	00004194 	movui	zero,262
    36ec:	00004194 	movui	zero,262
    36f0:	00004194 	movui	zero,262
    36f4:	00004194 	movui	zero,262
    36f8:	00004194 	movui	zero,262
    36fc:	00004194 	movui	zero,262
    3700:	00004194 	movui	zero,262
    3704:	00003f90 	cmplti	zero,zero,254
    3708:	00003e7c 	xorhi	zero,zero,249
    370c:	00003d04 	movi	zero,244
    3710:	00003d04 	movi	zero,244
    3714:	00003d04 	movi	zero,244
    3718:	00003ec0 	call	3ec <GPS+0x120>
    371c:	00003e7c 	xorhi	zero,zero,249
    3720:	00004194 	movui	zero,262
    3724:	00004194 	movui	zero,262
    3728:	00003ed0 	cmplti	zero,zero,251
    372c:	00004194 	movui	zero,262
    3730:	00003ee8 	cmpgeui	zero,zero,251
    3734:	00004158 	cmpnei	zero,zero,261
    3738:	00003e30 	cmpltui	zero,zero,248
    373c:	0000410c 	andi	zero,zero,260
    3740:	00004194 	movui	zero,262
    3744:	00004044 	movi	zero,257
    3748:	00004194 	movui	zero,262
    374c:	0000411c 	xori	zero,zero,260
    3750:	00004194 	movui	zero,262
    3754:	00004194 	movui	zero,262
    3758:	000040c0 	call	40c <GPS+0x140>
    375c:	d9402a17 	ldw	r5,168(sp)
    3760:	8163c83a 	sub	r17,r16,r5
    3764:	003f7d06 	br	355c <___vfprintf_internal_r+0x120>
    3768:	b809883a 	mov	r4,r23
    376c:	b00b883a 	mov	r5,r22
    3770:	00055740 	call	5574 <__swsetup_r>
    3774:	10000c1e 	bne	r2,zero,37a8 <___vfprintf_internal_r+0x36c>
    3778:	b080030b 	ldhu	r2,12(r22)
    377c:	00c00284 	movi	r3,10
    3780:	1080068c 	andi	r2,r2,26
    3784:	10ff551e 	bne	r2,r3,34dc <___vfprintf_internal_r+0xa0>
    3788:	b080038f 	ldh	r2,14(r22)
    378c:	103f5316 	blt	r2,zero,34dc <___vfprintf_internal_r+0xa0>
    3790:	d9802a17 	ldw	r6,168(sp)
    3794:	d9c02d17 	ldw	r7,180(sp)
    3798:	b809883a 	mov	r4,r23
    379c:	b00b883a 	mov	r5,r22
    37a0:	00054b80 	call	54b8 <__sbprintf>
    37a4:	00000106 	br	37ac <___vfprintf_internal_r+0x370>
    37a8:	00bfffc4 	movi	r2,-1
    37ac:	dfc04917 	ldw	ra,292(sp)
    37b0:	df004817 	ldw	fp,288(sp)
    37b4:	ddc04717 	ldw	r23,284(sp)
    37b8:	dd804617 	ldw	r22,280(sp)
    37bc:	dd404517 	ldw	r21,276(sp)
    37c0:	dd004417 	ldw	r20,272(sp)
    37c4:	dcc04317 	ldw	r19,268(sp)
    37c8:	dc804217 	ldw	r18,264(sp)
    37cc:	dc404117 	ldw	r17,260(sp)
    37d0:	dc004017 	ldw	r16,256(sp)
    37d4:	dec04a04 	addi	sp,sp,296
    37d8:	f800283a 	ret
    37dc:	b809883a 	mov	r4,r23
    37e0:	b00b883a 	mov	r5,r22
    37e4:	d9801e04 	addi	r6,sp,120
    37e8:	0009e140 	call	9e14 <__sprint_r>
    37ec:	1000081e 	bne	r2,zero,3810 <___vfprintf_internal_r+0x3d4>
    37f0:	da000404 	addi	r8,sp,16
    37f4:	003f6606 	br	3590 <___vfprintf_internal_r+0x154>
    37f8:	d8802017 	ldw	r2,128(sp)
    37fc:	10000426 	beq	r2,zero,3810 <___vfprintf_internal_r+0x3d4>
    3800:	b809883a 	mov	r4,r23
    3804:	b00b883a 	mov	r5,r22
    3808:	d9801e04 	addi	r6,sp,120
    380c:	0009e140 	call	9e14 <__sprint_r>
    3810:	b080030b 	ldhu	r2,12(r22)
    3814:	1080100c 	andi	r2,r2,64
    3818:	103fe31e 	bne	r2,zero,37a8 <___vfprintf_internal_r+0x36c>
    381c:	d8802f17 	ldw	r2,188(sp)
    3820:	003fe206 	br	37ac <___vfprintf_internal_r+0x370>
    3824:	b809883a 	mov	r4,r23
    3828:	000760c0 	call	760c <__sinit>
    382c:	003f1b06 	br	349c <___vfprintf_internal_r+0x60>
    3830:	e005883a 	mov	r2,fp
    3834:	9cc00114 	ori	r19,r19,4
    3838:	e4000007 	ldb	r16,0(fp)
    383c:	003f6506 	br	35d4 <___vfprintf_internal_r+0x198>
    3840:	e4000007 	ldb	r16,0(fp)
    3844:	01000a84 	movi	r4,42
    3848:	e0800044 	addi	r2,fp,1
    384c:	8106ff26 	beq	r16,r4,544c <___vfprintf_internal_r+0x2010>
    3850:	857ff404 	addi	r21,r16,-48
    3854:	1039883a 	mov	fp,r2
    3858:	0013883a 	mov	r9,zero
    385c:	957f5e36 	bltu	r18,r21,35d8 <___vfprintf_internal_r+0x19c>
    3860:	0009883a 	mov	r4,zero
    3864:	01400284 	movi	r5,10
    3868:	000129c0 	call	129c <__mulsi3>
    386c:	e4000007 	ldb	r16,0(fp)
    3870:	a889883a 	add	r4,r21,r2
    3874:	e7000044 	addi	fp,fp,1
    3878:	857ff404 	addi	r21,r16,-48
    387c:	957ff92e 	bgeu	r18,r21,3864 <___vfprintf_internal_r+0x428>
    3880:	2013883a 	mov	r9,r4
    3884:	203f540e 	bge	r4,zero,35d8 <___vfprintf_internal_r+0x19c>
    3888:	027fffc4 	movi	r9,-1
    388c:	003f5206 	br	35d8 <___vfprintf_internal_r+0x19c>
    3890:	9cc02014 	ori	r19,r19,128
    3894:	e005883a 	mov	r2,fp
    3898:	e4000007 	ldb	r16,0(fp)
    389c:	003f4d06 	br	35d4 <___vfprintf_internal_r+0x198>
    38a0:	857ff404 	addi	r21,r16,-48
    38a4:	d8002e15 	stw	zero,184(sp)
    38a8:	0009883a 	mov	r4,zero
    38ac:	da402c15 	stw	r9,176(sp)
    38b0:	e021883a 	mov	r16,fp
    38b4:	01400284 	movi	r5,10
    38b8:	000129c0 	call	129c <__mulsi3>
    38bc:	81400007 	ldb	r5,0(r16)
    38c0:	1549883a 	add	r4,r2,r21
    38c4:	e7000044 	addi	fp,fp,1
    38c8:	2d7ff404 	addi	r21,r5,-48
    38cc:	e021883a 	mov	r16,fp
    38d0:	957ff82e 	bgeu	r18,r21,38b4 <___vfprintf_internal_r+0x478>
    38d4:	2821883a 	mov	r16,r5
    38d8:	d9002e15 	stw	r4,184(sp)
    38dc:	da402c17 	ldw	r9,176(sp)
    38e0:	003f3d06 	br	35d8 <___vfprintf_internal_r+0x19c>
    38e4:	da002a17 	ldw	r8,168(sp)
    38e8:	df002a15 	stw	fp,168(sp)
    38ec:	9839883a 	mov	fp,r19
    38f0:	dcc02b03 	ldbu	r19,172(sp)
    38f4:	e7000414 	ori	fp,fp,16
    38f8:	e080080c 	andi	r2,fp,32
    38fc:	dcc02785 	stb	r19,158(sp)
    3900:	d8c02d17 	ldw	r3,180(sp)
    3904:	10016526 	beq	r2,zero,3e9c <___vfprintf_internal_r+0xa60>
    3908:	d9002d17 	ldw	r4,180(sp)
    390c:	18800117 	ldw	r2,4(r3)
    3910:	1c800017 	ldw	r18,0(r3)
    3914:	21000204 	addi	r4,r4,8
    3918:	d9002d15 	stw	r4,180(sp)
    391c:	102b883a 	mov	r21,r2
    3920:	10044516 	blt	r2,zero,4a38 <___vfprintf_internal_r+0x15fc>
    3924:	dcc02783 	ldbu	r19,158(sp)
    3928:	da403215 	stw	r9,200(sp)
    392c:	00800044 	movi	r2,1
    3930:	9546b03a 	or	r3,r18,r21
    3934:	48000216 	blt	r9,zero,3940 <___vfprintf_internal_r+0x504>
    3938:	013fdfc4 	movi	r4,-129
    393c:	e138703a 	and	fp,fp,r4
    3940:	1802211e 	bne	r3,zero,41c8 <___vfprintf_internal_r+0xd8c>
    3944:	48031326 	beq	r9,zero,4594 <___vfprintf_internal_r+0x1158>
    3948:	10803fcc 	andi	r2,r2,255
    394c:	00c00044 	movi	r3,1
    3950:	10c24126 	beq	r2,r3,4258 <___vfprintf_internal_r+0xe1c>
    3954:	00c00084 	movi	r3,2
    3958:	10c33426 	beq	r2,r3,462c <___vfprintf_internal_r+0x11f0>
    395c:	d8c01e04 	addi	r3,sp,120
    3960:	9008d0fa 	srli	r4,r18,3
    3964:	a80a977a 	slli	r5,r21,29
    3968:	a82ad0fa 	srli	r21,r21,3
    396c:	948001cc 	andi	r18,r18,7
    3970:	90800c04 	addi	r2,r18,48
    3974:	18ffffc4 	addi	r3,r3,-1
    3978:	2924b03a 	or	r18,r5,r4
    397c:	18800005 	stb	r2,0(r3)
    3980:	9548b03a 	or	r4,r18,r21
    3984:	203ff61e 	bne	r4,zero,3960 <___vfprintf_internal_r+0x524>
    3988:	e100004c 	andi	r4,fp,1
    398c:	d8c03115 	stw	r3,196(sp)
    3990:	2003961e 	bne	r4,zero,47ec <___vfprintf_internal_r+0x13b0>
    3994:	d8802817 	ldw	r2,160(sp)
    3998:	10e3c83a 	sub	r17,r2,r3
    399c:	8805883a 	mov	r2,r17
    39a0:	8a40010e 	bge	r17,r9,39a8 <___vfprintf_internal_r+0x56c>
    39a4:	4805883a 	mov	r2,r9
    39a8:	d8802b15 	stw	r2,172(sp)
    39ac:	d8003415 	stw	zero,208(sp)
    39b0:	98803fcc 	andi	r2,r19,255
    39b4:	1080201c 	xori	r2,r2,128
    39b8:	10bfe004 	addi	r2,r2,-128
    39bc:	10000326 	beq	r2,zero,39cc <___vfprintf_internal_r+0x590>
    39c0:	d8c02b17 	ldw	r3,172(sp)
    39c4:	18c00044 	addi	r3,r3,1
    39c8:	d8c02b15 	stw	r3,172(sp)
    39cc:	e0c0008c 	andi	r3,fp,2
    39d0:	d8c02c15 	stw	r3,176(sp)
    39d4:	18000326 	beq	r3,zero,39e4 <___vfprintf_internal_r+0x5a8>
    39d8:	d8c02b17 	ldw	r3,172(sp)
    39dc:	18c00084 	addi	r3,r3,2
    39e0:	d8c02b15 	stw	r3,172(sp)
    39e4:	e0c0210c 	andi	r3,fp,132
    39e8:	d8c03015 	stw	r3,192(sp)
    39ec:	1801f41e 	bne	r3,zero,41c0 <___vfprintf_internal_r+0xd84>
    39f0:	d9002e17 	ldw	r4,184(sp)
    39f4:	d8c02b17 	ldw	r3,172(sp)
    39f8:	20ebc83a 	sub	r21,r4,r3
    39fc:	0541f00e 	bge	zero,r21,41c0 <___vfprintf_internal_r+0xd84>
    3a00:	02400404 	movi	r9,16
    3a04:	d8c02017 	ldw	r3,128(sp)
    3a08:	d8801f17 	ldw	r2,124(sp)
    3a0c:	4d45710e 	bge	r9,r21,4fd4 <___vfprintf_internal_r+0x1b98>
    3a10:	014000b4 	movhi	r5,2
    3a14:	296b0584 	addi	r5,r5,-21482
    3a18:	d9403615 	stw	r5,216(sp)
    3a1c:	4827883a 	mov	r19,r9
    3a20:	048001c4 	movi	r18,7
    3a24:	00000306 	br	3a34 <___vfprintf_internal_r+0x5f8>
    3a28:	ad7ffc04 	addi	r21,r21,-16
    3a2c:	42000204 	addi	r8,r8,8
    3a30:	9d40130e 	bge	r19,r21,3a80 <___vfprintf_internal_r+0x644>
    3a34:	010000b4 	movhi	r4,2
    3a38:	18c00404 	addi	r3,r3,16
    3a3c:	10800044 	addi	r2,r2,1
    3a40:	212b0584 	addi	r4,r4,-21482
    3a44:	41000015 	stw	r4,0(r8)
    3a48:	44c00115 	stw	r19,4(r8)
    3a4c:	d8c02015 	stw	r3,128(sp)
    3a50:	d8801f15 	stw	r2,124(sp)
    3a54:	90bff40e 	bge	r18,r2,3a28 <___vfprintf_internal_r+0x5ec>
    3a58:	b809883a 	mov	r4,r23
    3a5c:	b00b883a 	mov	r5,r22
    3a60:	d9801e04 	addi	r6,sp,120
    3a64:	0009e140 	call	9e14 <__sprint_r>
    3a68:	103f691e 	bne	r2,zero,3810 <___vfprintf_internal_r+0x3d4>
    3a6c:	ad7ffc04 	addi	r21,r21,-16
    3a70:	d8c02017 	ldw	r3,128(sp)
    3a74:	d8801f17 	ldw	r2,124(sp)
    3a78:	da000404 	addi	r8,sp,16
    3a7c:	9d7fed16 	blt	r19,r21,3a34 <___vfprintf_internal_r+0x5f8>
    3a80:	d9403617 	ldw	r5,216(sp)
    3a84:	a8c7883a 	add	r3,r21,r3
    3a88:	10800044 	addi	r2,r2,1
    3a8c:	41400015 	stw	r5,0(r8)
    3a90:	45400115 	stw	r21,4(r8)
    3a94:	d8c02015 	stw	r3,128(sp)
    3a98:	d8801f15 	stw	r2,124(sp)
    3a9c:	010001c4 	movi	r4,7
    3aa0:	20832716 	blt	r4,r2,4740 <___vfprintf_internal_r+0x1304>
    3aa4:	d8802787 	ldb	r2,158(sp)
    3aa8:	42000204 	addi	r8,r8,8
    3aac:	10000c26 	beq	r2,zero,3ae0 <___vfprintf_internal_r+0x6a4>
    3ab0:	d8801f17 	ldw	r2,124(sp)
    3ab4:	d9002784 	addi	r4,sp,158
    3ab8:	18c00044 	addi	r3,r3,1
    3abc:	10800044 	addi	r2,r2,1
    3ac0:	41000015 	stw	r4,0(r8)
    3ac4:	01000044 	movi	r4,1
    3ac8:	41000115 	stw	r4,4(r8)
    3acc:	d8c02015 	stw	r3,128(sp)
    3ad0:	d8801f15 	stw	r2,124(sp)
    3ad4:	010001c4 	movi	r4,7
    3ad8:	2082c016 	blt	r4,r2,45dc <___vfprintf_internal_r+0x11a0>
    3adc:	42000204 	addi	r8,r8,8
    3ae0:	d8802c17 	ldw	r2,176(sp)
    3ae4:	10000c26 	beq	r2,zero,3b18 <___vfprintf_internal_r+0x6dc>
    3ae8:	d8801f17 	ldw	r2,124(sp)
    3aec:	d9002704 	addi	r4,sp,156
    3af0:	18c00084 	addi	r3,r3,2
    3af4:	10800044 	addi	r2,r2,1
    3af8:	41000015 	stw	r4,0(r8)
    3afc:	01000084 	movi	r4,2
    3b00:	41000115 	stw	r4,4(r8)
    3b04:	d8c02015 	stw	r3,128(sp)
    3b08:	d8801f15 	stw	r2,124(sp)
    3b0c:	010001c4 	movi	r4,7
    3b10:	2082ba16 	blt	r4,r2,45fc <___vfprintf_internal_r+0x11c0>
    3b14:	42000204 	addi	r8,r8,8
    3b18:	d9003017 	ldw	r4,192(sp)
    3b1c:	00802004 	movi	r2,128
    3b20:	20821c26 	beq	r4,r2,4394 <___vfprintf_internal_r+0xf58>
    3b24:	d9403217 	ldw	r5,200(sp)
    3b28:	2c67c83a 	sub	r19,r5,r17
    3b2c:	04c0260e 	bge	zero,r19,3bc8 <___vfprintf_internal_r+0x78c>
    3b30:	05400404 	movi	r21,16
    3b34:	d8801f17 	ldw	r2,124(sp)
    3b38:	acc46e0e 	bge	r21,r19,4cf4 <___vfprintf_internal_r+0x18b8>
    3b3c:	014000b4 	movhi	r5,2
    3b40:	296b0184 	addi	r5,r5,-21498
    3b44:	d9402c15 	stw	r5,176(sp)
    3b48:	048001c4 	movi	r18,7
    3b4c:	00000306 	br	3b5c <___vfprintf_internal_r+0x720>
    3b50:	9cfffc04 	addi	r19,r19,-16
    3b54:	42000204 	addi	r8,r8,8
    3b58:	acc0110e 	bge	r21,r19,3ba0 <___vfprintf_internal_r+0x764>
    3b5c:	18c00404 	addi	r3,r3,16
    3b60:	10800044 	addi	r2,r2,1
    3b64:	45000015 	stw	r20,0(r8)
    3b68:	45400115 	stw	r21,4(r8)
    3b6c:	d8c02015 	stw	r3,128(sp)
    3b70:	d8801f15 	stw	r2,124(sp)
    3b74:	90bff60e 	bge	r18,r2,3b50 <___vfprintf_internal_r+0x714>
    3b78:	b809883a 	mov	r4,r23
    3b7c:	b00b883a 	mov	r5,r22
    3b80:	d9801e04 	addi	r6,sp,120
    3b84:	0009e140 	call	9e14 <__sprint_r>
    3b88:	103f211e 	bne	r2,zero,3810 <___vfprintf_internal_r+0x3d4>
    3b8c:	9cfffc04 	addi	r19,r19,-16
    3b90:	d8c02017 	ldw	r3,128(sp)
    3b94:	d8801f17 	ldw	r2,124(sp)
    3b98:	da000404 	addi	r8,sp,16
    3b9c:	acffef16 	blt	r21,r19,3b5c <___vfprintf_internal_r+0x720>
    3ba0:	d9002c17 	ldw	r4,176(sp)
    3ba4:	1cc7883a 	add	r3,r3,r19
    3ba8:	10800044 	addi	r2,r2,1
    3bac:	41000015 	stw	r4,0(r8)
    3bb0:	44c00115 	stw	r19,4(r8)
    3bb4:	d8c02015 	stw	r3,128(sp)
    3bb8:	d8801f15 	stw	r2,124(sp)
    3bbc:	010001c4 	movi	r4,7
    3bc0:	20827e16 	blt	r4,r2,45bc <___vfprintf_internal_r+0x1180>
    3bc4:	42000204 	addi	r8,r8,8
    3bc8:	e080400c 	andi	r2,fp,256
    3bcc:	1001a81e 	bne	r2,zero,4270 <___vfprintf_internal_r+0xe34>
    3bd0:	d8801f17 	ldw	r2,124(sp)
    3bd4:	d9403117 	ldw	r5,196(sp)
    3bd8:	1c47883a 	add	r3,r3,r17
    3bdc:	10800044 	addi	r2,r2,1
    3be0:	41400015 	stw	r5,0(r8)
    3be4:	44400115 	stw	r17,4(r8)
    3be8:	d8c02015 	stw	r3,128(sp)
    3bec:	d8801f15 	stw	r2,124(sp)
    3bf0:	010001c4 	movi	r4,7
    3bf4:	20825916 	blt	r4,r2,455c <___vfprintf_internal_r+0x1120>
    3bf8:	42000204 	addi	r8,r8,8
    3bfc:	e080010c 	andi	r2,fp,4
    3c00:	10003126 	beq	r2,zero,3cc8 <___vfprintf_internal_r+0x88c>
    3c04:	d8802e17 	ldw	r2,184(sp)
    3c08:	d9002b17 	ldw	r4,172(sp)
    3c0c:	1121c83a 	sub	r16,r2,r4
    3c10:	04002d0e 	bge	zero,r16,3cc8 <___vfprintf_internal_r+0x88c>
    3c14:	04400404 	movi	r17,16
    3c18:	d8801f17 	ldw	r2,124(sp)
    3c1c:	8c053f0e 	bge	r17,r16,511c <___vfprintf_internal_r+0x1ce0>
    3c20:	010000b4 	movhi	r4,2
    3c24:	212b0584 	addi	r4,r4,-21482
    3c28:	d9003615 	stw	r4,216(sp)
    3c2c:	048001c4 	movi	r18,7
    3c30:	00000306 	br	3c40 <___vfprintf_internal_r+0x804>
    3c34:	843ffc04 	addi	r16,r16,-16
    3c38:	42000204 	addi	r8,r8,8
    3c3c:	8c00130e 	bge	r17,r16,3c8c <___vfprintf_internal_r+0x850>
    3c40:	014000b4 	movhi	r5,2
    3c44:	18c00404 	addi	r3,r3,16
    3c48:	10800044 	addi	r2,r2,1
    3c4c:	296b0584 	addi	r5,r5,-21482
    3c50:	41400015 	stw	r5,0(r8)
    3c54:	44400115 	stw	r17,4(r8)
    3c58:	d8c02015 	stw	r3,128(sp)
    3c5c:	d8801f15 	stw	r2,124(sp)
    3c60:	90bff40e 	bge	r18,r2,3c34 <___vfprintf_internal_r+0x7f8>
    3c64:	b809883a 	mov	r4,r23
    3c68:	b00b883a 	mov	r5,r22
    3c6c:	d9801e04 	addi	r6,sp,120
    3c70:	0009e140 	call	9e14 <__sprint_r>
    3c74:	103ee61e 	bne	r2,zero,3810 <___vfprintf_internal_r+0x3d4>
    3c78:	843ffc04 	addi	r16,r16,-16
    3c7c:	d8c02017 	ldw	r3,128(sp)
    3c80:	d8801f17 	ldw	r2,124(sp)
    3c84:	da000404 	addi	r8,sp,16
    3c88:	8c3fed16 	blt	r17,r16,3c40 <___vfprintf_internal_r+0x804>
    3c8c:	d9003617 	ldw	r4,216(sp)
    3c90:	1c07883a 	add	r3,r3,r16
    3c94:	10800044 	addi	r2,r2,1
    3c98:	41000015 	stw	r4,0(r8)
    3c9c:	44000115 	stw	r16,4(r8)
    3ca0:	d8c02015 	stw	r3,128(sp)
    3ca4:	d8801f15 	stw	r2,124(sp)
    3ca8:	010001c4 	movi	r4,7
    3cac:	2080060e 	bge	r4,r2,3cc8 <___vfprintf_internal_r+0x88c>
    3cb0:	b809883a 	mov	r4,r23
    3cb4:	b00b883a 	mov	r5,r22
    3cb8:	d9801e04 	addi	r6,sp,120
    3cbc:	0009e140 	call	9e14 <__sprint_r>
    3cc0:	103ed31e 	bne	r2,zero,3810 <___vfprintf_internal_r+0x3d4>
    3cc4:	d8c02017 	ldw	r3,128(sp)
    3cc8:	df002b17 	ldw	fp,172(sp)
    3ccc:	d9402e17 	ldw	r5,184(sp)
    3cd0:	e140010e 	bge	fp,r5,3cd8 <___vfprintf_internal_r+0x89c>
    3cd4:	2839883a 	mov	fp,r5
    3cd8:	d8802f17 	ldw	r2,188(sp)
    3cdc:	1705883a 	add	r2,r2,fp
    3ce0:	d8802f15 	stw	r2,188(sp)
    3ce4:	1802251e 	bne	r3,zero,457c <___vfprintf_internal_r+0x1140>
    3ce8:	d8c02a17 	ldw	r3,168(sp)
    3cec:	d8001f15 	stw	zero,124(sp)
    3cf0:	da000404 	addi	r8,sp,16
    3cf4:	18800007 	ldb	r2,0(r3)
    3cf8:	103e0e1e 	bne	r2,zero,3534 <___vfprintf_internal_r+0xf8>
    3cfc:	dc002a17 	ldw	r16,168(sp)
    3d00:	003e2606 	br	359c <___vfprintf_internal_r+0x160>
    3d04:	d9002d17 	ldw	r4,180(sp)
    3d08:	d9402d17 	ldw	r5,180(sp)
    3d0c:	da002a17 	ldw	r8,168(sp)
    3d10:	21000017 	ldw	r4,0(r4)
    3d14:	29400117 	ldw	r5,4(r5)
    3d18:	df002a15 	stw	fp,168(sp)
    3d1c:	9839883a 	mov	fp,r19
    3d20:	dcc02b03 	ldbu	r19,172(sp)
    3d24:	d9003715 	stw	r4,220(sp)
    3d28:	d9403915 	stw	r5,228(sp)
    3d2c:	da003f15 	stw	r8,252(sp)
    3d30:	da403e15 	stw	r9,248(sp)
    3d34:	dcc02785 	stb	r19,158(sp)
    3d38:	00099d80 	call	99d8 <__fpclassifyd>
    3d3c:	d8c02d17 	ldw	r3,180(sp)
    3d40:	04400044 	movi	r17,1
    3d44:	da003f17 	ldw	r8,252(sp)
    3d48:	1c800204 	addi	r18,r3,8
    3d4c:	da403e17 	ldw	r9,248(sp)
    3d50:	d9003717 	ldw	r4,220(sp)
    3d54:	d9403917 	ldw	r5,228(sp)
    3d58:	1443411e 	bne	r2,r17,4a60 <___vfprintf_internal_r+0x1624>
    3d5c:	000d883a 	mov	r6,zero
    3d60:	000f883a 	mov	r7,zero
    3d64:	0001d240 	call	1d24 <__ledf2>
    3d68:	da003f17 	ldw	r8,252(sp)
    3d6c:	10050d16 	blt	r2,zero,51a4 <___vfprintf_internal_r+0x1d68>
    3d70:	dcc02783 	ldbu	r19,158(sp)
    3d74:	008011c4 	movi	r2,71
    3d78:	1404590e 	bge	r2,r16,4ee0 <___vfprintf_internal_r+0x1aa4>
    3d7c:	014000b4 	movhi	r5,2
    3d80:	296af204 	addi	r5,r5,-21560
    3d84:	d9403115 	stw	r5,196(sp)
    3d88:	00c000c4 	movi	r3,3
    3d8c:	00bfdfc4 	movi	r2,-129
    3d90:	d8c02b15 	stw	r3,172(sp)
    3d94:	e0b8703a 	and	fp,fp,r2
    3d98:	dc802d15 	stw	r18,180(sp)
    3d9c:	1823883a 	mov	r17,r3
    3da0:	d8003215 	stw	zero,200(sp)
    3da4:	d8003415 	stw	zero,208(sp)
    3da8:	003f0106 	br	39b0 <___vfprintf_internal_r+0x574>
    3dac:	9cc00214 	ori	r19,r19,8
    3db0:	e005883a 	mov	r2,fp
    3db4:	e4000007 	ldb	r16,0(fp)
    3db8:	003e0606 	br	35d4 <___vfprintf_internal_r+0x198>
    3dbc:	da002a17 	ldw	r8,168(sp)
    3dc0:	df002a15 	stw	fp,168(sp)
    3dc4:	9f000414 	ori	fp,r19,16
    3dc8:	e080080c 	andi	r2,fp,32
    3dcc:	1000e726 	beq	r2,zero,416c <___vfprintf_internal_r+0xd30>
    3dd0:	d9402d17 	ldw	r5,180(sp)
    3dd4:	0005883a 	mov	r2,zero
    3dd8:	2c800017 	ldw	r18,0(r5)
    3ddc:	2d400117 	ldw	r21,4(r5)
    3de0:	29400204 	addi	r5,r5,8
    3de4:	d9402d15 	stw	r5,180(sp)
    3de8:	9546b03a 	or	r3,r18,r21
    3dec:	d8002785 	stb	zero,158(sp)
    3df0:	da403215 	stw	r9,200(sp)
    3df4:	0027883a 	mov	r19,zero
    3df8:	003ece06 	br	3934 <___vfprintf_internal_r+0x4f8>
    3dfc:	da002a17 	ldw	r8,168(sp)
    3e00:	df002a15 	stw	fp,168(sp)
    3e04:	9f000414 	ori	fp,r19,16
    3e08:	e080080c 	andi	r2,fp,32
    3e0c:	1000c826 	beq	r2,zero,4130 <___vfprintf_internal_r+0xcf4>
    3e10:	d9002d17 	ldw	r4,180(sp)
    3e14:	00800044 	movi	r2,1
    3e18:	24800017 	ldw	r18,0(r4)
    3e1c:	25400117 	ldw	r21,4(r4)
    3e20:	21000204 	addi	r4,r4,8
    3e24:	d9002d15 	stw	r4,180(sp)
    3e28:	9546b03a 	or	r3,r18,r21
    3e2c:	003fef06 	br	3dec <___vfprintf_internal_r+0x9b0>
    3e30:	d9402d17 	ldw	r5,180(sp)
    3e34:	00800c04 	movi	r2,48
    3e38:	d8802705 	stb	r2,156(sp)
    3e3c:	2c800017 	ldw	r18,0(r5)
    3e40:	00801e04 	movi	r2,120
    3e44:	d8802745 	stb	r2,157(sp)
    3e48:	008000b4 	movhi	r2,2
    3e4c:	10aafa04 	addi	r2,r2,-21528
    3e50:	29400104 	addi	r5,r5,4
    3e54:	da002a17 	ldw	r8,168(sp)
    3e58:	d8803b15 	stw	r2,236(sp)
    3e5c:	df002a15 	stw	fp,168(sp)
    3e60:	002b883a 	mov	r21,zero
    3e64:	9f000094 	ori	fp,r19,2
    3e68:	d9402d15 	stw	r5,180(sp)
    3e6c:	00800084 	movi	r2,2
    3e70:	04001e04 	movi	r16,120
    3e74:	9007883a 	mov	r3,r18
    3e78:	003fdc06 	br	3dec <___vfprintf_internal_r+0x9b0>
    3e7c:	da002a17 	ldw	r8,168(sp)
    3e80:	df002a15 	stw	fp,168(sp)
    3e84:	9839883a 	mov	fp,r19
    3e88:	dcc02b03 	ldbu	r19,172(sp)
    3e8c:	e080080c 	andi	r2,fp,32
    3e90:	d8c02d17 	ldw	r3,180(sp)
    3e94:	dcc02785 	stb	r19,158(sp)
    3e98:	103e9b1e 	bne	r2,zero,3908 <___vfprintf_internal_r+0x4cc>
    3e9c:	e080040c 	andi	r2,fp,16
    3ea0:	10036626 	beq	r2,zero,4c3c <___vfprintf_internal_r+0x1800>
    3ea4:	1c800017 	ldw	r18,0(r3)
    3ea8:	d9402d17 	ldw	r5,180(sp)
    3eac:	902bd7fa 	srai	r21,r18,31
    3eb0:	29400104 	addi	r5,r5,4
    3eb4:	d9402d15 	stw	r5,180(sp)
    3eb8:	a805883a 	mov	r2,r21
    3ebc:	003e9806 	br	3920 <___vfprintf_internal_r+0x4e4>
    3ec0:	9cc01014 	ori	r19,r19,64
    3ec4:	e005883a 	mov	r2,fp
    3ec8:	e4000007 	ldb	r16,0(fp)
    3ecc:	003dc106 	br	35d4 <___vfprintf_internal_r+0x198>
    3ed0:	e4000007 	ldb	r16,0(fp)
    3ed4:	00801b04 	movi	r2,108
    3ed8:	80841426 	beq	r16,r2,4f2c <___vfprintf_internal_r+0x1af0>
    3edc:	9cc00414 	ori	r19,r19,16
    3ee0:	e005883a 	mov	r2,fp
    3ee4:	003dbb06 	br	35d4 <___vfprintf_internal_r+0x198>
    3ee8:	da002a17 	ldw	r8,168(sp)
    3eec:	df002a15 	stw	fp,168(sp)
    3ef0:	9839883a 	mov	fp,r19
    3ef4:	dcc02b03 	ldbu	r19,172(sp)
    3ef8:	e080080c 	andi	r2,fp,32
    3efc:	dcc02785 	stb	r19,158(sp)
    3f00:	10036126 	beq	r2,zero,4c88 <___vfprintf_internal_r+0x184c>
    3f04:	d9402d17 	ldw	r5,180(sp)
    3f08:	d9002f17 	ldw	r4,188(sp)
    3f0c:	28800017 	ldw	r2,0(r5)
    3f10:	2007d7fa 	srai	r3,r4,31
    3f14:	29400104 	addi	r5,r5,4
    3f18:	d9402d15 	stw	r5,180(sp)
    3f1c:	11000015 	stw	r4,0(r2)
    3f20:	10c00115 	stw	r3,4(r2)
    3f24:	003d8006 	br	3528 <___vfprintf_internal_r+0xec>
    3f28:	da002a17 	ldw	r8,168(sp)
    3f2c:	df002a15 	stw	fp,168(sp)
    3f30:	9839883a 	mov	fp,r19
    3f34:	dcc02b03 	ldbu	r19,172(sp)
    3f38:	014000b4 	movhi	r5,2
    3f3c:	296af504 	addi	r5,r5,-21548
    3f40:	dcc02785 	stb	r19,158(sp)
    3f44:	d9403b15 	stw	r5,236(sp)
    3f48:	e0c0080c 	andi	r3,fp,32
    3f4c:	d8802d17 	ldw	r2,180(sp)
    3f50:	18006626 	beq	r3,zero,40ec <___vfprintf_internal_r+0xcb0>
    3f54:	d9402d17 	ldw	r5,180(sp)
    3f58:	14800017 	ldw	r18,0(r2)
    3f5c:	15400117 	ldw	r21,4(r2)
    3f60:	29400204 	addi	r5,r5,8
    3f64:	d9402d15 	stw	r5,180(sp)
    3f68:	e080004c 	andi	r2,fp,1
    3f6c:	1001fd26 	beq	r2,zero,4764 <___vfprintf_internal_r+0x1328>
    3f70:	9546b03a 	or	r3,r18,r21
    3f74:	18034f26 	beq	r3,zero,4cb4 <___vfprintf_internal_r+0x1878>
    3f78:	00800c04 	movi	r2,48
    3f7c:	d8802705 	stb	r2,156(sp)
    3f80:	dc002745 	stb	r16,157(sp)
    3f84:	e7000094 	ori	fp,fp,2
    3f88:	00800084 	movi	r2,2
    3f8c:	003f9706 	br	3dec <___vfprintf_internal_r+0x9b0>
    3f90:	d8c02d17 	ldw	r3,180(sp)
    3f94:	d9002d17 	ldw	r4,180(sp)
    3f98:	da002a17 	ldw	r8,168(sp)
    3f9c:	18800017 	ldw	r2,0(r3)
    3fa0:	21000104 	addi	r4,r4,4
    3fa4:	00c00044 	movi	r3,1
    3fa8:	df002a15 	stw	fp,168(sp)
    3fac:	d8c02b15 	stw	r3,172(sp)
    3fb0:	9839883a 	mov	fp,r19
    3fb4:	d8002785 	stb	zero,158(sp)
    3fb8:	d8801405 	stb	r2,80(sp)
    3fbc:	d9002d15 	stw	r4,180(sp)
    3fc0:	1823883a 	mov	r17,r3
    3fc4:	d8c01404 	addi	r3,sp,80
    3fc8:	d8003215 	stw	zero,200(sp)
    3fcc:	d8003415 	stw	zero,208(sp)
    3fd0:	d8c03115 	stw	r3,196(sp)
    3fd4:	0005883a 	mov	r2,zero
    3fd8:	003e7c06 	br	39cc <___vfprintf_internal_r+0x590>
    3fdc:	d8802b07 	ldb	r2,172(sp)
    3fe0:	1003011e 	bne	r2,zero,4be8 <___vfprintf_internal_r+0x17ac>
    3fe4:	00c00804 	movi	r3,32
    3fe8:	d8c02b05 	stb	r3,172(sp)
    3fec:	e005883a 	mov	r2,fp
    3ff0:	e4000007 	ldb	r16,0(fp)
    3ff4:	003d7706 	br	35d4 <___vfprintf_internal_r+0x198>
    3ff8:	9cc00054 	ori	r19,r19,1
    3ffc:	e005883a 	mov	r2,fp
    4000:	e4000007 	ldb	r16,0(fp)
    4004:	003d7306 	br	35d4 <___vfprintf_internal_r+0x198>
    4008:	d9002d17 	ldw	r4,180(sp)
    400c:	d9402d17 	ldw	r5,180(sp)
    4010:	21000017 	ldw	r4,0(r4)
    4014:	28c00104 	addi	r3,r5,4
    4018:	d9002e15 	stw	r4,184(sp)
    401c:	2003bd16 	blt	r4,zero,4f14 <___vfprintf_internal_r+0x1ad8>
    4020:	d8c02d15 	stw	r3,180(sp)
    4024:	e005883a 	mov	r2,fp
    4028:	e4000007 	ldb	r16,0(fp)
    402c:	003d6906 	br	35d4 <___vfprintf_internal_r+0x198>
    4030:	00c00ac4 	movi	r3,43
    4034:	d8c02b05 	stb	r3,172(sp)
    4038:	e005883a 	mov	r2,fp
    403c:	e4000007 	ldb	r16,0(fp)
    4040:	003d6406 	br	35d4 <___vfprintf_internal_r+0x198>
    4044:	d8c02d17 	ldw	r3,180(sp)
    4048:	d9002d17 	ldw	r4,180(sp)
    404c:	da002a17 	ldw	r8,168(sp)
    4050:	18c00017 	ldw	r3,0(r3)
    4054:	df002a15 	stw	fp,168(sp)
    4058:	d8002785 	stb	zero,158(sp)
    405c:	d8c03115 	stw	r3,196(sp)
    4060:	9839883a 	mov	fp,r19
    4064:	24800104 	addi	r18,r4,4
    4068:	18041b26 	beq	r3,zero,50d8 <___vfprintf_internal_r+0x1c9c>
    406c:	d9003117 	ldw	r4,196(sp)
    4070:	4803be16 	blt	r9,zero,4f6c <___vfprintf_internal_r+0x1b30>
    4074:	480d883a 	mov	r6,r9
    4078:	000b883a 	mov	r5,zero
    407c:	da003f15 	stw	r8,252(sp)
    4080:	da403e15 	stw	r9,248(sp)
    4084:	00086380 	call	8638 <memchr>
    4088:	da003f17 	ldw	r8,252(sp)
    408c:	da403e17 	ldw	r9,248(sp)
    4090:	10045426 	beq	r2,zero,51e4 <___vfprintf_internal_r+0x1da8>
    4094:	d8c03117 	ldw	r3,196(sp)
    4098:	10e3c83a 	sub	r17,r2,r3
    409c:	4c436a16 	blt	r9,r17,4e48 <___vfprintf_internal_r+0x1a0c>
    40a0:	8805883a 	mov	r2,r17
    40a4:	8803b616 	blt	r17,zero,4f80 <___vfprintf_internal_r+0x1b44>
    40a8:	dcc02783 	ldbu	r19,158(sp)
    40ac:	d8802b15 	stw	r2,172(sp)
    40b0:	dc802d15 	stw	r18,180(sp)
    40b4:	d8003215 	stw	zero,200(sp)
    40b8:	d8003415 	stw	zero,208(sp)
    40bc:	003e3c06 	br	39b0 <___vfprintf_internal_r+0x574>
    40c0:	da002a17 	ldw	r8,168(sp)
    40c4:	df002a15 	stw	fp,168(sp)
    40c8:	9839883a 	mov	fp,r19
    40cc:	dcc02b03 	ldbu	r19,172(sp)
    40d0:	010000b4 	movhi	r4,2
    40d4:	212afa04 	addi	r4,r4,-21528
    40d8:	d9003b15 	stw	r4,236(sp)
    40dc:	dcc02785 	stb	r19,158(sp)
    40e0:	e0c0080c 	andi	r3,fp,32
    40e4:	d8802d17 	ldw	r2,180(sp)
    40e8:	183f9a1e 	bne	r3,zero,3f54 <___vfprintf_internal_r+0xb18>
    40ec:	e0c0040c 	andi	r3,fp,16
    40f0:	1802c026 	beq	r3,zero,4bf4 <___vfprintf_internal_r+0x17b8>
    40f4:	d8c02d17 	ldw	r3,180(sp)
    40f8:	14800017 	ldw	r18,0(r2)
    40fc:	002b883a 	mov	r21,zero
    4100:	18c00104 	addi	r3,r3,4
    4104:	d8c02d15 	stw	r3,180(sp)
    4108:	003f9706 	br	3f68 <___vfprintf_internal_r+0xb2c>
    410c:	9cc00814 	ori	r19,r19,32
    4110:	e005883a 	mov	r2,fp
    4114:	e4000007 	ldb	r16,0(fp)
    4118:	003d2e06 	br	35d4 <___vfprintf_internal_r+0x198>
    411c:	da002a17 	ldw	r8,168(sp)
    4120:	df002a15 	stw	fp,168(sp)
    4124:	9839883a 	mov	fp,r19
    4128:	e080080c 	andi	r2,fp,32
    412c:	103f381e 	bne	r2,zero,3e10 <___vfprintf_internal_r+0x9d4>
    4130:	e080040c 	andi	r2,fp,16
    4134:	1002b726 	beq	r2,zero,4c14 <___vfprintf_internal_r+0x17d8>
    4138:	d9402d17 	ldw	r5,180(sp)
    413c:	002b883a 	mov	r21,zero
    4140:	00800044 	movi	r2,1
    4144:	2c800017 	ldw	r18,0(r5)
    4148:	29400104 	addi	r5,r5,4
    414c:	d9402d15 	stw	r5,180(sp)
    4150:	9007883a 	mov	r3,r18
    4154:	003f2506 	br	3dec <___vfprintf_internal_r+0x9b0>
    4158:	da002a17 	ldw	r8,168(sp)
    415c:	df002a15 	stw	fp,168(sp)
    4160:	9839883a 	mov	fp,r19
    4164:	e080080c 	andi	r2,fp,32
    4168:	103f191e 	bne	r2,zero,3dd0 <___vfprintf_internal_r+0x994>
    416c:	e080040c 	andi	r2,fp,16
    4170:	1002bb26 	beq	r2,zero,4c60 <___vfprintf_internal_r+0x1824>
    4174:	d8802d17 	ldw	r2,180(sp)
    4178:	002b883a 	mov	r21,zero
    417c:	14800017 	ldw	r18,0(r2)
    4180:	10800104 	addi	r2,r2,4
    4184:	d8802d15 	stw	r2,180(sp)
    4188:	9007883a 	mov	r3,r18
    418c:	0005883a 	mov	r2,zero
    4190:	003f1606 	br	3dec <___vfprintf_internal_r+0x9b0>
    4194:	da002a17 	ldw	r8,168(sp)
    4198:	df002a15 	stw	fp,168(sp)
    419c:	9839883a 	mov	fp,r19
    41a0:	dcc02b03 	ldbu	r19,172(sp)
    41a4:	dcc02785 	stb	r19,158(sp)
    41a8:	803d9326 	beq	r16,zero,37f8 <___vfprintf_internal_r+0x3bc>
    41ac:	00c00044 	movi	r3,1
    41b0:	d8c02b15 	stw	r3,172(sp)
    41b4:	dc001405 	stb	r16,80(sp)
    41b8:	d8002785 	stb	zero,158(sp)
    41bc:	003f8006 	br	3fc0 <___vfprintf_internal_r+0xb84>
    41c0:	d8c02017 	ldw	r3,128(sp)
    41c4:	003e3906 	br	3aac <___vfprintf_internal_r+0x670>
    41c8:	10803fcc 	andi	r2,r2,255
    41cc:	00c00044 	movi	r3,1
    41d0:	10fde01e 	bne	r2,r3,3954 <___vfprintf_internal_r+0x518>
    41d4:	a800021e 	bne	r21,zero,41e0 <___vfprintf_internal_r+0xda4>
    41d8:	00800244 	movi	r2,9
    41dc:	14801e2e 	bgeu	r2,r18,4258 <___vfprintf_internal_r+0xe1c>
    41e0:	dc002b15 	stw	r16,172(sp)
    41e4:	dc401e04 	addi	r17,sp,120
    41e8:	9021883a 	mov	r16,r18
    41ec:	da402c15 	stw	r9,176(sp)
    41f0:	a825883a 	mov	r18,r21
    41f4:	402b883a 	mov	r21,r8
    41f8:	8009883a 	mov	r4,r16
    41fc:	900b883a 	mov	r5,r18
    4200:	01800284 	movi	r6,10
    4204:	000f883a 	mov	r7,zero
    4208:	000ccd80 	call	ccd8 <__umoddi3>
    420c:	10800c04 	addi	r2,r2,48
    4210:	8c7fffc4 	addi	r17,r17,-1
    4214:	8009883a 	mov	r4,r16
    4218:	900b883a 	mov	r5,r18
    421c:	01800284 	movi	r6,10
    4220:	000f883a 	mov	r7,zero
    4224:	88800005 	stb	r2,0(r17)
    4228:	000c6980 	call	c698 <__udivdi3>
    422c:	1021883a 	mov	r16,r2
    4230:	10c4b03a 	or	r2,r2,r3
    4234:	1825883a 	mov	r18,r3
    4238:	103fef1e 	bne	r2,zero,41f8 <___vfprintf_internal_r+0xdbc>
    423c:	d9002817 	ldw	r4,160(sp)
    4240:	dc403115 	stw	r17,196(sp)
    4244:	dc002b17 	ldw	r16,172(sp)
    4248:	da402c17 	ldw	r9,176(sp)
    424c:	a811883a 	mov	r8,r21
    4250:	2463c83a 	sub	r17,r4,r17
    4254:	003dd106 	br	399c <___vfprintf_internal_r+0x560>
    4258:	94800c04 	addi	r18,r18,48
    425c:	d8c01dc4 	addi	r3,sp,119
    4260:	dc801dc5 	stb	r18,119(sp)
    4264:	dc403c17 	ldw	r17,240(sp)
    4268:	d8c03115 	stw	r3,196(sp)
    426c:	003dcb06 	br	399c <___vfprintf_internal_r+0x560>
    4270:	00801944 	movi	r2,101
    4274:	1400720e 	bge	r2,r16,4440 <___vfprintf_internal_r+0x1004>
    4278:	d9003717 	ldw	r4,220(sp)
    427c:	d9403917 	ldw	r5,228(sp)
    4280:	000d883a 	mov	r6,zero
    4284:	000f883a 	mov	r7,zero
    4288:	d8c03d15 	stw	r3,244(sp)
    428c:	da003f15 	stw	r8,252(sp)
    4290:	000db900 	call	db90 <__eqdf2>
    4294:	d8c03d17 	ldw	r3,244(sp)
    4298:	da003f17 	ldw	r8,252(sp)
    429c:	1000f41e 	bne	r2,zero,4670 <___vfprintf_internal_r+0x1234>
    42a0:	d8801f17 	ldw	r2,124(sp)
    42a4:	010000b4 	movhi	r4,2
    42a8:	212b0104 	addi	r4,r4,-21500
    42ac:	18c00044 	addi	r3,r3,1
    42b0:	10800044 	addi	r2,r2,1
    42b4:	41000015 	stw	r4,0(r8)
    42b8:	01000044 	movi	r4,1
    42bc:	41000115 	stw	r4,4(r8)
    42c0:	d8c02015 	stw	r3,128(sp)
    42c4:	d8801f15 	stw	r2,124(sp)
    42c8:	010001c4 	movi	r4,7
    42cc:	20828d16 	blt	r4,r2,4d04 <___vfprintf_internal_r+0x18c8>
    42d0:	42000204 	addi	r8,r8,8
    42d4:	d8802617 	ldw	r2,152(sp)
    42d8:	d9403317 	ldw	r5,204(sp)
    42dc:	11400216 	blt	r2,r5,42e8 <___vfprintf_internal_r+0xeac>
    42e0:	e080004c 	andi	r2,fp,1
    42e4:	103e4526 	beq	r2,zero,3bfc <___vfprintf_internal_r+0x7c0>
    42e8:	d8803817 	ldw	r2,224(sp)
    42ec:	d9003517 	ldw	r4,212(sp)
    42f0:	d9403817 	ldw	r5,224(sp)
    42f4:	1887883a 	add	r3,r3,r2
    42f8:	d8801f17 	ldw	r2,124(sp)
    42fc:	41000015 	stw	r4,0(r8)
    4300:	41400115 	stw	r5,4(r8)
    4304:	10800044 	addi	r2,r2,1
    4308:	d8c02015 	stw	r3,128(sp)
    430c:	d8801f15 	stw	r2,124(sp)
    4310:	010001c4 	movi	r4,7
    4314:	20830916 	blt	r4,r2,4f3c <___vfprintf_internal_r+0x1b00>
    4318:	42000204 	addi	r8,r8,8
    431c:	d8803317 	ldw	r2,204(sp)
    4320:	143fffc4 	addi	r16,r2,-1
    4324:	043e350e 	bge	zero,r16,3bfc <___vfprintf_internal_r+0x7c0>
    4328:	04400404 	movi	r17,16
    432c:	d8801f17 	ldw	r2,124(sp)
    4330:	8c007e0e 	bge	r17,r16,452c <___vfprintf_internal_r+0x10f0>
    4334:	014000b4 	movhi	r5,2
    4338:	296b0184 	addi	r5,r5,-21498
    433c:	d9402c15 	stw	r5,176(sp)
    4340:	04c001c4 	movi	r19,7
    4344:	00000306 	br	4354 <___vfprintf_internal_r+0xf18>
    4348:	42000204 	addi	r8,r8,8
    434c:	843ffc04 	addi	r16,r16,-16
    4350:	8c00790e 	bge	r17,r16,4538 <___vfprintf_internal_r+0x10fc>
    4354:	18c00404 	addi	r3,r3,16
    4358:	10800044 	addi	r2,r2,1
    435c:	45000015 	stw	r20,0(r8)
    4360:	44400115 	stw	r17,4(r8)
    4364:	d8c02015 	stw	r3,128(sp)
    4368:	d8801f15 	stw	r2,124(sp)
    436c:	98bff60e 	bge	r19,r2,4348 <___vfprintf_internal_r+0xf0c>
    4370:	b809883a 	mov	r4,r23
    4374:	b00b883a 	mov	r5,r22
    4378:	d9801e04 	addi	r6,sp,120
    437c:	0009e140 	call	9e14 <__sprint_r>
    4380:	103d231e 	bne	r2,zero,3810 <___vfprintf_internal_r+0x3d4>
    4384:	d8c02017 	ldw	r3,128(sp)
    4388:	d8801f17 	ldw	r2,124(sp)
    438c:	da000404 	addi	r8,sp,16
    4390:	003fee06 	br	434c <___vfprintf_internal_r+0xf10>
    4394:	d9402e17 	ldw	r5,184(sp)
    4398:	d8802b17 	ldw	r2,172(sp)
    439c:	28a7c83a 	sub	r19,r5,r2
    43a0:	04fde00e 	bge	zero,r19,3b24 <___vfprintf_internal_r+0x6e8>
    43a4:	05400404 	movi	r21,16
    43a8:	d8801f17 	ldw	r2,124(sp)
    43ac:	acc3870e 	bge	r21,r19,51cc <___vfprintf_internal_r+0x1d90>
    43b0:	014000b4 	movhi	r5,2
    43b4:	296b0184 	addi	r5,r5,-21498
    43b8:	d9402c15 	stw	r5,176(sp)
    43bc:	048001c4 	movi	r18,7
    43c0:	00000306 	br	43d0 <___vfprintf_internal_r+0xf94>
    43c4:	9cfffc04 	addi	r19,r19,-16
    43c8:	42000204 	addi	r8,r8,8
    43cc:	acc0110e 	bge	r21,r19,4414 <___vfprintf_internal_r+0xfd8>
    43d0:	18c00404 	addi	r3,r3,16
    43d4:	10800044 	addi	r2,r2,1
    43d8:	45000015 	stw	r20,0(r8)
    43dc:	45400115 	stw	r21,4(r8)
    43e0:	d8c02015 	stw	r3,128(sp)
    43e4:	d8801f15 	stw	r2,124(sp)
    43e8:	90bff60e 	bge	r18,r2,43c4 <___vfprintf_internal_r+0xf88>
    43ec:	b809883a 	mov	r4,r23
    43f0:	b00b883a 	mov	r5,r22
    43f4:	d9801e04 	addi	r6,sp,120
    43f8:	0009e140 	call	9e14 <__sprint_r>
    43fc:	103d041e 	bne	r2,zero,3810 <___vfprintf_internal_r+0x3d4>
    4400:	9cfffc04 	addi	r19,r19,-16
    4404:	d8c02017 	ldw	r3,128(sp)
    4408:	d8801f17 	ldw	r2,124(sp)
    440c:	da000404 	addi	r8,sp,16
    4410:	acffef16 	blt	r21,r19,43d0 <___vfprintf_internal_r+0xf94>
    4414:	d9002c17 	ldw	r4,176(sp)
    4418:	1cc7883a 	add	r3,r3,r19
    441c:	10800044 	addi	r2,r2,1
    4420:	41000015 	stw	r4,0(r8)
    4424:	44c00115 	stw	r19,4(r8)
    4428:	d8c02015 	stw	r3,128(sp)
    442c:	d8801f15 	stw	r2,124(sp)
    4430:	010001c4 	movi	r4,7
    4434:	20817816 	blt	r4,r2,4a18 <___vfprintf_internal_r+0x15dc>
    4438:	42000204 	addi	r8,r8,8
    443c:	003db906 	br	3b24 <___vfprintf_internal_r+0x6e8>
    4440:	d9403317 	ldw	r5,204(sp)
    4444:	00800044 	movi	r2,1
    4448:	18c00044 	addi	r3,r3,1
    444c:	11413e0e 	bge	r2,r5,4948 <___vfprintf_internal_r+0x150c>
    4450:	dc001f17 	ldw	r16,124(sp)
    4454:	d8803117 	ldw	r2,196(sp)
    4458:	d8c02015 	stw	r3,128(sp)
    445c:	84000044 	addi	r16,r16,1
    4460:	40800015 	stw	r2,0(r8)
    4464:	00800044 	movi	r2,1
    4468:	40800115 	stw	r2,4(r8)
    446c:	dc001f15 	stw	r16,124(sp)
    4470:	008001c4 	movi	r2,7
    4474:	14015616 	blt	r2,r16,49d0 <___vfprintf_internal_r+0x1594>
    4478:	42000204 	addi	r8,r8,8
    447c:	d9003817 	ldw	r4,224(sp)
    4480:	d9403517 	ldw	r5,212(sp)
    4484:	84000044 	addi	r16,r16,1
    4488:	1907883a 	add	r3,r3,r4
    448c:	41400015 	stw	r5,0(r8)
    4490:	41000115 	stw	r4,4(r8)
    4494:	d8c02015 	stw	r3,128(sp)
    4498:	dc001f15 	stw	r16,124(sp)
    449c:	008001c4 	movi	r2,7
    44a0:	14015416 	blt	r2,r16,49f4 <___vfprintf_internal_r+0x15b8>
    44a4:	44400204 	addi	r17,r8,8
    44a8:	d9003717 	ldw	r4,220(sp)
    44ac:	d9403917 	ldw	r5,228(sp)
    44b0:	000d883a 	mov	r6,zero
    44b4:	000f883a 	mov	r7,zero
    44b8:	d8c03d15 	stw	r3,244(sp)
    44bc:	000db900 	call	db90 <__eqdf2>
    44c0:	d8c03d17 	ldw	r3,244(sp)
    44c4:	1000aa26 	beq	r2,zero,4770 <___vfprintf_internal_r+0x1334>
    44c8:	d9003317 	ldw	r4,204(sp)
    44cc:	d9403117 	ldw	r5,196(sp)
    44d0:	84000044 	addi	r16,r16,1
    44d4:	20bfffc4 	addi	r2,r4,-1
    44d8:	1887883a 	add	r3,r3,r2
    44dc:	29000044 	addi	r4,r5,1
    44e0:	88800115 	stw	r2,4(r17)
    44e4:	89000015 	stw	r4,0(r17)
    44e8:	d8c02015 	stw	r3,128(sp)
    44ec:	dc001f15 	stw	r16,124(sp)
    44f0:	008001c4 	movi	r2,7
    44f4:	14012d16 	blt	r2,r16,49ac <___vfprintf_internal_r+0x1570>
    44f8:	8c400204 	addi	r17,r17,8
    44fc:	d9403a17 	ldw	r5,232(sp)
    4500:	dcc022c4 	addi	r19,sp,139
    4504:	84000044 	addi	r16,r16,1
    4508:	1947883a 	add	r3,r3,r5
    450c:	8cc00015 	stw	r19,0(r17)
    4510:	89400115 	stw	r5,4(r17)
    4514:	d8c02015 	stw	r3,128(sp)
    4518:	dc001f15 	stw	r16,124(sp)
    451c:	008001c4 	movi	r2,7
    4520:	14000e16 	blt	r2,r16,455c <___vfprintf_internal_r+0x1120>
    4524:	8a000204 	addi	r8,r17,8
    4528:	003db406 	br	3bfc <___vfprintf_internal_r+0x7c0>
    452c:	010000b4 	movhi	r4,2
    4530:	212b0184 	addi	r4,r4,-21498
    4534:	d9002c15 	stw	r4,176(sp)
    4538:	d9002c17 	ldw	r4,176(sp)
    453c:	1c07883a 	add	r3,r3,r16
    4540:	44000115 	stw	r16,4(r8)
    4544:	41000015 	stw	r4,0(r8)
    4548:	10800044 	addi	r2,r2,1
    454c:	d8c02015 	stw	r3,128(sp)
    4550:	d8801f15 	stw	r2,124(sp)
    4554:	010001c4 	movi	r4,7
    4558:	20bda70e 	bge	r4,r2,3bf8 <___vfprintf_internal_r+0x7bc>
    455c:	b809883a 	mov	r4,r23
    4560:	b00b883a 	mov	r5,r22
    4564:	d9801e04 	addi	r6,sp,120
    4568:	0009e140 	call	9e14 <__sprint_r>
    456c:	103ca81e 	bne	r2,zero,3810 <___vfprintf_internal_r+0x3d4>
    4570:	d8c02017 	ldw	r3,128(sp)
    4574:	da000404 	addi	r8,sp,16
    4578:	003da006 	br	3bfc <___vfprintf_internal_r+0x7c0>
    457c:	b809883a 	mov	r4,r23
    4580:	b00b883a 	mov	r5,r22
    4584:	d9801e04 	addi	r6,sp,120
    4588:	0009e140 	call	9e14 <__sprint_r>
    458c:	103dd626 	beq	r2,zero,3ce8 <___vfprintf_internal_r+0x8ac>
    4590:	003c9f06 	br	3810 <___vfprintf_internal_r+0x3d4>
    4594:	10803fcc 	andi	r2,r2,255
    4598:	1000201e 	bne	r2,zero,461c <___vfprintf_internal_r+0x11e0>
    459c:	e080004c 	andi	r2,fp,1
    45a0:	10001e26 	beq	r2,zero,461c <___vfprintf_internal_r+0x11e0>
    45a4:	00800c04 	movi	r2,48
    45a8:	d8c01dc4 	addi	r3,sp,119
    45ac:	d8801dc5 	stb	r2,119(sp)
    45b0:	dc403c17 	ldw	r17,240(sp)
    45b4:	d8c03115 	stw	r3,196(sp)
    45b8:	003cf806 	br	399c <___vfprintf_internal_r+0x560>
    45bc:	b809883a 	mov	r4,r23
    45c0:	b00b883a 	mov	r5,r22
    45c4:	d9801e04 	addi	r6,sp,120
    45c8:	0009e140 	call	9e14 <__sprint_r>
    45cc:	103c901e 	bne	r2,zero,3810 <___vfprintf_internal_r+0x3d4>
    45d0:	d8c02017 	ldw	r3,128(sp)
    45d4:	da000404 	addi	r8,sp,16
    45d8:	003d7b06 	br	3bc8 <___vfprintf_internal_r+0x78c>
    45dc:	b809883a 	mov	r4,r23
    45e0:	b00b883a 	mov	r5,r22
    45e4:	d9801e04 	addi	r6,sp,120
    45e8:	0009e140 	call	9e14 <__sprint_r>
    45ec:	103c881e 	bne	r2,zero,3810 <___vfprintf_internal_r+0x3d4>
    45f0:	d8c02017 	ldw	r3,128(sp)
    45f4:	da000404 	addi	r8,sp,16
    45f8:	003d3906 	br	3ae0 <___vfprintf_internal_r+0x6a4>
    45fc:	b809883a 	mov	r4,r23
    4600:	b00b883a 	mov	r5,r22
    4604:	d9801e04 	addi	r6,sp,120
    4608:	0009e140 	call	9e14 <__sprint_r>
    460c:	103c801e 	bne	r2,zero,3810 <___vfprintf_internal_r+0x3d4>
    4610:	d8c02017 	ldw	r3,128(sp)
    4614:	da000404 	addi	r8,sp,16
    4618:	003d3f06 	br	3b18 <___vfprintf_internal_r+0x6dc>
    461c:	d8c01e04 	addi	r3,sp,120
    4620:	0023883a 	mov	r17,zero
    4624:	d8c03115 	stw	r3,196(sp)
    4628:	003cdc06 	br	399c <___vfprintf_internal_r+0x560>
    462c:	d9403b17 	ldw	r5,236(sp)
    4630:	d8c01e04 	addi	r3,sp,120
    4634:	908003cc 	andi	r2,r18,15
    4638:	a808973a 	slli	r4,r21,28
    463c:	2885883a 	add	r2,r5,r2
    4640:	9024d13a 	srli	r18,r18,4
    4644:	10800003 	ldbu	r2,0(r2)
    4648:	a82ad13a 	srli	r21,r21,4
    464c:	18ffffc4 	addi	r3,r3,-1
    4650:	24a4b03a 	or	r18,r4,r18
    4654:	18800005 	stb	r2,0(r3)
    4658:	9544b03a 	or	r2,r18,r21
    465c:	103ff51e 	bne	r2,zero,4634 <___vfprintf_internal_r+0x11f8>
    4660:	d9402817 	ldw	r5,160(sp)
    4664:	d8c03115 	stw	r3,196(sp)
    4668:	28e3c83a 	sub	r17,r5,r3
    466c:	003ccb06 	br	399c <___vfprintf_internal_r+0x560>
    4670:	dc002617 	ldw	r16,152(sp)
    4674:	0401ab0e 	bge	zero,r16,4d24 <___vfprintf_internal_r+0x18e8>
    4678:	d8803317 	ldw	r2,204(sp)
    467c:	d9403117 	ldw	r5,196(sp)
    4680:	d9003417 	ldw	r4,208(sp)
    4684:	1023883a 	mov	r17,r2
    4688:	28a1883a 	add	r16,r5,r2
    468c:	2080010e 	bge	r4,r2,4694 <___vfprintf_internal_r+0x1258>
    4690:	2023883a 	mov	r17,r4
    4694:	04400b0e 	bge	zero,r17,46c4 <___vfprintf_internal_r+0x1288>
    4698:	d8801f17 	ldw	r2,124(sp)
    469c:	d9403117 	ldw	r5,196(sp)
    46a0:	1c47883a 	add	r3,r3,r17
    46a4:	10800044 	addi	r2,r2,1
    46a8:	41400015 	stw	r5,0(r8)
    46ac:	44400115 	stw	r17,4(r8)
    46b0:	d8c02015 	stw	r3,128(sp)
    46b4:	d8801f15 	stw	r2,124(sp)
    46b8:	010001c4 	movi	r4,7
    46bc:	20826716 	blt	r4,r2,505c <___vfprintf_internal_r+0x1c20>
    46c0:	42000204 	addi	r8,r8,8
    46c4:	88026316 	blt	r17,zero,5054 <___vfprintf_internal_r+0x1c18>
    46c8:	d8803417 	ldw	r2,208(sp)
    46cc:	1463c83a 	sub	r17,r2,r17
    46d0:	0440590e 	bge	zero,r17,4838 <___vfprintf_internal_r+0x13fc>
    46d4:	04c00404 	movi	r19,16
    46d8:	d8801f17 	ldw	r2,124(sp)
    46dc:	9c41770e 	bge	r19,r17,4cbc <___vfprintf_internal_r+0x1880>
    46e0:	014000b4 	movhi	r5,2
    46e4:	296b0184 	addi	r5,r5,-21498
    46e8:	d9402c15 	stw	r5,176(sp)
    46ec:	054001c4 	movi	r21,7
    46f0:	00000306 	br	4700 <___vfprintf_internal_r+0x12c4>
    46f4:	42000204 	addi	r8,r8,8
    46f8:	8c7ffc04 	addi	r17,r17,-16
    46fc:	9c41720e 	bge	r19,r17,4cc8 <___vfprintf_internal_r+0x188c>
    4700:	18c00404 	addi	r3,r3,16
    4704:	10800044 	addi	r2,r2,1
    4708:	45000015 	stw	r20,0(r8)
    470c:	44c00115 	stw	r19,4(r8)
    4710:	d8c02015 	stw	r3,128(sp)
    4714:	d8801f15 	stw	r2,124(sp)
    4718:	a8bff60e 	bge	r21,r2,46f4 <___vfprintf_internal_r+0x12b8>
    471c:	b809883a 	mov	r4,r23
    4720:	b00b883a 	mov	r5,r22
    4724:	d9801e04 	addi	r6,sp,120
    4728:	0009e140 	call	9e14 <__sprint_r>
    472c:	103c381e 	bne	r2,zero,3810 <___vfprintf_internal_r+0x3d4>
    4730:	d8c02017 	ldw	r3,128(sp)
    4734:	d8801f17 	ldw	r2,124(sp)
    4738:	da000404 	addi	r8,sp,16
    473c:	003fee06 	br	46f8 <___vfprintf_internal_r+0x12bc>
    4740:	b809883a 	mov	r4,r23
    4744:	b00b883a 	mov	r5,r22
    4748:	d9801e04 	addi	r6,sp,120
    474c:	0009e140 	call	9e14 <__sprint_r>
    4750:	103c2f1e 	bne	r2,zero,3810 <___vfprintf_internal_r+0x3d4>
    4754:	d8c02017 	ldw	r3,128(sp)
    4758:	d8802787 	ldb	r2,158(sp)
    475c:	da000404 	addi	r8,sp,16
    4760:	003cd206 	br	3aac <___vfprintf_internal_r+0x670>
    4764:	00800084 	movi	r2,2
    4768:	9546b03a 	or	r3,r18,r21
    476c:	003d9f06 	br	3dec <___vfprintf_internal_r+0x9b0>
    4770:	d8803317 	ldw	r2,204(sp)
    4774:	14ffffc4 	addi	r19,r2,-1
    4778:	04ff600e 	bge	zero,r19,44fc <___vfprintf_internal_r+0x10c0>
    477c:	05400404 	movi	r21,16
    4780:	acc07e0e 	bge	r21,r19,497c <___vfprintf_internal_r+0x1540>
    4784:	014000b4 	movhi	r5,2
    4788:	296b0184 	addi	r5,r5,-21498
    478c:	d9402c15 	stw	r5,176(sp)
    4790:	01c001c4 	movi	r7,7
    4794:	00000306 	br	47a4 <___vfprintf_internal_r+0x1368>
    4798:	8c400204 	addi	r17,r17,8
    479c:	9cfffc04 	addi	r19,r19,-16
    47a0:	acc0790e 	bge	r21,r19,4988 <___vfprintf_internal_r+0x154c>
    47a4:	18c00404 	addi	r3,r3,16
    47a8:	84000044 	addi	r16,r16,1
    47ac:	8d000015 	stw	r20,0(r17)
    47b0:	8d400115 	stw	r21,4(r17)
    47b4:	d8c02015 	stw	r3,128(sp)
    47b8:	dc001f15 	stw	r16,124(sp)
    47bc:	3c3ff60e 	bge	r7,r16,4798 <___vfprintf_internal_r+0x135c>
    47c0:	b809883a 	mov	r4,r23
    47c4:	b00b883a 	mov	r5,r22
    47c8:	d9801e04 	addi	r6,sp,120
    47cc:	d9c03d15 	stw	r7,244(sp)
    47d0:	0009e140 	call	9e14 <__sprint_r>
    47d4:	d9c03d17 	ldw	r7,244(sp)
    47d8:	103c0d1e 	bne	r2,zero,3810 <___vfprintf_internal_r+0x3d4>
    47dc:	d8c02017 	ldw	r3,128(sp)
    47e0:	dc001f17 	ldw	r16,124(sp)
    47e4:	dc400404 	addi	r17,sp,16
    47e8:	003fec06 	br	479c <___vfprintf_internal_r+0x1360>
    47ec:	10803fcc 	andi	r2,r2,255
    47f0:	1080201c 	xori	r2,r2,128
    47f4:	10bfe004 	addi	r2,r2,-128
    47f8:	01000c04 	movi	r4,48
    47fc:	1101d726 	beq	r2,r4,4f5c <___vfprintf_internal_r+0x1b20>
    4800:	d9403117 	ldw	r5,196(sp)
    4804:	d8802817 	ldw	r2,160(sp)
    4808:	193fffc5 	stb	r4,-1(r3)
    480c:	297fffc4 	addi	r5,r5,-1
    4810:	d9403115 	stw	r5,196(sp)
    4814:	1163c83a 	sub	r17,r2,r5
    4818:	003c6006 	br	399c <___vfprintf_internal_r+0x560>
    481c:	b809883a 	mov	r4,r23
    4820:	b00b883a 	mov	r5,r22
    4824:	d9801e04 	addi	r6,sp,120
    4828:	0009e140 	call	9e14 <__sprint_r>
    482c:	103bf81e 	bne	r2,zero,3810 <___vfprintf_internal_r+0x3d4>
    4830:	d8c02017 	ldw	r3,128(sp)
    4834:	da000404 	addi	r8,sp,16
    4838:	d9403117 	ldw	r5,196(sp)
    483c:	d9003417 	ldw	r4,208(sp)
    4840:	d8802617 	ldw	r2,152(sp)
    4844:	2923883a 	add	r17,r5,r4
    4848:	d9403317 	ldw	r5,204(sp)
    484c:	11400216 	blt	r2,r5,4858 <___vfprintf_internal_r+0x141c>
    4850:	e100004c 	andi	r4,fp,1
    4854:	20000d26 	beq	r4,zero,488c <___vfprintf_internal_r+0x1450>
    4858:	d9003817 	ldw	r4,224(sp)
    485c:	d9403517 	ldw	r5,212(sp)
    4860:	1907883a 	add	r3,r3,r4
    4864:	d9001f17 	ldw	r4,124(sp)
    4868:	41400015 	stw	r5,0(r8)
    486c:	d9403817 	ldw	r5,224(sp)
    4870:	21000044 	addi	r4,r4,1
    4874:	d8c02015 	stw	r3,128(sp)
    4878:	41400115 	stw	r5,4(r8)
    487c:	d9001f15 	stw	r4,124(sp)
    4880:	014001c4 	movi	r5,7
    4884:	2901fd16 	blt	r5,r4,507c <___vfprintf_internal_r+0x1c40>
    4888:	42000204 	addi	r8,r8,8
    488c:	d9003317 	ldw	r4,204(sp)
    4890:	2085c83a 	sub	r2,r4,r2
    4894:	8449c83a 	sub	r4,r16,r17
    4898:	1021883a 	mov	r16,r2
    489c:	2080010e 	bge	r4,r2,48a4 <___vfprintf_internal_r+0x1468>
    48a0:	2021883a 	mov	r16,r4
    48a4:	04000a0e 	bge	zero,r16,48d0 <___vfprintf_internal_r+0x1494>
    48a8:	d9001f17 	ldw	r4,124(sp)
    48ac:	1c07883a 	add	r3,r3,r16
    48b0:	44400015 	stw	r17,0(r8)
    48b4:	21000044 	addi	r4,r4,1
    48b8:	44000115 	stw	r16,4(r8)
    48bc:	d8c02015 	stw	r3,128(sp)
    48c0:	d9001f15 	stw	r4,124(sp)
    48c4:	014001c4 	movi	r5,7
    48c8:	29021816 	blt	r5,r4,512c <___vfprintf_internal_r+0x1cf0>
    48cc:	42000204 	addi	r8,r8,8
    48d0:	80021016 	blt	r16,zero,5114 <___vfprintf_internal_r+0x1cd8>
    48d4:	1421c83a 	sub	r16,r2,r16
    48d8:	043cc80e 	bge	zero,r16,3bfc <___vfprintf_internal_r+0x7c0>
    48dc:	04400404 	movi	r17,16
    48e0:	d8801f17 	ldw	r2,124(sp)
    48e4:	8c3f110e 	bge	r17,r16,452c <___vfprintf_internal_r+0x10f0>
    48e8:	014000b4 	movhi	r5,2
    48ec:	296b0184 	addi	r5,r5,-21498
    48f0:	d9402c15 	stw	r5,176(sp)
    48f4:	04c001c4 	movi	r19,7
    48f8:	00000306 	br	4908 <___vfprintf_internal_r+0x14cc>
    48fc:	42000204 	addi	r8,r8,8
    4900:	843ffc04 	addi	r16,r16,-16
    4904:	8c3f0c0e 	bge	r17,r16,4538 <___vfprintf_internal_r+0x10fc>
    4908:	18c00404 	addi	r3,r3,16
    490c:	10800044 	addi	r2,r2,1
    4910:	45000015 	stw	r20,0(r8)
    4914:	44400115 	stw	r17,4(r8)
    4918:	d8c02015 	stw	r3,128(sp)
    491c:	d8801f15 	stw	r2,124(sp)
    4920:	98bff60e 	bge	r19,r2,48fc <___vfprintf_internal_r+0x14c0>
    4924:	b809883a 	mov	r4,r23
    4928:	b00b883a 	mov	r5,r22
    492c:	d9801e04 	addi	r6,sp,120
    4930:	0009e140 	call	9e14 <__sprint_r>
    4934:	103bb61e 	bne	r2,zero,3810 <___vfprintf_internal_r+0x3d4>
    4938:	d8c02017 	ldw	r3,128(sp)
    493c:	d8801f17 	ldw	r2,124(sp)
    4940:	da000404 	addi	r8,sp,16
    4944:	003fee06 	br	4900 <___vfprintf_internal_r+0x14c4>
    4948:	e088703a 	and	r4,fp,r2
    494c:	203ec01e 	bne	r4,zero,4450 <___vfprintf_internal_r+0x1014>
    4950:	dc001f17 	ldw	r16,124(sp)
    4954:	d9003117 	ldw	r4,196(sp)
    4958:	40800115 	stw	r2,4(r8)
    495c:	84000044 	addi	r16,r16,1
    4960:	41000015 	stw	r4,0(r8)
    4964:	d8c02015 	stw	r3,128(sp)
    4968:	dc001f15 	stw	r16,124(sp)
    496c:	008001c4 	movi	r2,7
    4970:	14000e16 	blt	r2,r16,49ac <___vfprintf_internal_r+0x1570>
    4974:	44400204 	addi	r17,r8,8
    4978:	003ee006 	br	44fc <___vfprintf_internal_r+0x10c0>
    497c:	010000b4 	movhi	r4,2
    4980:	212b0184 	addi	r4,r4,-21498
    4984:	d9002c15 	stw	r4,176(sp)
    4988:	d8802c17 	ldw	r2,176(sp)
    498c:	1cc7883a 	add	r3,r3,r19
    4990:	84000044 	addi	r16,r16,1
    4994:	88800015 	stw	r2,0(r17)
    4998:	8cc00115 	stw	r19,4(r17)
    499c:	d8c02015 	stw	r3,128(sp)
    49a0:	dc001f15 	stw	r16,124(sp)
    49a4:	008001c4 	movi	r2,7
    49a8:	143ed30e 	bge	r2,r16,44f8 <___vfprintf_internal_r+0x10bc>
    49ac:	b809883a 	mov	r4,r23
    49b0:	b00b883a 	mov	r5,r22
    49b4:	d9801e04 	addi	r6,sp,120
    49b8:	0009e140 	call	9e14 <__sprint_r>
    49bc:	103b941e 	bne	r2,zero,3810 <___vfprintf_internal_r+0x3d4>
    49c0:	d8c02017 	ldw	r3,128(sp)
    49c4:	dc001f17 	ldw	r16,124(sp)
    49c8:	dc400404 	addi	r17,sp,16
    49cc:	003ecb06 	br	44fc <___vfprintf_internal_r+0x10c0>
    49d0:	b809883a 	mov	r4,r23
    49d4:	b00b883a 	mov	r5,r22
    49d8:	d9801e04 	addi	r6,sp,120
    49dc:	0009e140 	call	9e14 <__sprint_r>
    49e0:	103b8b1e 	bne	r2,zero,3810 <___vfprintf_internal_r+0x3d4>
    49e4:	d8c02017 	ldw	r3,128(sp)
    49e8:	dc001f17 	ldw	r16,124(sp)
    49ec:	da000404 	addi	r8,sp,16
    49f0:	003ea206 	br	447c <___vfprintf_internal_r+0x1040>
    49f4:	b809883a 	mov	r4,r23
    49f8:	b00b883a 	mov	r5,r22
    49fc:	d9801e04 	addi	r6,sp,120
    4a00:	0009e140 	call	9e14 <__sprint_r>
    4a04:	103b821e 	bne	r2,zero,3810 <___vfprintf_internal_r+0x3d4>
    4a08:	d8c02017 	ldw	r3,128(sp)
    4a0c:	dc001f17 	ldw	r16,124(sp)
    4a10:	dc400404 	addi	r17,sp,16
    4a14:	003ea406 	br	44a8 <___vfprintf_internal_r+0x106c>
    4a18:	b809883a 	mov	r4,r23
    4a1c:	b00b883a 	mov	r5,r22
    4a20:	d9801e04 	addi	r6,sp,120
    4a24:	0009e140 	call	9e14 <__sprint_r>
    4a28:	103b791e 	bne	r2,zero,3810 <___vfprintf_internal_r+0x3d4>
    4a2c:	d8c02017 	ldw	r3,128(sp)
    4a30:	da000404 	addi	r8,sp,16
    4a34:	003c3b06 	br	3b24 <___vfprintf_internal_r+0x6e8>
    4a38:	04a5c83a 	sub	r18,zero,r18
    4a3c:	9004c03a 	cmpne	r2,r18,zero
    4a40:	056bc83a 	sub	r21,zero,r21
    4a44:	a8abc83a 	sub	r21,r21,r2
    4a48:	04c00b44 	movi	r19,45
    4a4c:	dcc02785 	stb	r19,158(sp)
    4a50:	da403215 	stw	r9,200(sp)
    4a54:	00800044 	movi	r2,1
    4a58:	9546b03a 	or	r3,r18,r21
    4a5c:	003bb506 	br	3934 <___vfprintf_internal_r+0x4f8>
    4a60:	da003f15 	stw	r8,252(sp)
    4a64:	da403e15 	stw	r9,248(sp)
    4a68:	00099d80 	call	99d8 <__fpclassifyd>
    4a6c:	da003f17 	ldw	r8,252(sp)
    4a70:	da403e17 	ldw	r9,248(sp)
    4a74:	1000e526 	beq	r2,zero,4e0c <___vfprintf_internal_r+0x19d0>
    4a78:	04fff7c4 	movi	r19,-33
    4a7c:	00bfffc4 	movi	r2,-1
    4a80:	84e6703a 	and	r19,r16,r19
    4a84:	48822526 	beq	r9,r2,531c <___vfprintf_internal_r+0x1ee0>
    4a88:	008011c4 	movi	r2,71
    4a8c:	98821626 	beq	r19,r2,52e8 <___vfprintf_internal_r+0x1eac>
    4a90:	d9003917 	ldw	r4,228(sp)
    4a94:	e0c04014 	ori	r3,fp,256
    4a98:	d8c02d15 	stw	r3,180(sp)
    4a9c:	20022116 	blt	r4,zero,5324 <___vfprintf_internal_r+0x1ee8>
    4aa0:	dc403917 	ldw	r17,228(sp)
    4aa4:	d8002b05 	stb	zero,172(sp)
    4aa8:	00801984 	movi	r2,102
    4aac:	80814d26 	beq	r16,r2,4fe4 <___vfprintf_internal_r+0x1ba8>
    4ab0:	00801184 	movi	r2,70
    4ab4:	80814b26 	beq	r16,r2,4fe4 <___vfprintf_internal_r+0x1ba8>
    4ab8:	00801144 	movi	r2,69
    4abc:	98822626 	beq	r19,r2,5358 <___vfprintf_internal_r+0x1f1c>
    4ac0:	482b883a 	mov	r21,r9
    4ac4:	d8802604 	addi	r2,sp,152
    4ac8:	d8800115 	stw	r2,4(sp)
    4acc:	d9403717 	ldw	r5,220(sp)
    4ad0:	d8802504 	addi	r2,sp,148
    4ad4:	d8800215 	stw	r2,8(sp)
    4ad8:	d8802104 	addi	r2,sp,132
    4adc:	dd400015 	stw	r21,0(sp)
    4ae0:	d8800315 	stw	r2,12(sp)
    4ae4:	b809883a 	mov	r4,r23
    4ae8:	880d883a 	mov	r6,r17
    4aec:	01c00084 	movi	r7,2
    4af0:	da003f15 	stw	r8,252(sp)
    4af4:	da403e15 	stw	r9,248(sp)
    4af8:	00058f00 	call	58f0 <_dtoa_r>
    4afc:	d8803115 	stw	r2,196(sp)
    4b00:	008019c4 	movi	r2,103
    4b04:	da003f17 	ldw	r8,252(sp)
    4b08:	da403e17 	ldw	r9,248(sp)
    4b0c:	80800226 	beq	r16,r2,4b18 <___vfprintf_internal_r+0x16dc>
    4b10:	008011c4 	movi	r2,71
    4b14:	8081451e 	bne	r16,r2,502c <___vfprintf_internal_r+0x1bf0>
    4b18:	e080004c 	andi	r2,fp,1
    4b1c:	10021e26 	beq	r2,zero,5398 <___vfprintf_internal_r+0x1f5c>
    4b20:	d8c03117 	ldw	r3,196(sp)
    4b24:	1d55883a 	add	r10,r3,r21
    4b28:	d9003717 	ldw	r4,220(sp)
    4b2c:	880b883a 	mov	r5,r17
    4b30:	000d883a 	mov	r6,zero
    4b34:	000f883a 	mov	r7,zero
    4b38:	da003f15 	stw	r8,252(sp)
    4b3c:	da403e15 	stw	r9,248(sp)
    4b40:	da803d15 	stw	r10,244(sp)
    4b44:	000db900 	call	db90 <__eqdf2>
    4b48:	da003f17 	ldw	r8,252(sp)
    4b4c:	da403e17 	ldw	r9,248(sp)
    4b50:	da803d17 	ldw	r10,244(sp)
    4b54:	1001a126 	beq	r2,zero,51dc <___vfprintf_internal_r+0x1da0>
    4b58:	d8802117 	ldw	r2,132(sp)
    4b5c:	1280062e 	bgeu	r2,r10,4b78 <___vfprintf_internal_r+0x173c>
    4b60:	01000c04 	movi	r4,48
    4b64:	10c00044 	addi	r3,r2,1
    4b68:	d8c02115 	stw	r3,132(sp)
    4b6c:	11000005 	stb	r4,0(r2)
    4b70:	d8802117 	ldw	r2,132(sp)
    4b74:	12bffb36 	bltu	r2,r10,4b64 <___vfprintf_internal_r+0x1728>
    4b78:	d8c03117 	ldw	r3,196(sp)
    4b7c:	10c5c83a 	sub	r2,r2,r3
    4b80:	d8803315 	stw	r2,204(sp)
    4b84:	008011c4 	movi	r2,71
    4b88:	98817f26 	beq	r19,r2,5188 <___vfprintf_internal_r+0x1d4c>
    4b8c:	00801944 	movi	r2,101
    4b90:	14023e0e 	bge	r2,r16,548c <___vfprintf_internal_r+0x2050>
    4b94:	d8c02617 	ldw	r3,152(sp)
    4b98:	00801984 	movi	r2,102
    4b9c:	d8c03415 	stw	r3,208(sp)
    4ba0:	8081f326 	beq	r16,r2,5370 <___vfprintf_internal_r+0x1f34>
    4ba4:	d8c03417 	ldw	r3,208(sp)
    4ba8:	d9003317 	ldw	r4,204(sp)
    4bac:	1901e116 	blt	r3,r4,5334 <___vfprintf_internal_r+0x1ef8>
    4bb0:	e080004c 	andi	r2,fp,1
    4bb4:	1001ea26 	beq	r2,zero,5360 <___vfprintf_internal_r+0x1f24>
    4bb8:	d8c03417 	ldw	r3,208(sp)
    4bbc:	1c400044 	addi	r17,r3,1
    4bc0:	8839883a 	mov	fp,r17
    4bc4:	8801e216 	blt	r17,zero,5350 <___vfprintf_internal_r+0x1f14>
    4bc8:	dd402b07 	ldb	r21,172(sp)
    4bcc:	a801661e 	bne	r21,zero,5168 <___vfprintf_internal_r+0x1d2c>
    4bd0:	df002b15 	stw	fp,172(sp)
    4bd4:	dcc02783 	ldbu	r19,158(sp)
    4bd8:	df002d17 	ldw	fp,180(sp)
    4bdc:	d8003215 	stw	zero,200(sp)
    4be0:	dc802d15 	stw	r18,180(sp)
    4be4:	003b7206 	br	39b0 <___vfprintf_internal_r+0x574>
    4be8:	e4000007 	ldb	r16,0(fp)
    4bec:	e005883a 	mov	r2,fp
    4bf0:	003a7806 	br	35d4 <___vfprintf_internal_r+0x198>
    4bf4:	e0c0100c 	andi	r3,fp,64
    4bf8:	1800b326 	beq	r3,zero,4ec8 <___vfprintf_internal_r+0x1a8c>
    4bfc:	d9002d17 	ldw	r4,180(sp)
    4c00:	1480000b 	ldhu	r18,0(r2)
    4c04:	002b883a 	mov	r21,zero
    4c08:	21000104 	addi	r4,r4,4
    4c0c:	d9002d15 	stw	r4,180(sp)
    4c10:	003cd506 	br	3f68 <___vfprintf_internal_r+0xb2c>
    4c14:	e080100c 	andi	r2,fp,64
    4c18:	1000a326 	beq	r2,zero,4ea8 <___vfprintf_internal_r+0x1a6c>
    4c1c:	d8802d17 	ldw	r2,180(sp)
    4c20:	002b883a 	mov	r21,zero
    4c24:	1480000b 	ldhu	r18,0(r2)
    4c28:	10800104 	addi	r2,r2,4
    4c2c:	d8802d15 	stw	r2,180(sp)
    4c30:	9007883a 	mov	r3,r18
    4c34:	00800044 	movi	r2,1
    4c38:	003c6c06 	br	3dec <___vfprintf_internal_r+0x9b0>
    4c3c:	e080100c 	andi	r2,fp,64
    4c40:	10009226 	beq	r2,zero,4e8c <___vfprintf_internal_r+0x1a50>
    4c44:	1c80000f 	ldh	r18,0(r3)
    4c48:	d8802d17 	ldw	r2,180(sp)
    4c4c:	902bd7fa 	srai	r21,r18,31
    4c50:	10800104 	addi	r2,r2,4
    4c54:	d8802d15 	stw	r2,180(sp)
    4c58:	a805883a 	mov	r2,r21
    4c5c:	003b3006 	br	3920 <___vfprintf_internal_r+0x4e4>
    4c60:	e080100c 	andi	r2,fp,64
    4c64:	10008126 	beq	r2,zero,4e6c <___vfprintf_internal_r+0x1a30>
    4c68:	d8c02d17 	ldw	r3,180(sp)
    4c6c:	002b883a 	mov	r21,zero
    4c70:	0005883a 	mov	r2,zero
    4c74:	1c80000b 	ldhu	r18,0(r3)
    4c78:	18c00104 	addi	r3,r3,4
    4c7c:	d8c02d15 	stw	r3,180(sp)
    4c80:	9007883a 	mov	r3,r18
    4c84:	003c5906 	br	3dec <___vfprintf_internal_r+0x9b0>
    4c88:	e080040c 	andi	r2,fp,16
    4c8c:	1000701e 	bne	r2,zero,4e50 <___vfprintf_internal_r+0x1a14>
    4c90:	e080100c 	andi	r2,fp,64
    4c94:	10014626 	beq	r2,zero,51b0 <___vfprintf_internal_r+0x1d74>
    4c98:	d9002d17 	ldw	r4,180(sp)
    4c9c:	d9402f17 	ldw	r5,188(sp)
    4ca0:	20800017 	ldw	r2,0(r4)
    4ca4:	21000104 	addi	r4,r4,4
    4ca8:	d9002d15 	stw	r4,180(sp)
    4cac:	1140000d 	sth	r5,0(r2)
    4cb0:	003a1d06 	br	3528 <___vfprintf_internal_r+0xec>
    4cb4:	00800084 	movi	r2,2
    4cb8:	003c4c06 	br	3dec <___vfprintf_internal_r+0x9b0>
    4cbc:	010000b4 	movhi	r4,2
    4cc0:	212b0184 	addi	r4,r4,-21498
    4cc4:	d9002c15 	stw	r4,176(sp)
    4cc8:	d9002c17 	ldw	r4,176(sp)
    4ccc:	1c47883a 	add	r3,r3,r17
    4cd0:	10800044 	addi	r2,r2,1
    4cd4:	41000015 	stw	r4,0(r8)
    4cd8:	44400115 	stw	r17,4(r8)
    4cdc:	d8c02015 	stw	r3,128(sp)
    4ce0:	d8801f15 	stw	r2,124(sp)
    4ce4:	010001c4 	movi	r4,7
    4ce8:	20becc16 	blt	r4,r2,481c <___vfprintf_internal_r+0x13e0>
    4cec:	42000204 	addi	r8,r8,8
    4cf0:	003ed106 	br	4838 <___vfprintf_internal_r+0x13fc>
    4cf4:	010000b4 	movhi	r4,2
    4cf8:	212b0184 	addi	r4,r4,-21498
    4cfc:	d9002c15 	stw	r4,176(sp)
    4d00:	003ba706 	br	3ba0 <___vfprintf_internal_r+0x764>
    4d04:	b809883a 	mov	r4,r23
    4d08:	b00b883a 	mov	r5,r22
    4d0c:	d9801e04 	addi	r6,sp,120
    4d10:	0009e140 	call	9e14 <__sprint_r>
    4d14:	103abe1e 	bne	r2,zero,3810 <___vfprintf_internal_r+0x3d4>
    4d18:	d8c02017 	ldw	r3,128(sp)
    4d1c:	da000404 	addi	r8,sp,16
    4d20:	003d6c06 	br	42d4 <___vfprintf_internal_r+0xe98>
    4d24:	d8801f17 	ldw	r2,124(sp)
    4d28:	014000b4 	movhi	r5,2
    4d2c:	01000044 	movi	r4,1
    4d30:	18c00044 	addi	r3,r3,1
    4d34:	10800044 	addi	r2,r2,1
    4d38:	296b0104 	addi	r5,r5,-21500
    4d3c:	41000115 	stw	r4,4(r8)
    4d40:	41400015 	stw	r5,0(r8)
    4d44:	d8c02015 	stw	r3,128(sp)
    4d48:	d8801f15 	stw	r2,124(sp)
    4d4c:	010001c4 	movi	r4,7
    4d50:	20806716 	blt	r4,r2,4ef0 <___vfprintf_internal_r+0x1ab4>
    4d54:	42000204 	addi	r8,r8,8
    4d58:	8000041e 	bne	r16,zero,4d6c <___vfprintf_internal_r+0x1930>
    4d5c:	d8803317 	ldw	r2,204(sp)
    4d60:	1000021e 	bne	r2,zero,4d6c <___vfprintf_internal_r+0x1930>
    4d64:	e080004c 	andi	r2,fp,1
    4d68:	103ba426 	beq	r2,zero,3bfc <___vfprintf_internal_r+0x7c0>
    4d6c:	d9003817 	ldw	r4,224(sp)
    4d70:	d8801f17 	ldw	r2,124(sp)
    4d74:	d9403517 	ldw	r5,212(sp)
    4d78:	1907883a 	add	r3,r3,r4
    4d7c:	10800044 	addi	r2,r2,1
    4d80:	41000115 	stw	r4,4(r8)
    4d84:	41400015 	stw	r5,0(r8)
    4d88:	d8c02015 	stw	r3,128(sp)
    4d8c:	d8801f15 	stw	r2,124(sp)
    4d90:	010001c4 	movi	r4,7
    4d94:	20815716 	blt	r4,r2,52f4 <___vfprintf_internal_r+0x1eb8>
    4d98:	42000204 	addi	r8,r8,8
    4d9c:	0421c83a 	sub	r16,zero,r16
    4da0:	0400810e 	bge	zero,r16,4fa8 <___vfprintf_internal_r+0x1b6c>
    4da4:	04400404 	movi	r17,16
    4da8:	8c00bd0e 	bge	r17,r16,50a0 <___vfprintf_internal_r+0x1c64>
    4dac:	014000b4 	movhi	r5,2
    4db0:	296b0184 	addi	r5,r5,-21498
    4db4:	d9402c15 	stw	r5,176(sp)
    4db8:	04c001c4 	movi	r19,7
    4dbc:	00000306 	br	4dcc <___vfprintf_internal_r+0x1990>
    4dc0:	42000204 	addi	r8,r8,8
    4dc4:	843ffc04 	addi	r16,r16,-16
    4dc8:	8c00b80e 	bge	r17,r16,50ac <___vfprintf_internal_r+0x1c70>
    4dcc:	18c00404 	addi	r3,r3,16
    4dd0:	10800044 	addi	r2,r2,1
    4dd4:	45000015 	stw	r20,0(r8)
    4dd8:	44400115 	stw	r17,4(r8)
    4ddc:	d8c02015 	stw	r3,128(sp)
    4de0:	d8801f15 	stw	r2,124(sp)
    4de4:	98bff60e 	bge	r19,r2,4dc0 <___vfprintf_internal_r+0x1984>
    4de8:	b809883a 	mov	r4,r23
    4dec:	b00b883a 	mov	r5,r22
    4df0:	d9801e04 	addi	r6,sp,120
    4df4:	0009e140 	call	9e14 <__sprint_r>
    4df8:	103a851e 	bne	r2,zero,3810 <___vfprintf_internal_r+0x3d4>
    4dfc:	d8c02017 	ldw	r3,128(sp)
    4e00:	d8801f17 	ldw	r2,124(sp)
    4e04:	da000404 	addi	r8,sp,16
    4e08:	003fee06 	br	4dc4 <___vfprintf_internal_r+0x1988>
    4e0c:	008011c4 	movi	r2,71
    4e10:	1400d116 	blt	r2,r16,5158 <___vfprintf_internal_r+0x1d1c>
    4e14:	010000b4 	movhi	r4,2
    4e18:	212af304 	addi	r4,r4,-21556
    4e1c:	d9003115 	stw	r4,196(sp)
    4e20:	00c000c4 	movi	r3,3
    4e24:	00bfdfc4 	movi	r2,-129
    4e28:	d8c02b15 	stw	r3,172(sp)
    4e2c:	e0b8703a 	and	fp,fp,r2
    4e30:	dcc02783 	ldbu	r19,158(sp)
    4e34:	dc802d15 	stw	r18,180(sp)
    4e38:	1823883a 	mov	r17,r3
    4e3c:	d8003215 	stw	zero,200(sp)
    4e40:	d8003415 	stw	zero,208(sp)
    4e44:	003ada06 	br	39b0 <___vfprintf_internal_r+0x574>
    4e48:	4823883a 	mov	r17,r9
    4e4c:	003c9406 	br	40a0 <___vfprintf_internal_r+0xc64>
    4e50:	d9402d17 	ldw	r5,180(sp)
    4e54:	d8c02f17 	ldw	r3,188(sp)
    4e58:	28800017 	ldw	r2,0(r5)
    4e5c:	29400104 	addi	r5,r5,4
    4e60:	d9402d15 	stw	r5,180(sp)
    4e64:	10c00015 	stw	r3,0(r2)
    4e68:	0039af06 	br	3528 <___vfprintf_internal_r+0xec>
    4e6c:	d9002d17 	ldw	r4,180(sp)
    4e70:	002b883a 	mov	r21,zero
    4e74:	0005883a 	mov	r2,zero
    4e78:	24800017 	ldw	r18,0(r4)
    4e7c:	21000104 	addi	r4,r4,4
    4e80:	d9002d15 	stw	r4,180(sp)
    4e84:	9007883a 	mov	r3,r18
    4e88:	003bd806 	br	3dec <___vfprintf_internal_r+0x9b0>
    4e8c:	1c800017 	ldw	r18,0(r3)
    4e90:	d8c02d17 	ldw	r3,180(sp)
    4e94:	902bd7fa 	srai	r21,r18,31
    4e98:	18c00104 	addi	r3,r3,4
    4e9c:	d8c02d15 	stw	r3,180(sp)
    4ea0:	a805883a 	mov	r2,r21
    4ea4:	003a9e06 	br	3920 <___vfprintf_internal_r+0x4e4>
    4ea8:	d8c02d17 	ldw	r3,180(sp)
    4eac:	002b883a 	mov	r21,zero
    4eb0:	00800044 	movi	r2,1
    4eb4:	1c800017 	ldw	r18,0(r3)
    4eb8:	18c00104 	addi	r3,r3,4
    4ebc:	d8c02d15 	stw	r3,180(sp)
    4ec0:	9007883a 	mov	r3,r18
    4ec4:	003bc906 	br	3dec <___vfprintf_internal_r+0x9b0>
    4ec8:	d9402d17 	ldw	r5,180(sp)
    4ecc:	14800017 	ldw	r18,0(r2)
    4ed0:	002b883a 	mov	r21,zero
    4ed4:	29400104 	addi	r5,r5,4
    4ed8:	d9402d15 	stw	r5,180(sp)
    4edc:	003c2206 	br	3f68 <___vfprintf_internal_r+0xb2c>
    4ee0:	010000b4 	movhi	r4,2
    4ee4:	212af104 	addi	r4,r4,-21564
    4ee8:	d9003115 	stw	r4,196(sp)
    4eec:	003ba606 	br	3d88 <___vfprintf_internal_r+0x94c>
    4ef0:	b809883a 	mov	r4,r23
    4ef4:	b00b883a 	mov	r5,r22
    4ef8:	d9801e04 	addi	r6,sp,120
    4efc:	0009e140 	call	9e14 <__sprint_r>
    4f00:	103a431e 	bne	r2,zero,3810 <___vfprintf_internal_r+0x3d4>
    4f04:	dc002617 	ldw	r16,152(sp)
    4f08:	d8c02017 	ldw	r3,128(sp)
    4f0c:	da000404 	addi	r8,sp,16
    4f10:	003f9106 	br	4d58 <___vfprintf_internal_r+0x191c>
    4f14:	d8802e17 	ldw	r2,184(sp)
    4f18:	d8c02d15 	stw	r3,180(sp)
    4f1c:	0085c83a 	sub	r2,zero,r2
    4f20:	d8802e15 	stw	r2,184(sp)
    4f24:	e005883a 	mov	r2,fp
    4f28:	003a4206 	br	3834 <___vfprintf_internal_r+0x3f8>
    4f2c:	e0800044 	addi	r2,fp,1
    4f30:	9cc00814 	ori	r19,r19,32
    4f34:	e4000047 	ldb	r16,1(fp)
    4f38:	0039a606 	br	35d4 <___vfprintf_internal_r+0x198>
    4f3c:	b809883a 	mov	r4,r23
    4f40:	b00b883a 	mov	r5,r22
    4f44:	d9801e04 	addi	r6,sp,120
    4f48:	0009e140 	call	9e14 <__sprint_r>
    4f4c:	103a301e 	bne	r2,zero,3810 <___vfprintf_internal_r+0x3d4>
    4f50:	d8c02017 	ldw	r3,128(sp)
    4f54:	da000404 	addi	r8,sp,16
    4f58:	003cf006 	br	431c <___vfprintf_internal_r+0xee0>
    4f5c:	d8c02817 	ldw	r3,160(sp)
    4f60:	d9003117 	ldw	r4,196(sp)
    4f64:	1923c83a 	sub	r17,r3,r4
    4f68:	003a8c06 	br	399c <___vfprintf_internal_r+0x560>
    4f6c:	da003f15 	stw	r8,252(sp)
    4f70:	0009c800 	call	9c80 <strlen>
    4f74:	1023883a 	mov	r17,r2
    4f78:	da003f17 	ldw	r8,252(sp)
    4f7c:	883c4a0e 	bge	r17,zero,40a8 <___vfprintf_internal_r+0xc6c>
    4f80:	0005883a 	mov	r2,zero
    4f84:	003c4806 	br	40a8 <___vfprintf_internal_r+0xc6c>
    4f88:	b809883a 	mov	r4,r23
    4f8c:	b00b883a 	mov	r5,r22
    4f90:	d9801e04 	addi	r6,sp,120
    4f94:	0009e140 	call	9e14 <__sprint_r>
    4f98:	103a1d1e 	bne	r2,zero,3810 <___vfprintf_internal_r+0x3d4>
    4f9c:	d8c02017 	ldw	r3,128(sp)
    4fa0:	d8801f17 	ldw	r2,124(sp)
    4fa4:	da000404 	addi	r8,sp,16
    4fa8:	d9403317 	ldw	r5,204(sp)
    4fac:	d9003117 	ldw	r4,196(sp)
    4fb0:	10800044 	addi	r2,r2,1
    4fb4:	1947883a 	add	r3,r3,r5
    4fb8:	41000015 	stw	r4,0(r8)
    4fbc:	41400115 	stw	r5,4(r8)
    4fc0:	d8c02015 	stw	r3,128(sp)
    4fc4:	d8801f15 	stw	r2,124(sp)
    4fc8:	010001c4 	movi	r4,7
    4fcc:	20bb0a0e 	bge	r4,r2,3bf8 <___vfprintf_internal_r+0x7bc>
    4fd0:	003d6206 	br	455c <___vfprintf_internal_r+0x1120>
    4fd4:	010000b4 	movhi	r4,2
    4fd8:	212b0584 	addi	r4,r4,-21482
    4fdc:	d9003615 	stw	r4,216(sp)
    4fe0:	003aa706 	br	3a80 <___vfprintf_internal_r+0x644>
    4fe4:	d8802604 	addi	r2,sp,152
    4fe8:	d8800115 	stw	r2,4(sp)
    4fec:	d9403717 	ldw	r5,220(sp)
    4ff0:	d8802504 	addi	r2,sp,148
    4ff4:	d8800215 	stw	r2,8(sp)
    4ff8:	d8802104 	addi	r2,sp,132
    4ffc:	da400015 	stw	r9,0(sp)
    5000:	d8800315 	stw	r2,12(sp)
    5004:	b809883a 	mov	r4,r23
    5008:	880d883a 	mov	r6,r17
    500c:	01c000c4 	movi	r7,3
    5010:	da003f15 	stw	r8,252(sp)
    5014:	da403e15 	stw	r9,248(sp)
    5018:	00058f00 	call	58f0 <_dtoa_r>
    501c:	da403e17 	ldw	r9,248(sp)
    5020:	da003f17 	ldw	r8,252(sp)
    5024:	d8803115 	stw	r2,196(sp)
    5028:	482b883a 	mov	r21,r9
    502c:	d8c03117 	ldw	r3,196(sp)
    5030:	00801184 	movi	r2,70
    5034:	1d55883a 	add	r10,r3,r21
    5038:	98bebb1e 	bne	r19,r2,4b28 <___vfprintf_internal_r+0x16ec>
    503c:	19000007 	ldb	r4,0(r3)
    5040:	00800c04 	movi	r2,48
    5044:	2080df26 	beq	r4,r2,53c4 <___vfprintf_internal_r+0x1f88>
    5048:	d8c02617 	ldw	r3,152(sp)
    504c:	50d5883a 	add	r10,r10,r3
    5050:	003eb506 	br	4b28 <___vfprintf_internal_r+0x16ec>
    5054:	0023883a 	mov	r17,zero
    5058:	003d9b06 	br	46c8 <___vfprintf_internal_r+0x128c>
    505c:	b809883a 	mov	r4,r23
    5060:	b00b883a 	mov	r5,r22
    5064:	d9801e04 	addi	r6,sp,120
    5068:	0009e140 	call	9e14 <__sprint_r>
    506c:	1039e81e 	bne	r2,zero,3810 <___vfprintf_internal_r+0x3d4>
    5070:	d8c02017 	ldw	r3,128(sp)
    5074:	da000404 	addi	r8,sp,16
    5078:	003d9206 	br	46c4 <___vfprintf_internal_r+0x1288>
    507c:	b809883a 	mov	r4,r23
    5080:	b00b883a 	mov	r5,r22
    5084:	d9801e04 	addi	r6,sp,120
    5088:	0009e140 	call	9e14 <__sprint_r>
    508c:	1039e01e 	bne	r2,zero,3810 <___vfprintf_internal_r+0x3d4>
    5090:	d8802617 	ldw	r2,152(sp)
    5094:	d8c02017 	ldw	r3,128(sp)
    5098:	da000404 	addi	r8,sp,16
    509c:	003dfb06 	br	488c <___vfprintf_internal_r+0x1450>
    50a0:	010000b4 	movhi	r4,2
    50a4:	212b0184 	addi	r4,r4,-21498
    50a8:	d9002c15 	stw	r4,176(sp)
    50ac:	d9002c17 	ldw	r4,176(sp)
    50b0:	1c07883a 	add	r3,r3,r16
    50b4:	10800044 	addi	r2,r2,1
    50b8:	41000015 	stw	r4,0(r8)
    50bc:	44000115 	stw	r16,4(r8)
    50c0:	d8c02015 	stw	r3,128(sp)
    50c4:	d8801f15 	stw	r2,124(sp)
    50c8:	010001c4 	movi	r4,7
    50cc:	20bfae16 	blt	r4,r2,4f88 <___vfprintf_internal_r+0x1b4c>
    50d0:	42000204 	addi	r8,r8,8
    50d4:	003fb406 	br	4fa8 <___vfprintf_internal_r+0x1b6c>
    50d8:	00800184 	movi	r2,6
    50dc:	1240012e 	bgeu	r2,r9,50e4 <___vfprintf_internal_r+0x1ca8>
    50e0:	1013883a 	mov	r9,r2
    50e4:	4823883a 	mov	r17,r9
    50e8:	4805883a 	mov	r2,r9
    50ec:	4800ac16 	blt	r9,zero,53a0 <___vfprintf_internal_r+0x1f64>
    50f0:	014000b4 	movhi	r5,2
    50f4:	296aff04 	addi	r5,r5,-21508
    50f8:	d8802b15 	stw	r2,172(sp)
    50fc:	dc802d15 	stw	r18,180(sp)
    5100:	d8003215 	stw	zero,200(sp)
    5104:	d8003415 	stw	zero,208(sp)
    5108:	d9403115 	stw	r5,196(sp)
    510c:	0005883a 	mov	r2,zero
    5110:	003a2e06 	br	39cc <___vfprintf_internal_r+0x590>
    5114:	0021883a 	mov	r16,zero
    5118:	003dee06 	br	48d4 <___vfprintf_internal_r+0x1498>
    511c:	014000b4 	movhi	r5,2
    5120:	296b0584 	addi	r5,r5,-21482
    5124:	d9403615 	stw	r5,216(sp)
    5128:	003ad806 	br	3c8c <___vfprintf_internal_r+0x850>
    512c:	b809883a 	mov	r4,r23
    5130:	b00b883a 	mov	r5,r22
    5134:	d9801e04 	addi	r6,sp,120
    5138:	0009e140 	call	9e14 <__sprint_r>
    513c:	1039b41e 	bne	r2,zero,3810 <___vfprintf_internal_r+0x3d4>
    5140:	d8802617 	ldw	r2,152(sp)
    5144:	d9403317 	ldw	r5,204(sp)
    5148:	d8c02017 	ldw	r3,128(sp)
    514c:	da000404 	addi	r8,sp,16
    5150:	2885c83a 	sub	r2,r5,r2
    5154:	003dde06 	br	48d0 <___vfprintf_internal_r+0x1494>
    5158:	014000b4 	movhi	r5,2
    515c:	296af404 	addi	r5,r5,-21552
    5160:	d9403115 	stw	r5,196(sp)
    5164:	003f2e06 	br	4e20 <___vfprintf_internal_r+0x19e4>
    5168:	00800b44 	movi	r2,45
    516c:	d8802785 	stb	r2,158(sp)
    5170:	df002b15 	stw	fp,172(sp)
    5174:	d8003215 	stw	zero,200(sp)
    5178:	df002d17 	ldw	fp,180(sp)
    517c:	00800b44 	movi	r2,45
    5180:	dc802d15 	stw	r18,180(sp)
    5184:	003a0e06 	br	39c0 <___vfprintf_internal_r+0x584>
    5188:	d8c02617 	ldw	r3,152(sp)
    518c:	00bfff44 	movi	r2,-3
    5190:	18801b16 	blt	r3,r2,5200 <___vfprintf_internal_r+0x1dc4>
    5194:	48c01a16 	blt	r9,r3,5200 <___vfprintf_internal_r+0x1dc4>
    5198:	d8c03415 	stw	r3,208(sp)
    519c:	040019c4 	movi	r16,103
    51a0:	003e8006 	br	4ba4 <___vfprintf_internal_r+0x1768>
    51a4:	04c00b44 	movi	r19,45
    51a8:	dcc02785 	stb	r19,158(sp)
    51ac:	003af106 	br	3d74 <___vfprintf_internal_r+0x938>
    51b0:	d8c02d17 	ldw	r3,180(sp)
    51b4:	d9002f17 	ldw	r4,188(sp)
    51b8:	18800017 	ldw	r2,0(r3)
    51bc:	18c00104 	addi	r3,r3,4
    51c0:	d8c02d15 	stw	r3,180(sp)
    51c4:	11000015 	stw	r4,0(r2)
    51c8:	0038d706 	br	3528 <___vfprintf_internal_r+0xec>
    51cc:	010000b4 	movhi	r4,2
    51d0:	212b0184 	addi	r4,r4,-21498
    51d4:	d9002c15 	stw	r4,176(sp)
